###############################################################################
#                                                                             #
# IAR C/C++ Compiler V8.10.3.10338/W32 for 8051         05/Aug/2016  07:41:21 #
# Copyright 2004-2011 IAR Systems AB.                                         #
#                                                                             #
#    Core               =  plain                                              #
#    Code model         =  banked                                             #
#    Data model         =  large                                              #
#    Calling convention =  xdata reentrant                                    #
#    Constant location  =  data_rom                                           #
#    Dptr setup         =  1,16                                               #
#    Source file        =  G:\CC2530\第5章 zigbee协议栈应用与组网\第5章       #
#                          zigbee协议栈应用与组网\12.串口透传之无线QQ\ZStack- #
#                          2.5.1a\Projects\zstack\Samples\SampleApp\Source\Sa #
#                          mpleApp.c                                          #
#    Command line       =  -f "G:\CC2530\第5章 zigbee协议栈应用与组网\第5章   #
#                          zigbee协议栈应用与组网\12.串口透传之无线QQ\ZStack- #
#                          2.5.1a\Projects\zstack\Samples\SampleApp\CC2530DB\ #
#                          ..\..\..\Tools\CC2530DB\f8wEndev.cfg" (-DCPU32MHZ  #
#                          -DROOT=__near_func -DMAC_CFG_TX_DATA_MAX=3         #
#                          -DMAC_CFG_TX_MAX=6 -DMAC_CFG_RX_MAX=3) -f          #
#                          "G:\CC2530\第5章 zigbee协议栈应用与组网\第5章      #
#                          zigbee协议栈应用与组网\12.串口透传之无线QQ\ZStack- #
#                          2.5.1a\Projects\zstack\Samples\SampleApp\CC2530DB\ #
#                          ..\..\..\Tools\CC2530DB\f8wConfig.cfg"             #
#                          (-DZIGBEEPRO -DSECURE=0 -DZG_SECURE_DYNAMIC=0      #
#                          -DREFLECTOR -DDEFAULT_CHANLIST=0x02000000          #
#                          -DZDAPP_CONFIG_PAN_ID=0x1688                       #
#                          -DNWK_START_DELAY=100 -DEXTENDED_JOINING_RANDOM_MA #
#                          SK=0x007F -DBEACON_REQUEST_DELAY=100               #
#                          -DBEACON_REQ_DELAY_MASK=0x00FF                     #
#                          -DLINK_STATUS_JITTER_MASK=0x007F                   #
#                          -DROUTE_EXPIRY_TIME=30 -DAPSC_ACK_WAIT_DURATION_PO #
#                          LLED=3000 -DNWK_INDIRECT_MSG_TIMEOUT=7             #
#                          -DMAX_RREQ_ENTRIES=8 -DAPSC_MAX_FRAME_RETRIES=3    #
#                          -DNWK_MAX_DATA_RETRIES=2                           #
#                          -DMAX_POLL_FAILURE_RETRIES=2 -DMAX_BCAST=9         #
#                          -DAPS_MAX_GROUPS=16 -DMAX_RTG_ENTRIES=40           #
#                          -DNWK_MAX_BINDING_ENTRIES=4                        #
#                          -DMAX_BINDING_CLUSTER_IDS=4 "-DDEFAULT_KEY={0x01,  #
#                          0x03, 0x05, 0x07, 0x09, 0x0B, 0x0D, 0x0F, 0x00,    #
#                          0x02, 0x04, 0x06, 0x08, 0x0A, 0x0C, 0x0D}"         #
#                          -DMAC_MAX_FRAME_SIZE=116                           #
#                          -DZDNWKMGR_MIN_TRANSMISSIONS=20 "-DCONST=const     #
#                          __code" -DGENERIC=__generic                        #
#                          -DRFD_RCVC_ALWAYS_ON=FALSE -DPOLL_RATE=1000        #
#                          -DQUEUED_POLL_RATE=100 -DRESPONSE_POLL_RATE=100)   #
#                          -DREJOIN_POLL_RATE=440 "G:\CC2530\第5章            #
#                          zigbee协议栈应用与组网\第5章                       #
#                          zigbee协议栈应用与组网\12.串口透传之无线QQ\ZStack- #
#                          2.5.1a\Projects\zstack\Samples\SampleApp\Source\Sa #
#                          mpleApp.c" -D NWK_AUTO_POLL -D ZTOOL_P1 -D         #
#                          MT_TASK -D MT_SYS_FUNC -D MT_ZDO_FUNC -D           #
#                          LCD_SUPPORTED=DEBUG -lC "G:\CC2530\第5章           #
#                          zigbee协议栈应用与组网\第5章                       #
#                          zigbee协议栈应用与组网\12.串口透传之无线QQ\ZStack- #
#                          2.5.1a\Projects\zstack\Samples\SampleApp\CC2530DB\ #
#                          EndDeviceEB\List\" -lA "G:\CC2530\第5章            #
#                          zigbee协议栈应用与组网\第5章                       #
#                          zigbee协议栈应用与组网\12.串口透传之无线QQ\ZStack- #
#                          2.5.1a\Projects\zstack\Samples\SampleApp\CC2530DB\ #
#                          EndDeviceEB\List\" --diag_suppress Pe001,Pa010 -o  #
#                          "G:\CC2530\第5章 zigbee协议栈应用与组网\第5章      #
#                          zigbee协议栈应用与组网\12.串口透传之无线QQ\ZStack- #
#                          2.5.1a\Projects\zstack\Samples\SampleApp\CC2530DB\ #
#                          EndDeviceEB\Obj\" -e --no_code_motion --debug      #
#                          --core=plain --dptr=16,1 --data_model=large        #
#                          --code_model=banked --calling_convention=xdata_ree #
#                          ntrant --place_constants=data_rom                  #
#                          --nr_virtual_regs 16 -I "G:\CC2530\第5章           #
#                          zigbee协议栈应用与组网\第5章                       #
#                          zigbee协议栈应用与组网\12.串口透传之无线QQ\ZStack- #
#                          2.5.1a\Projects\zstack\Samples\SampleApp\CC2530DB\ #
#                          " -I "G:\CC2530\第5章 zigbee协议栈应用与组网\第5章 #
#                           zigbee协议栈应用与组网\12.串口透传之无线QQ\ZStack #
#                          -2.5.1a\Projects\zstack\Samples\SampleApp\CC2530DB #
#                          \..\Source\" -I "G:\CC2530\第5章                   #
#                          zigbee协议栈应用与组网\第5章                       #
#                          zigbee协议栈应用与组网\12.串口透传之无线QQ\ZStack- #
#                          2.5.1a\Projects\zstack\Samples\SampleApp\CC2530DB\ #
#                          ..\..\..\ZMain\TI2530DB\" -I "G:\CC2530\第5章      #
#                          zigbee协议栈应用与组网\第5章                       #
#                          zigbee协议栈应用与组网\12.串口透传之无线QQ\ZStack- #
#                          2.5.1a\Projects\zstack\Samples\SampleApp\CC2530DB\ #
#                          ..\..\..\..\..\Components\hal\include\" -I         #
#                          "G:\CC2530\第5章 zigbee协议栈应用与组网\第5章      #
#                          zigbee协议栈应用与组网\12.串口透传之无线QQ\ZStack- #
#                          2.5.1a\Projects\zstack\Samples\SampleApp\CC2530DB\ #
#                          ..\..\..\..\..\Components\hal\target\CC2530EB\"    #
#                          -I "G:\CC2530\第5章 zigbee协议栈应用与组网\第5章   #
#                          zigbee协议栈应用与组网\12.串口透传之无线QQ\ZStack- #
#                          2.5.1a\Projects\zstack\Samples\SampleApp\CC2530DB\ #
#                          ..\..\..\..\..\Components\mac\include\" -I         #
#                          "G:\CC2530\第5章 zigbee协议栈应用与组网\第5章      #
#                          zigbee协议栈应用与组网\12.串口透传之无线QQ\ZStack- #
#                          2.5.1a\Projects\zstack\Samples\SampleApp\CC2530DB\ #
#                          ..\..\..\..\..\Components\mac\high_level\" -I      #
#                          "G:\CC2530\第5章 zigbee协议栈应用与组网\第5章      #
#                          zigbee协议栈应用与组网\12.串口透传之无线QQ\ZStack- #
#                          2.5.1a\Projects\zstack\Samples\SampleApp\CC2530DB\ #
#                          ..\..\..\..\..\Components\mac\low_level\srf04\"    #
#                          -I "G:\CC2530\第5章 zigbee协议栈应用与组网\第5章   #
#                          zigbee协议栈应用与组网\12.串口透传之无线QQ\ZStack- #
#                          2.5.1a\Projects\zstack\Samples\SampleApp\CC2530DB\ #
#                          ..\..\..\..\..\Components\mac\low_level\srf04\sing #
#                          le_chip\" -I "G:\CC2530\第5章                      #
#                          zigbee协议栈应用与组网\第5章                       #
#                          zigbee协议栈应用与组网\12.串口透传之无线QQ\ZStack- #
#                          2.5.1a\Projects\zstack\Samples\SampleApp\CC2530DB\ #
#                          ..\..\..\..\..\Components\mt\" -I                  #
#                          "G:\CC2530\第5章 zigbee协议栈应用与组网\第5章      #
#                          zigbee协议栈应用与组网\12.串口透传之无线QQ\ZStack- #
#                          2.5.1a\Projects\zstack\Samples\SampleApp\CC2530DB\ #
#                          ..\..\..\..\..\Components\osal\include\" -I        #
#                          "G:\CC2530\第5章 zigbee协议栈应用与组网\第5章      #
#                          zigbee协议栈应用与组网\12.串口透传之无线QQ\ZStack- #
#                          2.5.1a\Projects\zstack\Samples\SampleApp\CC2530DB\ #
#                          ..\..\..\..\..\Components\services\saddr\" -I      #
#                          "G:\CC2530\第5章 zigbee协议栈应用与组网\第5章      #
#                          zigbee协议栈应用与组网\12.串口透传之无线QQ\ZStack- #
#                          2.5.1a\Projects\zstack\Samples\SampleApp\CC2530DB\ #
#                          ..\..\..\..\..\Components\services\sdata\" -I      #
#                          "G:\CC2530\第5章 zigbee协议栈应用与组网\第5章      #
#                          zigbee协议栈应用与组网\12.串口透传之无线QQ\ZStack- #
#                          2.5.1a\Projects\zstack\Samples\SampleApp\CC2530DB\ #
#                          ..\..\..\..\..\Components\stack\af\" -I            #
#                          "G:\CC2530\第5章 zigbee协议栈应用与组网\第5章      #
#                          zigbee协议栈应用与组网\12.串口透传之无线QQ\ZStack- #
#                          2.5.1a\Projects\zstack\Samples\SampleApp\CC2530DB\ #
#                          ..\..\..\..\..\Components\stack\nwk\" -I           #
#                          "G:\CC2530\第5章 zigbee协议栈应用与组网\第5章      #
#                          zigbee协议栈应用与组网\12.串口透传之无线QQ\ZStack- #
#                          2.5.1a\Projects\zstack\Samples\SampleApp\CC2530DB\ #
#                          ..\..\..\..\..\Components\stack\sapi\" -I          #
#                          "G:\CC2530\第5章 zigbee协议栈应用与组网\第5章      #
#                          zigbee协议栈应用与组网\12.串口透传之无线QQ\ZStack- #
#                          2.5.1a\Projects\zstack\Samples\SampleApp\CC2530DB\ #
#                          ..\..\..\..\..\Components\stack\sec\" -I           #
#                          "G:\CC2530\第5章 zigbee协议栈应用与组网\第5章      #
#                          zigbee协议栈应用与组网\12.串口透传之无线QQ\ZStack- #
#                          2.5.1a\Projects\zstack\Samples\SampleApp\CC2530DB\ #
#                          ..\..\..\..\..\Components\stack\sys\" -I           #
#                          "G:\CC2530\第5章 zigbee协议栈应用与组网\第5章      #
#                          zigbee协议栈应用与组网\12.串口透传之无线QQ\ZStack- #
#                          2.5.1a\Projects\zstack\Samples\SampleApp\CC2530DB\ #
#                          ..\..\..\..\..\Components\stack\zdo\" -I           #
#                          "G:\CC2530\第5章 zigbee协议栈应用与组网\第5章      #
#                          zigbee协议栈应用与组网\12.串口透传之无线QQ\ZStack- #
#                          2.5.1a\Projects\zstack\Samples\SampleApp\CC2530DB\ #
#                          ..\..\..\..\..\Components\zmac\" -I                #
#                          "G:\CC2530\第5章 zigbee协议栈应用与组网\第5章      #
#                          zigbee协议栈应用与组网\12.串口透传之无线QQ\ZStack- #
#                          2.5.1a\Projects\zstack\Samples\SampleApp\CC2530DB\ #
#                          ..\..\..\..\..\Components\zmac\f8w\" -Ohz          #
#                          --require_prototypes                               #
#    List file          =  G:\CC2530\第5章 zigbee协议栈应用与组网\第5章       #
#                          zigbee协议栈应用与组网\12.串口透传之无线QQ\ZStack- #
#                          2.5.1a\Projects\zstack\Samples\SampleApp\CC2530DB\ #
#                          EndDeviceEB\List\SampleApp.lst                     #
#    Object file        =  G:\CC2530\第5章 zigbee协议栈应用与组网\第5章       #
#                          zigbee协议栈应用与组网\12.串口透传之无线QQ\ZStack- #
#                          2.5.1a\Projects\zstack\Samples\SampleApp\CC2530DB\ #
#                          EndDeviceEB\Obj\SampleApp.r51                      #
#                                                                             #
#                                                                             #
###############################################################################

G:\CC2530\第5章 zigbee协议栈应用与组网\第5章 zigbee协议栈应用与组网\12.串口透传之无线QQ\ZStack-2.5.1a\Projects\zstack\Samples\SampleApp\Source\SampleApp.c
      1          /**************************************************************************************************
      2            Filename:       SampleApp.c
      3            Revised:        $Date: 2009-03-18 15:56:27 -0700 (Wed, 18 Mar 2009) $
      4            Revision:       $Revision: 19453 $
      5          
      6            Description:    Sample Application (no Profile).
      7          
      8          
      9            Copyright 2007 Texas Instruments Incorporated. All rights reserved.
     10          
     11            IMPORTANT: Your use of this Software is limited to those specific rights
     12            granted under the terms of a software license agreement between the user
     13            who downloaded the software, his/her employer (which must be your employer)
     14            and Texas Instruments Incorporated (the "License").  You may not use this
     15            Software unless you agree to abide by the terms of the License. The License
     16            limits your use, and you acknowledge, that the Software may not be modified,
     17            copied or distributed unless embedded on a Texas Instruments microcontroller
     18            or used solely and exclusively in conjunction with a Texas Instruments radio
     19            frequency transceiver, which is integrated into your product.  Other than for
     20            the foregoing purpose, you may not use, reproduce, copy, prepare derivative
     21            works of, modify, distribute, perform, display or sell this Software and/or
     22            its documentation for any purpose.
     23          
     24            YOU FURTHER ACKNOWLEDGE AND AGREE THAT THE SOFTWARE AND DOCUMENTATION ARE
     25            PROVIDED AS IS?WITHOUT WARRANTY OF ANY KIND, EITHER EXPRESS OR IMPLIED,
     26            INCLUDING WITHOUT LIMITATION, ANY WARRANTY OF MERCHANTABILITY, TITLE,
     27            NON-INFRINGEMENT AND FITNESS FOR A PARTICULAR PURPOSE. IN NO EVENT SHALL
     28            TEXAS INSTRUMENTS OR ITS LICENSORS BE LIABLE OR OBLIGATED UNDER CONTRACT,
     29            NEGLIGENCE, STRICT LIABILITY, CONTRIBUTION, BREACH OF WARRANTY, OR OTHER
     30            LEGAL EQUITABLE THEORY ANY DIRECT OR INDIRECT DAMAGES OR EXPENSES
     31            INCLUDING BUT NOT LIMITED TO ANY INCIDENTAL, SPECIAL, INDIRECT, PUNITIVE
     32            OR CONSEQUENTIAL DAMAGES, LOST PROFITS OR LOST DATA, COST OF PROCUREMENT
     33            OF SUBSTITUTE GOODS, TECHNOLOGY, SERVICES, OR ANY CLAIMS BY THIRD PARTIES
     34            (INCLUDING BUT NOT LIMITED TO ANY DEFENSE THEREOF), OR OTHER SIMILAR COSTS.
     35          
     36            Should you have any questions regarding your right to use this Software,
     37            contact Texas Instruments Incorporated at www.TI.com.
     38          **************************************************************************************************/
     39          
     40          /*********************************************************************
     41            This application isn't intended to do anything useful, it is
     42            intended to be a simple example of an application's structure.
     43          
     44            This application sends it's messages either as broadcast or
     45            broadcast filtered group messages.  The other (more normal)
     46            message addressing is unicast.  Most of the other sample
     47            applications are written to support the unicast message model.
     48          
     49            Key control:
     50              SW1:  Sends a flash command to all devices in Group 1.
     51              SW2:  Adds/Removes (toggles) this device in and out
     52                    of Group 1.  This will enable and disable the
     53                    reception of the flash command.
     54          *********************************************************************/
     55          
     56          /*********************************************************************
     57           * INCLUDES
     58           */
     59          #include "OSAL.h"
     60          #include "ZGlobals.h"
     61          #include "AF.h"
     62          #include "aps_groups.h"
     63          #include "ZDApp.h"
     64          
     65          #include "SampleApp.h"
     66          #include "SampleAppHw.h"
     67          
     68          #include "OnBoard.h"

   \                                 In  segment SFR_AN, at 0x80
   \   union <unnamed> volatile __sfr _A_P0
   \                     _A_P0:
   \   000000                DS 1

   \                                 In  segment SFR_AN, at 0xf3
   \   unsigned char volatile __sfr P0SEL
   \                     P0SEL:
   \   000000                DS 1

   \                                 In  segment SFR_AN, at 0xfd
   \   unsigned char volatile __sfr P0DIR
   \                     P0DIR:
   \   000000                DS 1
     69          
     70          /* HAL */
     71          #include "hal_lcd.h"
     72          #include "hal_led.h"
     73          #include "hal_key.h"
     74          #include "MT_UART.h"
     75          #include "MT_APP.h"
     76          #include "MT.h"
     77          
     78          /*********************************************************************
     79           * MACROS
     80           */
     81          #define ARRAY_SIZE(arr) (sizeof(arr) / sizeof(arr)[0])
     82          #define DATA_PIN P0_5            //定义P0.5口为传感器的输入端
     83          
     84          /*********************************************************************
     85           * CONSTANTS
     86           */
     87          
     88          /*********************************************************************
     89           * TYPEDEFS
     90           */
     91          
     92          /*********************************************************************
     93           * GLOBAL VARIABLES
     94           */

   \                                 In  segment XDATA_I, align 1, keep-with-next
     95          uint8 AppTitle[] = "photoresistance"; //应用程序名称
   \                     AppTitle:
   \   000000                DS 16
   \   000010                REQUIRE `?<Initializer for AppTitle>`
   \   000010                REQUIRE __INIT_XDATA_I
     96          
     97          // This list should be filled with Application specific Cluster IDs.

   \                                 In  segment XDATA_ROM_C, align 1
     98          const cId_t SampleApp_ClusterList[SAMPLEAPP_MAX_CLUSTERS] =
   \                     SampleApp_ClusterList:
   \   000000   0100         DW 1
   \   000002   0200         DW 2
   \   000004   0300         DW 3
     99          {
    100            SAMPLEAPP_PERIODIC_CLUSTERID,
    101            SAMPLEAPP_FLASH_CLUSTERID,
    102            SAMPLEAPP_P2P_CLUSTERID
    103          };
    104          

   \                                 In  segment XDATA_ROM_C, align 1
    105          const SimpleDescriptionFormat_t SampleApp_SimpleDesc =
   \                     SampleApp_SimpleDesc:
   \   000000   14           DB 20
   \   000001   080F         DW 3848
   \   000003   0100         DW 1
   \   000005   00           DB 0
   \   000006   03           DB 3
   \   000007   ....         DW SampleApp_ClusterList
   \   000009   03           DB 3
   \   00000A   ....         DW SampleApp_ClusterList
    106          {
    107            SAMPLEAPP_ENDPOINT,              //  int Endpoint;
    108            SAMPLEAPP_PROFID,                //  uint16 AppProfId[2];
    109            SAMPLEAPP_DEVICEID,              //  uint16 AppDeviceId[2];
    110            SAMPLEAPP_DEVICE_VERSION,        //  int   AppDevVer:4;
    111            SAMPLEAPP_FLAGS,                 //  int   AppFlags:4;
    112            SAMPLEAPP_MAX_CLUSTERS,          //  uint8  AppNumInClusters;
    113            (cId_t *)SampleApp_ClusterList,  //  uint8 *pAppInClusterList;
    114            SAMPLEAPP_MAX_CLUSTERS,          //  uint8  AppNumInClusters;
    115            (cId_t *)SampleApp_ClusterList   //  uint8 *pAppInClusterList;
    116          };
    117          
    118          // This is the Endpoint/Interface description.  It is defined here, but
    119          // filled-in in SampleApp_Init().  Another way to go would be to fill
    120          // in the structure here and make it a "const" (in code space).  The
    121          // way it's defined in this sample app it is define in RAM.

   \                                 In  segment XDATA_Z, align 1, keep-with-next
    122          endPointDesc_t SampleApp_epDesc;
   \                     SampleApp_epDesc:
   \   000000                DS 6
   \   000006                REQUIRE __INIT_XDATA_Z
    123          
    124          /*********************************************************************
    125           * EXTERNAL VARIABLES
    126           */
    127          
    128          /*********************************************************************
    129           * EXTERNAL FUNCTIONS
    130           */
    131          
    132          /*********************************************************************
    133           * LOCAL VARIABLES
    134           */

   \                                 In  segment XDATA_Z, align 1, keep-with-next
    135          uint8 SampleApp_TaskID;   // Task ID for internal task/event processing
   \                     SampleApp_TaskID:
   \   000000                DS 1
   \   000001                REQUIRE __INIT_XDATA_Z
    136                                    // This variable will be received when
    137                                    // SampleApp_Init() is called.

   \                                 In  segment XDATA_Z, align 1, keep-with-next
    138          devStates_t SampleApp_NwkState;
   \                     SampleApp_NwkState:
   \   000000                DS 1
   \   000001                REQUIRE __INIT_XDATA_Z
    139          

   \                                 In  segment XDATA_Z, align 1, keep-with-next
    140          uint8 SampleApp_TransID;  // This is the unique message ID (counter)
   \                     SampleApp_TransID:
   \   000000                DS 1
   \   000001                REQUIRE __INIT_XDATA_Z
    141          

   \                                 In  segment XDATA_Z, align 1, keep-with-next
    142          afAddrType_t SampleApp_Periodic_DstAddr; //广播
   \                     SampleApp_Periodic_DstAddr:
   \   000000                DS 12
   \   00000C                REQUIRE __INIT_XDATA_Z

   \                                 In  segment XDATA_Z, align 1, keep-with-next
    143          afAddrType_t SampleApp_Flash_DstAddr;    //组播
   \                     SampleApp_Flash_DstAddr:
   \   000000                DS 12
   \   00000C                REQUIRE __INIT_XDATA_Z

   \                                 In  segment XDATA_Z, align 1, keep-with-next
    144          afAddrType_t SampleApp_P2P_DstAddr;      //点播
   \                     SampleApp_P2P_DstAddr:
   \   000000                DS 12
   \   00000C                REQUIRE __INIT_XDATA_Z
    145          

   \                                 In  segment XDATA_Z, align 1, keep-with-next
    146          aps_Group_t SampleApp_Group;
   \                     SampleApp_Group:
   \   000000                DS 18
   \   000012                REQUIRE __INIT_XDATA_Z
    147          

   \                                 In  segment XDATA_Z, align 1, keep-with-next
    148          uint8 SampleAppPeriodicCounter = 0;
   \                     SampleAppPeriodicCounter:
   \   000000                DS 1
   \   000001                REQUIRE __INIT_XDATA_Z

   \                                 In  segment XDATA_Z, align 1, keep-with-next
    149          uint8 SampleAppFlashCounter = 0;
   \                     SampleAppFlashCounter:
   \   000000                DS 1
   \   000001                REQUIRE __INIT_XDATA_Z
    150          
    151          /*********************************************************************
    152           * LOCAL FUNCTIONS
    153           */
    154          void SampleApp_HandleKeys( uint8 shift, uint8 keys );
    155          void SampleApp_MessageMSGCB( afIncomingMSGPacket_t *pckt );
    156          void SampleApp_SendPeriodicMessage( void );
    157          void SampleApp_SendFlashMessage( uint16 flashTime );
    158          void SampleApp_Send_P2P_Message(void);
    159          /*********************************************************************
    160           * NETWORK LAYER CALLBACKS
    161           */
    162          
    163          /*********************************************************************
    164           * PUBLIC FUNCTIONS
    165           */
    166          
    167          /*********************************************************************
    168           * @fn      SampleApp_Init
    169           *
    170           * @brief   Initialization function for the Generic App Task.
    171           *          This is called during initialization and should contain
    172           *          any application specific initialization (ie. hardware
    173           *          initialization/setup, table initialization, power up
    174           *          notificaiton ... ).
    175           *
    176           * @param   task_id - the ID assigned by OSAL.  This ID should be
    177           *                    used to send messages and set timers.
    178           *
    179           * @return  none
    180           */

   \                                 In  segment BANKED_CODE, align 1, keep-with-next
    181          void SampleApp_Init( uint8 task_id )
   \                     SampleApp_Init:
    182          { 
   \   000000   74F5         MOV     A,#-0xb
   \   000002   12....       LCALL   ?BANKED_ENTER_XDATA
   \   000005                ; Saved register size: 11
   \   000005                ; Auto size: 0
   \   000005   E9           MOV     A,R1
   \   000006   FE           MOV     R6,A
    183            SampleApp_TaskID = task_id;
   \   000007   90....       MOV     DPTR,#SampleApp_TaskID
   \   00000A   F0           MOVX    @DPTR,A
    184            SampleApp_NwkState = DEV_INIT;
   \   00000B   90....       MOV     DPTR,#SampleApp_NwkState
   \   00000E   7401         MOV     A,#0x1
   \   000010   F0           MOVX    @DPTR,A
    185            SampleApp_TransID = 0;
   \   000011   90....       MOV     DPTR,#SampleApp_TransID
   \   000014   E4           CLR     A
   \   000015   F0           MOVX    @DPTR,A
    186            
    187            MT_UartInit();                  //串口初始化
   \   000016                ; Setup parameters for call to function MT_UartInit
   \   000016   12....       LCALL   ??MT_UartInit?relay
    188            MT_UartRegisterTaskID(task_id); //注册串口任务
   \   000019                ; Setup parameters for call to function MT_UartRegisterTaskID
   \   000019   EE           MOV     A,R6
   \   00001A   F9           MOV     R1,A
   \   00001B   12....       LCALL   ??MT_UartRegisterTaskID?relay
    189            P0SEL &= 0xDf;                  //设置P0.5口为普通IO
   \   00001E   53F3DF       ANL     0xf3,#0xdf
    190            P0DIR &= 0xDf;                  //设置端口为输入
   \   000021   53FDDF       ANL     0xfd,#0xdf
    191            
    192            // Device hardware initialization can be added here or in main() (Zmain.c).
    193            // If the hardware is application specific - add it here.
    194            // If the hardware is other parts of the device add it in main().
    195          
    196           #if defined ( BUILD_ALL_DEVICES )
    197            // The "Demo" target is setup to have BUILD_ALL_DEVICES and HOLD_AUTO_START
    198            // We are looking at a jumper (defined in SampleAppHw.c) to be jumpered
    199            // together - if they are - we will start up a coordinator. Otherwise,
    200            // the device will start as a router.
    201            if ( readCoordinatorJumper() )
    202              zgDeviceLogicalType = ZG_DEVICETYPE_COORDINATOR;
    203            else
    204              zgDeviceLogicalType = ZG_DEVICETYPE_ROUTER;
    205          #endif // BUILD_ALL_DEVICES
    206          
    207          #if defined ( HOLD_AUTO_START )
    208            // HOLD_AUTO_START is a compile option that will surpress ZDApp
    209            //  from starting the device and wait for the application to
    210            //  start the device.
    211            ZDOInitDevice(0);
    212          #endif
    213          
    214            // Setup for the periodic message's destination address
    215            // Broadcast to everyone
    216            SampleApp_Periodic_DstAddr.addrMode = (afAddrMode_t)AddrBroadcast;
   \   000024   90....       MOV     DPTR,#SampleApp_Periodic_DstAddr + 8
   \   000027   740F         MOV     A,#0xf
   \   000029   F0           MOVX    @DPTR,A
    217            SampleApp_Periodic_DstAddr.endPoint = SAMPLEAPP_ENDPOINT;
   \   00002A   A3           INC     DPTR
   \   00002B   7414         MOV     A,#0x14
   \   00002D   F0           MOVX    @DPTR,A
    218            SampleApp_Periodic_DstAddr.addr.shortAddr = 0xFFFF;
   \   00002E   90....       MOV     DPTR,#SampleApp_Periodic_DstAddr
   \   000031   74FF         MOV     A,#-0x1
   \   000033   F0           MOVX    @DPTR,A
   \   000034   A3           INC     DPTR
   \   000035   F0           MOVX    @DPTR,A
    219          
    220            // Setup for the flash command's destination address - Group 1
    221            SampleApp_Flash_DstAddr.addrMode = (afAddrMode_t)afAddrGroup;
   \   000036   90....       MOV     DPTR,#SampleApp_Flash_DstAddr + 8
   \   000039   7401         MOV     A,#0x1
   \   00003B   F0           MOVX    @DPTR,A
    222            SampleApp_Flash_DstAddr.endPoint = SAMPLEAPP_ENDPOINT;
   \   00003C   A3           INC     DPTR
   \   00003D   7414         MOV     A,#0x14
   \   00003F   F0           MOVX    @DPTR,A
    223            SampleApp_Flash_DstAddr.addr.shortAddr = SAMPLEAPP_FLASH_GROUP;
   \   000040   90....       MOV     DPTR,#SampleApp_Flash_DstAddr
   \   000043   7401         MOV     A,#0x1
   \   000045   F0           MOVX    @DPTR,A
   \   000046   A3           INC     DPTR
   \   000047   E4           CLR     A
   \   000048   F0           MOVX    @DPTR,A
    224            
    225            SampleApp_P2P_DstAddr.addrMode = (afAddrMode_t)Addr16Bit; //点播 
   \   000049   90....       MOV     DPTR,#SampleApp_P2P_DstAddr + 8
   \   00004C   7402         MOV     A,#0x2
   \   00004E   F0           MOVX    @DPTR,A
    226            SampleApp_P2P_DstAddr.endPoint = SAMPLEAPP_ENDPOINT; 
   \   00004F   A3           INC     DPTR
   \   000050   7414         MOV     A,#0x14
   \   000052   F0           MOVX    @DPTR,A
    227            SampleApp_P2P_DstAddr.addr.shortAddr = 0x0000;            //发给协调器
   \   000053   90....       MOV     DPTR,#SampleApp_P2P_DstAddr
   \   000056   E4           CLR     A
   \   000057   F0           MOVX    @DPTR,A
   \   000058   A3           INC     DPTR
   \   000059   F0           MOVX    @DPTR,A
    228          
    229            // Fill out the endpoint description.
    230            SampleApp_epDesc.endPoint = SAMPLEAPP_ENDPOINT;
   \   00005A   90....       MOV     DPTR,#SampleApp_epDesc
   \   00005D   7414         MOV     A,#0x14
   \   00005F   F0           MOVX    @DPTR,A
    231            SampleApp_epDesc.task_id = &SampleApp_TaskID;
   \   000060   A3           INC     DPTR
   \   000061   74..         MOV     A,#SampleApp_TaskID & 0xff
   \   000063   F0           MOVX    @DPTR,A
   \   000064   A3           INC     DPTR
   \   000065   74..         MOV     A,#(SampleApp_TaskID >> 8) & 0xff
   \   000067   F0           MOVX    @DPTR,A
    232            SampleApp_epDesc.simpleDesc
    233                      = (SimpleDescriptionFormat_t *)&SampleApp_SimpleDesc;
   \   000068   A3           INC     DPTR
   \   000069   74..         MOV     A,#SampleApp_SimpleDesc & 0xff
   \   00006B   F0           MOVX    @DPTR,A
   \   00006C   A3           INC     DPTR
   \   00006D   74..         MOV     A,#(SampleApp_SimpleDesc >> 8) & 0xff
   \   00006F   F0           MOVX    @DPTR,A
    234            SampleApp_epDesc.latencyReq = noLatencyReqs;
   \   000070   A3           INC     DPTR
   \   000071   E4           CLR     A
   \   000072   F0           MOVX    @DPTR,A
    235          
    236            // Register the endpoint description with the AF
    237            afRegister( &SampleApp_epDesc );
   \   000073                ; Setup parameters for call to function afRegister
   \   000073   7A..         MOV     R2,#SampleApp_epDesc & 0xff
   \   000075   7B..         MOV     R3,#(SampleApp_epDesc >> 8) & 0xff
   \   000077   12....       LCALL   ??afRegister?relay
    238          
    239            // Register for all key events - This app will handle all key events
    240            RegisterForKeys( SampleApp_TaskID );
   \   00007A                ; Setup parameters for call to function RegisterForKeys
   \   00007A   90....       MOV     DPTR,#SampleApp_TaskID
   \   00007D   E0           MOVX    A,@DPTR
   \   00007E   F9           MOV     R1,A
   \   00007F   12....       LCALL   ??RegisterForKeys?relay
    241          
    242            // By default, all devices start out in Group 1
    243            SampleApp_Group.ID = 0x0001;
   \   000082   90....       MOV     DPTR,#SampleApp_Group
   \   000085   7401         MOV     A,#0x1
   \   000087   F0           MOVX    @DPTR,A
   \   000088   A3           INC     DPTR
   \   000089   E4           CLR     A
   \   00008A   F0           MOVX    @DPTR,A
    244            osal_memcpy( SampleApp_Group.name, "Group 1", 7 );
   \   00008B                ; Setup parameters for call to function osal_memcpy
   \   00008B   75....       MOV     ?V0 + 0,#`?<Constant "Group 1">` & 0xff
   \   00008E   75....       MOV     ?V0 + 1,#(`?<Constant "Group 1">` >> 8) & 0xff
   \   000091   F5..         MOV     ?V0 + 2,A
   \   000093   78..         MOV     R0,#?V0 + 0
   \   000095   12....       LCALL   ?PUSH_XSTACK_I_THREE
   \   000098   7C07         MOV     R4,#0x7
   \   00009A   7D00         MOV     R5,#0x0
   \   00009C   7A..         MOV     R2,#(SampleApp_Group + 2) & 0xff
   \   00009E   7B..         MOV     R3,#((SampleApp_Group + 2) >> 8) & 0xff
   \   0000A0   12....       LCALL   ??osal_memcpy?relay
   \   0000A3   7403         MOV     A,#0x3
   \   0000A5   12....       LCALL   ?DEALLOC_XSTACK8
    245            aps_AddGroup( SAMPLEAPP_ENDPOINT, &SampleApp_Group );
   \   0000A8                ; Setup parameters for call to function aps_AddGroup
   \   0000A8   7A..         MOV     R2,#SampleApp_Group & 0xff
   \   0000AA   7B..         MOV     R3,#(SampleApp_Group >> 8) & 0xff
   \   0000AC   7914         MOV     R1,#0x14
   \   0000AE   12....       LCALL   ??aps_AddGroup?relay
    246          
    247          #if defined ( LCD_SUPPORTED )
    248            HalLcdWriteString( "SampleApp", HAL_LCD_LINE_1 );
   \   0000B1                ; Setup parameters for call to function HalLcdWriteString
   \   0000B1   7900         MOV     R1,#0x0
   \   0000B3   7A..         MOV     R2,#`?<Constant "SampleApp">` & 0xff
   \   0000B5   7B..         MOV     R3,#(`?<Constant "SampleApp">` >> 8) & 0xff
   \   0000B7   12....       LCALL   ??HalLcdWriteString?relay
    249          #endif
    250          }
   \   0000BA   7F03         MOV     R7,#0x3
   \   0000BC   02....       LJMP    ?BANKED_LEAVE_XDATA
   \   0000BF                REQUIRE P0SEL
   \   0000BF                REQUIRE P0DIR
    251          
    252          /*********************************************************************
    253           * @fn      SampleApp_ProcessEvent
    254           *
    255           * @brief   Generic Application Task event processor.  This function
    256           *          is called to process all events for the task.  Events
    257           *          include timers, messages and any other user defined events.
    258           *
    259           * @param   task_id  - The OSAL assigned task ID.
    260           * @param   events - events to process.  This is a bit map and can
    261           *                   contain more than one event.
    262           *
    263           * @return  none
    264           */

   \                                 In  segment BANKED_CODE, align 1, keep-with-next
    265          uint16 SampleApp_ProcessEvent( uint8 task_id, uint16 events )
   \                     SampleApp_ProcessEvent:
    266          {
   \   000000   74F4         MOV     A,#-0xc
   \   000002   12....       LCALL   ?BANKED_ENTER_XDATA
   \   000005                ; Saved register size: 12
   \   000005                ; Auto size: 0
   \   000005   EA           MOV     A,R2
   \   000006   FE           MOV     R6,A
   \   000007   EB           MOV     A,R3
   \   000008   FF           MOV     R7,A
    267            afIncomingMSGPacket_t *MSGpkt;
    268            (void)task_id;  // Intentionally unreferenced parameter
    269          
    270            if ( events & SYS_EVENT_MSG )
   \   000009   5480         ANL     A,#0x80
   \   00000B   6074         JZ      ??SampleApp_ProcessEvent_0
    271            {
    272              MSGpkt = (afIncomingMSGPacket_t *)osal_msg_receive( SampleApp_TaskID );
   \   00000D                ; Setup parameters for call to function osal_msg_receive
   \   00000D   8026         SJMP    ??SampleApp_ProcessEvent_1
    273              while ( MSGpkt )
    274              {
    275                switch ( MSGpkt->hdr.event )
    276                {
    277                  // Received when a key is pressed
    278                  case KEY_CHANGE:
    279                    SampleApp_HandleKeys( ((keyChange_t *)MSGpkt)->state, ((keyChange_t *)MSGpkt)->keys );
    280                    break;
    281          
    282                  // Received when a messages is received (OTA) for this endpoint
    283                  case AF_INCOMING_MSG_CMD:
    284                    SampleApp_MessageMSGCB( MSGpkt );
    285                    break;
    286          
    287                  // Received whenever the device changes state in the network
    288                  case ZDO_STATE_CHANGE:
    289                    SampleApp_NwkState = (devStates_t)(MSGpkt->hdr.status);
   \                     ??SampleApp_ProcessEvent_2:
   \   00000F   A3           INC     DPTR
   \   000010   E0           MOVX    A,@DPTR
   \   000011   90....       MOV     DPTR,#SampleApp_NwkState
   \   000014   F0           MOVX    @DPTR,A
    290                    if ( //(SampleApp_NwkState == DEV_ZB_COORD) ||
    291                           (SampleApp_NwkState == DEV_ROUTER)
    292                        || (SampleApp_NwkState == DEV_END_DEVICE) )
   \   000015   6407         XRL     A,#0x7
   \   000017   6005         JZ      ??SampleApp_ProcessEvent_3
   \   000019   E0           MOVX    A,@DPTR
   \   00001A   6406         XRL     A,#0x6
   \   00001C   7010         JNZ     ??SampleApp_ProcessEvent_4
    293                    {
    294                      // Start sending the periodic message in a regular interval.
    295                      osal_start_timerEx( SampleApp_TaskID,
    296                                        SAMPLEAPP_SEND_PERIODIC_MSG_EVT,
    297                                        SAMPLEAPP_SEND_PERIODIC_MSG_TIMEOUT );
   \                     ??SampleApp_ProcessEvent_3:
   \   00001E                ; Setup parameters for call to function osal_start_timerEx
   \   00001E   7CE8         MOV     R4,#-0x18
   \   000020   7D03         MOV     R5,#0x3
   \   000022   7A01         MOV     R2,#0x1
   \   000024   7B00         MOV     R3,#0x0
   \   000026   90....       MOV     DPTR,#SampleApp_TaskID
   \   000029   E0           MOVX    A,@DPTR
   \   00002A   F9           MOV     R1,A
   \   00002B   12....       LCALL   ??osal_start_timerEx?relay
    298                    }
    299                    else
    300                    {
    301                      // Device is no longer in the network
    302                    }
    303                    break;
    304          
    305                  default:
    306                    break;
    307                }
    308          
    309                // Release the memory
    310                osal_msg_deallocate( (uint8 *)MSGpkt );
   \                     ??SampleApp_ProcessEvent_4:
   \   00002E                ; Setup parameters for call to function osal_msg_deallocate
   \   00002E   AA..         MOV     R2,?V0 + 0
   \   000030   AB..         MOV     R3,?V0 + 1
   \   000032   12....       LCALL   ??osal_msg_deallocate?relay
    311          
    312                // Next - if one is available
    313                MSGpkt = (afIncomingMSGPacket_t *)osal_msg_receive( SampleApp_TaskID );
   \   000035                ; Setup parameters for call to function osal_msg_receive
   \                     ??SampleApp_ProcessEvent_1:
   \   000035   90....       MOV     DPTR,#SampleApp_TaskID
   \   000038   E0           MOVX    A,@DPTR
   \   000039   F9           MOV     R1,A
   \   00003A   12....       LCALL   ??osal_msg_receive?relay
   \   00003D   8A..         MOV     ?V0 + 0,R2
   \   00003F   8B..         MOV     ?V0 + 1,R3
   \   000041   E5..         MOV     A,?V0 + 0
   \   000043   45..         ORL     A,?V0 + 1
   \   000045   6032         JZ      ??SampleApp_ProcessEvent_5
   \   000047   85..82       MOV     DPL,?V0 + 0
   \   00004A   85..83       MOV     DPH,?V0 + 1
   \   00004D   E0           MOVX    A,@DPTR
   \   00004E   24E6         ADD     A,#-0x1a
   \   000050   601E         JZ      ??SampleApp_ProcessEvent_6
   \   000052   245A         ADD     A,#0x5a
   \   000054   6006         JZ      ??SampleApp_ProcessEvent_7
   \   000056   24EF         ADD     A,#-0x11
   \   000058   60B5         JZ      ??SampleApp_ProcessEvent_2
   \   00005A   80D2         SJMP    ??SampleApp_ProcessEvent_4
   \                     ??SampleApp_ProcessEvent_7:
   \   00005C                ; Setup parameters for call to function SampleApp_HandleKeys
   \   00005C   A3           INC     DPTR
   \   00005D   A3           INC     DPTR
   \   00005E   A3           INC     DPTR
   \   00005F   E0           MOVX    A,@DPTR
   \   000060   FA           MOV     R2,A
   \   000061   85..82       MOV     DPL,?V0 + 0
   \   000064   85..83       MOV     DPH,?V0 + 1
   \   000067   A3           INC     DPTR
   \   000068   A3           INC     DPTR
   \   000069   E0           MOVX    A,@DPTR
   \   00006A   F9           MOV     R1,A
   \   00006B   12....       LCALL   ??SampleApp_HandleKeys?relay
   \   00006E   80BE         SJMP    ??SampleApp_ProcessEvent_4
   \                     ??SampleApp_ProcessEvent_6:
   \   000070                ; Setup parameters for call to function SampleApp_MessageMSGCB
   \   000070   AA..         MOV     R2,?V0 + 0
   \   000072   AB..         MOV     R3,?V0 + 1
   \   000074   12....       LCALL   ??SampleApp_MessageMSGCB?relay
   \   000077   80B5         SJMP    ??SampleApp_ProcessEvent_4
    314              }
    315          
    316              // return unprocessed events
    317              return (events ^ SYS_EVENT_MSG);
   \                     ??SampleApp_ProcessEvent_5:
   \   000079   EE           MOV     A,R6
   \   00007A   FA           MOV     R2,A
   \   00007B   EF           MOV     A,R7
   \   00007C   6480         XRL     A,#0x80
   \                     ??SampleApp_ProcessEvent_8:
   \   00007E   FB           MOV     R3,A
   \   00007F   802A         SJMP    ??SampleApp_ProcessEvent_9
    318            }
    319          
    320            // Send a message out - This event is generated by a timer
    321            //  (setup in SampleApp_Init()).
    322            if ( events & SAMPLEAPP_SEND_PERIODIC_MSG_EVT )
   \                     ??SampleApp_ProcessEvent_0:
   \   000081   EE           MOV     A,R6
   \   000082   A2E0         MOV     C,0xE0 /* A   */.0
   \   000084   5021         JNC     ??SampleApp_ProcessEvent_10
    323            {
    324              // Send the periodic message
    325              //SampleApp_SendPeriodicMessage();
    326              SampleApp_Send_P2P_Message();
   \   000086                ; Setup parameters for call to function SampleApp_Send_P2P_Message
   \   000086   12....       LCALL   ??SampleApp_Send_P2P_Message?relay
    327          
    328              // Setup to send message again in normal period (+ a little jitter)
    329              osal_start_timerEx( SampleApp_TaskID, SAMPLEAPP_SEND_PERIODIC_MSG_EVT,
    330                  (SAMPLEAPP_SEND_PERIODIC_MSG_TIMEOUT + (osal_rand() & 0x00FF)) );
   \   000089                ; Setup parameters for call to function osal_rand
   \   000089   12....       LCALL   ??osal_rand?relay
   \   00008C                ; Setup parameters for call to function osal_start_timerEx
   \   00008C   EA           MOV     A,R2
   \   00008D   24E8         ADD     A,#-0x18
   \   00008F   FC           MOV     R4,A
   \   000090   E4           CLR     A
   \   000091   3403         ADDC    A,#0x3
   \   000093   FD           MOV     R5,A
   \   000094   7A01         MOV     R2,#0x1
   \   000096   7B00         MOV     R3,#0x0
   \   000098   90....       MOV     DPTR,#SampleApp_TaskID
   \   00009B   E0           MOVX    A,@DPTR
   \   00009C   F9           MOV     R1,A
   \   00009D   12....       LCALL   ??osal_start_timerEx?relay
    331          
    332              // return unprocessed events
    333              return (events ^ SAMPLEAPP_SEND_PERIODIC_MSG_EVT);
   \   0000A0   EE           MOV     A,R6
   \   0000A1   6401         XRL     A,#0x1
   \   0000A3   FA           MOV     R2,A
   \   0000A4   EF           MOV     A,R7
   \   0000A5   80D7         SJMP    ??SampleApp_ProcessEvent_8
    334            }
    335          
    336            // Discard unknown events
    337            return 0;
   \                     ??SampleApp_ProcessEvent_10:
   \   0000A7   7A00         MOV     R2,#0x0
   \   0000A9   7B00         MOV     R3,#0x0
   \                     ??SampleApp_ProcessEvent_9:
   \   0000AB   7F04         MOV     R7,#0x4
   \   0000AD   02....       LJMP    ?BANKED_LEAVE_XDATA
    338          }
    339          
    340          /*********************************************************************
    341           * Event Generation Functions
    342           */
    343          /*********************************************************************
    344           * @fn      SampleApp_HandleKeys
    345           *
    346           * @brief   Handles all key events for this device.
    347           *
    348           * @param   shift - true if in shift/alt.
    349           * @param   keys - bit field for key events. Valid entries:
    350           *                 HAL_KEY_SW_2
    351           *                 HAL_KEY_SW_1
    352           *
    353           * @return  none
    354           */

   \                                 In  segment BANKED_CODE, align 1, keep-with-next
    355          void SampleApp_HandleKeys( uint8 shift, uint8 keys )
   \                     SampleApp_HandleKeys:
    356          {
   \   000000   74F6         MOV     A,#-0xa
   \   000002   12....       LCALL   ?BANKED_ENTER_XDATA
   \   000005                ; Saved register size: 10
   \   000005                ; Auto size: 0
   \   000005   EA           MOV     A,R2
   \   000006   FE           MOV     R6,A
    357            (void)shift;  // Intentionally unreferenced parameter
    358            
    359            if ( keys & HAL_KEY_SW_1 )
   \   000007   A2E0         MOV     C,0xE0 /* A   */.0
   \   000009   5007         JNC     ??SampleApp_HandleKeys_0
    360            {
    361              /* This key sends the Flash Command is sent to Group 1.
    362               * This device will not receive the Flash Command from this
    363               * device (even if it belongs to group 1).
    364               */
    365              SampleApp_SendFlashMessage( SAMPLEAPP_FLASH_DURATION );
   \   00000B                ; Setup parameters for call to function SampleApp_SendFlashMessage
   \   00000B   7AE8         MOV     R2,#-0x18
   \   00000D   7B03         MOV     R3,#0x3
   \   00000F   12....       LCALL   ??SampleApp_SendFlashMessage?relay
    366            }
    367          
    368            if ( keys & HAL_KEY_SW_2 )
   \                     ??SampleApp_HandleKeys_0:
   \   000012   EE           MOV     A,R6
   \   000013   A2E1         MOV     C,0xE0 /* A   */.1
   \   000015   5024         JNC     ??SampleApp_HandleKeys_1
    369            {
    370              /* The Flashr Command is sent to Group 1.
    371               * This key toggles this device in and out of group 1.
    372               * If this device doesn't belong to group 1, this application
    373               * will not receive the Flash command sent to group 1.
    374               */
    375              aps_Group_t *grp;
    376              grp = aps_FindGroup( SAMPLEAPP_ENDPOINT, SAMPLEAPP_FLASH_GROUP );
    377              if ( grp )
   \   000017                ; Setup parameters for call to function aps_FindGroup
   \   000017   7A01         MOV     R2,#0x1
   \   000019   7B00         MOV     R3,#0x0
   \   00001B   7914         MOV     R1,#0x14
   \   00001D   12....       LCALL   ??aps_FindGroup?relay
   \   000020   8B..         MOV     ?V0 + 1,R3
   \   000022   EA           MOV     A,R2
   \   000023   45..         ORL     A,?V0 + 1
   \   000025   600B         JZ      ??SampleApp_HandleKeys_2
    378              {
    379                // Remove from the group
    380                aps_RemoveGroup( SAMPLEAPP_ENDPOINT, SAMPLEAPP_FLASH_GROUP );
   \   000027                ; Setup parameters for call to function aps_RemoveGroup
   \   000027   7A01         MOV     R2,#0x1
   \   000029   7B00         MOV     R3,#0x0
   \   00002B   7914         MOV     R1,#0x14
   \   00002D   12....       LCALL   ??aps_RemoveGroup?relay
   \   000030   8009         SJMP    ??SampleApp_HandleKeys_1
    381              }
    382              else
    383              {
    384                // Add to the flash group
    385                aps_AddGroup( SAMPLEAPP_ENDPOINT, &SampleApp_Group );
   \                     ??SampleApp_HandleKeys_2:
   \   000032                ; Setup parameters for call to function aps_AddGroup
   \   000032   7A..         MOV     R2,#SampleApp_Group & 0xff
   \   000034   7B..         MOV     R3,#(SampleApp_Group >> 8) & 0xff
   \   000036   7914         MOV     R1,#0x14
   \   000038   12....       LCALL   ??aps_AddGroup?relay
    386              }
    387            }
    388          }
   \                     ??SampleApp_HandleKeys_1:
   \   00003B   02....       LJMP    ??Subroutine2_0 & 0xFFFF

   \                                 In  segment BANKED_CODE, align 1, keep-with-next
   \                     ??Subroutine2_0:
   \   000000   7F02         MOV     R7,#0x2
   \   000002   02....       LJMP    ?BANKED_LEAVE_XDATA
    389          
    390          /*********************************************************************
    391           * LOCAL FUNCTIONS
    392           */
    393          
    394          /*********************************************************************
    395           * @fn      SampleApp_MessageMSGCB
    396           *
    397           * @brief   Data message processor callback.  This function processes
    398           *          any incoming data - probably from other devices.  So, based
    399           *          on cluster ID, perform the intended action.
    400           *
    401           * @param   none
    402           *
    403           * @return  none
    404           */

   \                                 In  segment BANKED_CODE, align 1, keep-with-next
    405          void SampleApp_MessageMSGCB( afIncomingMSGPacket_t *pkt )
   \                     SampleApp_MessageMSGCB:
    406          {
   \   000000   74F6         MOV     A,#-0xa
   \   000002   12....       LCALL   ?BANKED_ENTER_XDATA
   \   000005                ; Saved register size: 10
   \   000005                ; Auto size: 0
    407            uint16 flashTime;
    408          
    409            switch ( pkt->clusterId )
   \   000005   8A82         MOV     DPL,R2
   \   000007   8B83         MOV     DPH,R3
   \   000009   A3           INC     DPTR
   \   00000A   A3           INC     DPTR
   \   00000B   A3           INC     DPTR
   \   00000C   A3           INC     DPTR
   \   00000D   E0           MOVX    A,@DPTR
   \   00000E   F5..         MOV     ?V0 + 0,A
   \   000010   A3           INC     DPTR
   \   000011   E0           MOVX    A,@DPTR
   \   000012   F5..         MOV     ?V0 + 1,A
   \   000014   78..         MOV     R0,#?V0 + 0
   \   000016   12....       LCALL   ?US_SWITCH_DENSE
   \                     `?<Jumptable for SampleApp_MessageMSGCB>_0`:
   \   000019   0200         DW        2
   \   00001B   01           DB        1
   \   00001C   ....         DW        ??SampleApp_MessageMSGCB_0
   \   00001E   ....         DW        ??SampleApp_MessageMSGCB_1
   \   000020   ....         DW        ??SampleApp_MessageMSGCB_2
    410            {
    411              case SAMPLEAPP_P2P_CLUSTERID:
    412                HalUARTWrite(0, pkt->cmd.Data, pkt->cmd.DataLength); //输出接收到的数据
   \                     ??SampleApp_MessageMSGCB_2:
   \   000022                ; Setup parameters for call to function HalUARTWrite
   \   000022   EA           MOV     A,R2
   \   000023   2420         ADD     A,#0x20
   \   000025   F582         MOV     DPL,A
   \   000027   EB           MOV     A,R3
   \   000028   3400         ADDC    A,#0x0
   \   00002A   F583         MOV     DPH,A
   \   00002C   E0           MOVX    A,@DPTR
   \   00002D   FC           MOV     R4,A
   \   00002E   A3           INC     DPTR
   \   00002F   E0           MOVX    A,@DPTR
   \   000030   FD           MOV     R5,A
   \   000031   12....       LCALL   ?Subroutine1 & 0xFFFF
   \                     ??CrossCallReturnLabel_0:
   \   000034   FA           MOV     R2,A
   \   000035   A3           INC     DPTR
   \   000036   E0           MOVX    A,@DPTR
   \   000037   FB           MOV     R3,A
   \   000038   7900         MOV     R1,#0x0
   \   00003A   12....       LCALL   ??HalUARTWrite?relay
    413                HalUARTWrite(0, "\n", 1);         // 回车换行
   \   00003D                ; Setup parameters for call to function HalUARTWrite
   \   00003D   7C01         MOV     R4,#0x1
   \   00003F   7D00         MOV     R5,#0x0
   \   000041   7A..         MOV     R2,#`?<Constant "\\n">` & 0xff
   \   000043   7B..         MOV     R3,#(`?<Constant "\\n">` >> 8) & 0xff
   \   000045   7900         MOV     R1,#0x0
   \   000047   12....       LCALL   ??HalUARTWrite?relay
    414                break;    
   \   00004A   8033         SJMP    ??SampleApp_MessageMSGCB_0
    415              case SAMPLEAPP_PERIODIC_CLUSTERID:
    416                break;
    417          
    418              case SAMPLEAPP_FLASH_CLUSTERID:
    419                flashTime = BUILD_UINT16(pkt->cmd.Data[1], pkt->cmd.Data[2] );
    420                HalLedBlink( HAL_LED_4, 4, 50, (flashTime / 4) );
   \                     ??SampleApp_MessageMSGCB_1:
   \   00004C   12....       LCALL   ?Subroutine1 & 0xFFFF
   \                     ??CrossCallReturnLabel_1:
   \   00004F   F8           MOV     R0,A
   \   000050   A3           INC     DPTR
   \   000051   E0           MOVX    A,@DPTR
   \   000052   F9           MOV     R1,A
   \   000053                ; Setup parameters for call to function HalLedBlink
   \   000053   8882         MOV     DPL,R0
   \   000055   8983         MOV     DPH,R1
   \   000057   A3           INC     DPTR
   \   000058   E0           MOVX    A,@DPTR
   \   000059   FA           MOV     R2,A
   \   00005A   8882         MOV     DPL,R0
   \   00005C   8983         MOV     DPH,R1
   \   00005E   A3           INC     DPTR
   \   00005F   A3           INC     DPTR
   \   000060   E0           MOVX    A,@DPTR
   \   000061   F9           MOV     R1,A
   \   000062   EA           MOV     A,R2
   \   000063   2400         ADD     A,#0x0
   \   000065   F5..         MOV     ?V0 + 0,A
   \   000067   E4           CLR     A
   \   000068   39           ADDC    A,R1
   \   000069   F5..         MOV     ?V0 + 1,A
   \   00006B   7402         MOV     A,#0x2
   \   00006D   78..         MOV     R0,#?V0 + 0
   \   00006F   12....       LCALL   ?US_SHR
   \   000072   AC..         MOV     R4,?V0 + 0
   \   000074   AD..         MOV     R5,?V0 + 1
   \   000076   7B32         MOV     R3,#0x32
   \   000078   7A04         MOV     R2,#0x4
   \   00007A   7908         MOV     R1,#0x8
   \   00007C   12....       LCALL   ??HalLedBlink?relay
    421                break;
    422            }
    423          }
   \                     ??SampleApp_MessageMSGCB_0:
   \   00007F   02....       LJMP    ??Subroutine2_0 & 0xFFFF

   \                                 In  segment BANKED_CODE, align 1, keep-with-next
   \                     ?Subroutine1:
   \   000000   EA           MOV     A,R2
   \   000001   2422         ADD     A,#0x22
   \   000003   F582         MOV     DPL,A
   \   000005   EB           MOV     A,R3
   \   000006   3400         ADDC    A,#0x0
   \   000008   F583         MOV     DPH,A
   \   00000A   E0           MOVX    A,@DPTR
   \   00000B   22           RET
    424          
    425          /*********************************************************************
    426           * @fn      SampleApp_SendPeriodicMessage
    427           *
    428           * @brief   Send the periodic message.
    429           *
    430           * @param   none
    431           *
    432           * @return  none
    433           */

   \                                 In  segment BANKED_CODE, align 1, keep-with-next
    434          void SampleApp_SendPeriodicMessage( void )
   \                     SampleApp_SendPeriodicMessage:
    435          {
   \   000000   74F6         MOV     A,#-0xa
   \   000002   12....       LCALL   ?BANKED_ENTER_XDATA
   \   000005                ; Saved register size: 10
   \   000005                ; Auto size: 0
    436            if ( AF_DataRequest( &SampleApp_Periodic_DstAddr, &SampleApp_epDesc,
    437                                 SAMPLEAPP_PERIODIC_CLUSTERID,
    438                                 1,
    439                                 (uint8*)&SampleAppPeriodicCounter,
    440                                 &SampleApp_TransID,
    441                                 AF_DISCV_ROUTE,
    442                                 AF_DEFAULT_RADIUS ) == afStatus_SUCCESS )
   \   000005                ; Setup parameters for call to function AF_DataRequest
   \   000005   75..1E       MOV     ?V0 + 0,#0x1e
   \   000008   78..         MOV     R0,#?V0 + 0
   \   00000A   12....       LCALL   ?PUSH_XSTACK_I_ONE
   \   00000D   75....       MOV     ?V0 + 0,#SampleApp_TransID & 0xff
   \   000010   75....       MOV     ?V0 + 1,#(SampleApp_TransID >> 8) & 0xff
   \   000013   78..         MOV     R0,#?V0 + 0
   \   000015   12....       LCALL   ?PUSH_XSTACK_I_TWO
   \   000018   75....       MOV     ?V0 + 0,#SampleAppPeriodicCounter & 0xff
   \   00001B   75....       MOV     ?V0 + 1,#(SampleAppPeriodicCounter >> 8) & 0xff
   \   00001E   78..         MOV     R0,#?V0 + 0
   \   000020   12....       LCALL   ?PUSH_XSTACK_I_TWO
   \   000023   75..01       MOV     ?V0 + 0,#0x1
   \   000026   75..00       MOV     ?V0 + 1,#0x0
   \   000029   78..         MOV     R0,#?V0 + 0
   \   00002B   12....       LCALL   ?PUSH_XSTACK_I_TWO
   \   00002E   78..         MOV     R0,#?V0 + 0
   \   000030   12....       LCALL   ?PUSH_XSTACK_I_TWO
   \   000033   7920         MOV     R1,#0x20
   \   000035   7C..         MOV     R4,#SampleApp_epDesc & 0xff
   \   000037   7D..         MOV     R5,#(SampleApp_epDesc >> 8) & 0xff
   \   000039   7A..         MOV     R2,#SampleApp_Periodic_DstAddr & 0xff
   \   00003B   7B..         MOV     R3,#(SampleApp_Periodic_DstAddr >> 8) & 0xff
   \   00003D   12....       LCALL   ??AF_DataRequest?relay
   \   000040   7409         MOV     A,#0x9
   \   000042   02....       LJMP    ?Subroutine0 & 0xFFFF
    443            {
    444            }
    445            else
    446            {
    447              // Error occurred in request to send.
    448            }
    449          }

   \                                 In  segment BANKED_CODE, align 1, keep-with-next
   \                     ?Subroutine0:
   \   000000   12....       LCALL   ?DEALLOC_XSTACK8
   \   000003                REQUIRE ??Subroutine2_0
   \   000003                ; // Fall through to label ??Subroutine2_0
    450          
    451          /*********************************************************************
    452           * @fn      SampleApp_SendFlashMessage
    453           *
    454           * @brief   Send the flash message to group 1.
    455           *
    456           * @param   flashTime - in milliseconds
    457           *
    458           * @return  none
    459           */

   \                                 In  segment BANKED_CODE, align 1, keep-with-next
    460          void SampleApp_SendFlashMessage( uint16 flashTime )
   \                     SampleApp_SendFlashMessage:
    461          {
   \   000000   74F6         MOV     A,#-0xa
   \   000002   12....       LCALL   ?BANKED_ENTER_XDATA
   \   000005                ; Saved register size: 10
   \   000005                ; Auto size: 3
   \   000005   74FD         MOV     A,#-0x3
   \   000007   12....       LCALL   ?ALLOC_XSTACK8
    462            uint8 buffer[3];
    463            buffer[0] = (uint8)(SampleAppFlashCounter++);
   \   00000A   90....       MOV     DPTR,#SampleAppFlashCounter
   \   00000D   E0           MOVX    A,@DPTR
   \   00000E   85..82       MOV     DPL,?XSP + 0
   \   000011   85..83       MOV     DPH,?XSP + 1
   \   000014   F0           MOVX    @DPTR,A
   \   000015   90....       MOV     DPTR,#SampleAppFlashCounter
   \   000018   E0           MOVX    A,@DPTR
   \   000019   04           INC     A
   \   00001A   F0           MOVX    @DPTR,A
    464            buffer[1] = LO_UINT16( flashTime );
   \   00001B   7401         MOV     A,#0x1
   \   00001D   12....       LCALL   ?XSTACK_DISP0_8
   \   000020   EA           MOV     A,R2
   \   000021   F0           MOVX    @DPTR,A
    465            buffer[2] = HI_UINT16( flashTime );
   \   000022   7402         MOV     A,#0x2
   \   000024   12....       LCALL   ?XSTACK_DISP0_8
   \   000027   EB           MOV     A,R3
   \   000028   F0           MOVX    @DPTR,A
    466          
    467            if ( AF_DataRequest( &SampleApp_Flash_DstAddr, &SampleApp_epDesc,
    468                                 SAMPLEAPP_FLASH_CLUSTERID,
    469                                 3,
    470                                 buffer,
    471                                 &SampleApp_TransID,
    472                                 AF_DISCV_ROUTE,
    473                                 AF_DEFAULT_RADIUS ) == afStatus_SUCCESS )
   \   000029                ; Setup parameters for call to function AF_DataRequest
   \   000029   75..1E       MOV     ?V0 + 0,#0x1e
   \   00002C   78..         MOV     R0,#?V0 + 0
   \   00002E   12....       LCALL   ?PUSH_XSTACK_I_ONE
   \   000031   75....       MOV     ?V0 + 0,#SampleApp_TransID & 0xff
   \   000034   75....       MOV     ?V0 + 1,#(SampleApp_TransID >> 8) & 0xff
   \   000037   78..         MOV     R0,#?V0 + 0
   \   000039   12....       LCALL   ?PUSH_XSTACK_I_TWO
   \   00003C   7403         MOV     A,#0x3
   \   00003E   12....       LCALL   ?XSTACK_DISP0_8
   \   000041   8582..       MOV     ?V0 + 0,DPL
   \   000044   8583..       MOV     ?V0 + 1,DPH
   \   000047   78..         MOV     R0,#?V0 + 0
   \   000049   12....       LCALL   ?PUSH_XSTACK_I_TWO
   \   00004C   75..03       MOV     ?V0 + 0,#0x3
   \   00004F   75..00       MOV     ?V0 + 1,#0x0
   \   000052   78..         MOV     R0,#?V0 + 0
   \   000054   12....       LCALL   ?PUSH_XSTACK_I_TWO
   \   000057   75..02       MOV     ?V0 + 0,#0x2
   \   00005A   78..         MOV     R0,#?V0 + 0
   \   00005C   12....       LCALL   ?PUSH_XSTACK_I_TWO
   \   00005F   7920         MOV     R1,#0x20
   \   000061   7C..         MOV     R4,#SampleApp_epDesc & 0xff
   \   000063   7D..         MOV     R5,#(SampleApp_epDesc >> 8) & 0xff
   \   000065   7A..         MOV     R2,#SampleApp_Flash_DstAddr & 0xff
   \   000067   7B..         MOV     R3,#(SampleApp_Flash_DstAddr >> 8) & 0xff
   \   000069   12....       LCALL   ??AF_DataRequest?relay
   \   00006C   7409         MOV     A,#0x9
   \   00006E   12....       LCALL   ?DEALLOC_XSTACK8
    474            {
    475            }
    476            else
    477            {
    478              // Error occurred in request to send.
    479            }
    480          }
   \   000071   7403         MOV     A,#0x3
   \   000073   02....       LJMP    ?Subroutine0 & 0xFFFF
    481          
    482          /*********************************************************************
    483           * @fn      SampleApp_Send_P2P_Message
    484           *
    485           * @brief   point to point.
    486           *
    487           * @param   none
    488           *
    489           * @return  none
    490           */

   \                                 In  segment BANKED_CODE, align 1, keep-with-next
    491          void SampleApp_Send_P2P_Message( void )
   \                     SampleApp_Send_P2P_Message:
    492          {
   \   000000   74F6         MOV     A,#-0xa
   \   000002   12....       LCALL   ?BANKED_ENTER_XDATA
   \   000005                ; Saved register size: 10
   \   000005                ; Auto size: 1
   \   000005   74FF         MOV     A,#-0x1
   \   000007   12....       LCALL   ?ALLOC_XSTACK8
    493            byte state;
    494          
    495            if(DATA_PIN == 1)
   \   00000A   A285         MOV     C,0x80.5
   \   00000C   5029         JNC     ??SampleApp_Send_P2P_Message_0
    496            { 
    497              MicroWait (10000);   // Wait 10ms
   \   00000E                ; Setup parameters for call to function Onboard_wait
   \   00000E   7A10         MOV     R2,#0x10
   \   000010   7B27         MOV     R3,#0x27
   \   000012   12....       LCALL   ??Onboard_wait?relay
    498              if(DATA_PIN == 1)
   \   000015   A285         MOV     C,0x80.5
   \   000017   503D         JNC     ??SampleApp_Send_P2P_Message_1
    499              {     
    500                state = 0x31;       //当光敏电阻处于黑暗中时P0.5高电平
   \   000019   85..82       MOV     DPL,?XSP + 0
   \   00001C   85..83       MOV     DPH,?XSP + 1
   \   00001F   7431         MOV     A,#0x31
   \   000021   F0           MOVX    @DPTR,A
    501                HalUARTWrite(0,"midnight\n", 9);                 //串口显示
   \   000022                ; Setup parameters for call to function HalUARTWrite
   \   000022   7C09         MOV     R4,#0x9
   \   000024   7D00         MOV     R5,#0x0
   \   000026   7A..         MOV     R2,#`?<Constant "midnight\\n">` & 0xff
   \   000028   7B..         MOV     R3,#(`?<Constant "midnight\\n">` >> 8) & 0xff
   \   00002A   7900         MOV     R1,#0x0
   \   00002C   12....       LCALL   ??HalUARTWrite?relay
    502                HalLcdWriteString( "midnight", HAL_LCD_LINE_3 ); //LCD显示 
   \   00002F                ; Setup parameters for call to function HalLcdWriteString
   \   00002F   7902         MOV     R1,#0x2
   \   000031   7A..         MOV     R2,#`?<Constant "midnight">` & 0xff
   \   000033   7B..         MOV     R3,#(`?<Constant "midnight">` >> 8) & 0xff
   \   000035   801C         SJMP    ??SampleApp_Send_P2P_Message_2
    503              }
    504            }  
    505            else 
    506            {     
    507              state = 0x30;    
   \                     ??SampleApp_Send_P2P_Message_0:
   \   000037   85..82       MOV     DPL,?XSP + 0
   \   00003A   85..83       MOV     DPH,?XSP + 1
   \   00003D   7430         MOV     A,#0x30
   \   00003F   F0           MOVX    @DPTR,A
    508              HalUARTWrite(0,"light\n", 6);                      //串口显示
   \   000040                ; Setup parameters for call to function HalUARTWrite
   \   000040   7C06         MOV     R4,#0x6
   \   000042   7D00         MOV     R5,#0x0
   \   000044   7A..         MOV     R2,#`?<Constant "light\\n">` & 0xff
   \   000046   7B..         MOV     R3,#(`?<Constant "light\\n">` >> 8) & 0xff
   \   000048   7900         MOV     R1,#0x0
   \   00004A   12....       LCALL   ??HalUARTWrite?relay
    509              HalLcdWriteString( "light", HAL_LCD_LINE_3 );      //LCD显示 
   \   00004D                ; Setup parameters for call to function HalLcdWriteString
   \   00004D   7902         MOV     R1,#0x2
   \   00004F   7A..         MOV     R2,#`?<Constant "light">` & 0xff
   \   000051   7B..         MOV     R3,#(`?<Constant "light">` >> 8) & 0xff
   \                     ??SampleApp_Send_P2P_Message_2:
   \   000053   12....       LCALL   ??HalLcdWriteString?relay
    510            }  
    511             
    512            if ( AF_DataRequest( &SampleApp_P2P_DstAddr, &SampleApp_epDesc,
    513                                 SAMPLEAPP_P2P_CLUSTERID,
    514                                 1,
    515                                 &state,
    516                                 &SampleApp_TransID,
    517                                 AF_DISCV_ROUTE,
    518                                 AF_DEFAULT_RADIUS ) == afStatus_SUCCESS )
   \                     ??SampleApp_Send_P2P_Message_1:
   \   000056                ; Setup parameters for call to function AF_DataRequest
   \   000056   75..1E       MOV     ?V0 + 0,#0x1e
   \   000059   78..         MOV     R0,#?V0 + 0
   \   00005B   12....       LCALL   ?PUSH_XSTACK_I_ONE
   \   00005E   75....       MOV     ?V0 + 0,#SampleApp_TransID & 0xff
   \   000061   75....       MOV     ?V0 + 1,#(SampleApp_TransID >> 8) & 0xff
   \   000064   78..         MOV     R0,#?V0 + 0
   \   000066   12....       LCALL   ?PUSH_XSTACK_I_TWO
   \   000069   7403         MOV     A,#0x3
   \   00006B   12....       LCALL   ?XSTACK_DISP0_8
   \   00006E   8582..       MOV     ?V0 + 0,DPL
   \   000071   8583..       MOV     ?V0 + 1,DPH
   \   000074   78..         MOV     R0,#?V0 + 0
   \   000076   12....       LCALL   ?PUSH_XSTACK_I_TWO
   \   000079   75..01       MOV     ?V0 + 0,#0x1
   \   00007C   75..00       MOV     ?V0 + 1,#0x0
   \   00007F   78..         MOV     R0,#?V0 + 0
   \   000081   12....       LCALL   ?PUSH_XSTACK_I_TWO
   \   000084   75..03       MOV     ?V0 + 0,#0x3
   \   000087   78..         MOV     R0,#?V0 + 0
   \   000089   12....       LCALL   ?PUSH_XSTACK_I_TWO
   \   00008C   7920         MOV     R1,#0x20
   \   00008E   7C..         MOV     R4,#SampleApp_epDesc & 0xff
   \   000090   7D..         MOV     R5,#(SampleApp_epDesc >> 8) & 0xff
   \   000092   7A..         MOV     R2,#SampleApp_P2P_DstAddr & 0xff
   \   000094   7B..         MOV     R3,#(SampleApp_P2P_DstAddr >> 8) & 0xff
   \   000096   12....       LCALL   ??AF_DataRequest?relay
   \   000099   7409         MOV     A,#0x9
   \   00009B   12....       LCALL   ?DEALLOC_XSTACK8
    519            {
    520            }
    521            else
    522            {
    523              // Error occurred in request to send.
    524            }
    525          }
   \   00009E   7401         MOV     A,#0x1
   \   0000A0                REQUIRE ?Subroutine0
   \   0000A0                REQUIRE _A_P0
   \   0000A0                ; // Fall through to label ?Subroutine0

   \                                 In  segment XDATA_ID, align 1, keep-with-next
   \                     `?<Initializer for AppTitle>`:
   \   000000   70686F74     DB "photoresistance"
   \            6F726573
   \            69737461
   \            6E636500

   \                                 In  segment BANK_RELAYS, align 1
   \                     ??SampleApp_Init?relay:
   \   000000   12....       LCALL   ?BDISPATCH
   \   000003   ......       DC24    SampleApp_Init

   \                                 In  segment BANK_RELAYS, align 1
   \                     ??SampleApp_ProcessEvent?relay:
   \   000000   12....       LCALL   ?BDISPATCH
   \   000003   ......       DC24    SampleApp_ProcessEvent

   \                                 In  segment BANK_RELAYS, align 1
   \                     ??SampleApp_HandleKeys?relay:
   \   000000   12....       LCALL   ?BDISPATCH
   \   000003   ......       DC24    SampleApp_HandleKeys

   \                                 In  segment BANK_RELAYS, align 1
   \                     ??SampleApp_MessageMSGCB?relay:
   \   000000   12....       LCALL   ?BDISPATCH
   \   000003   ......       DC24    SampleApp_MessageMSGCB

   \                                 In  segment BANK_RELAYS, align 1
   \                     ??SampleApp_SendPeriodicMessage?relay:
   \   000000   12....       LCALL   ?BDISPATCH
   \   000003   ......       DC24    SampleApp_SendPeriodicMessage

   \                                 In  segment BANK_RELAYS, align 1
   \                     ??SampleApp_SendFlashMessage?relay:
   \   000000   12....       LCALL   ?BDISPATCH
   \   000003   ......       DC24    SampleApp_SendFlashMessage

   \                                 In  segment BANK_RELAYS, align 1
   \                     ??SampleApp_Send_P2P_Message?relay:
   \   000000   12....       LCALL   ?BDISPATCH
   \   000003   ......       DC24    SampleApp_Send_P2P_Message

   \                                 In  segment XDATA_ROM_C, align 1
   \                     `?<Constant "Group 1">`:
   \   000000   47726F75     DB "Group 1"
   \            70203100

   \                                 In  segment XDATA_ROM_C, align 1
   \                     `?<Constant "SampleApp">`:
   \   000000   53616D70     DB "SampleApp"
   \            6C654170
   \            7000    

   \                                 In  segment XDATA_ROM_C, align 1
   \                     `?<Constant "\\n">`:
   \   000000   0A00         DB "\012"

   \                                 In  segment XDATA_ROM_C, align 1
   \                     `?<Constant "midnight\\n">`:
   \   000000   6D69646E     DB "midnight\012"
   \            69676874
   \            0A00    

   \                                 In  segment XDATA_ROM_C, align 1
   \                     `?<Constant "midnight">`:
   \   000000   6D69646E     DB "midnight"
   \            69676874
   \            00      

   \                                 In  segment XDATA_ROM_C, align 1
   \                     `?<Constant "light\\n">`:
   \   000000   6C696768     DB "light\012"
   \            740A00  

   \                                 In  segment XDATA_ROM_C, align 1
   \                     `?<Constant "light">`:
   \   000000   6C696768     DB "light"
   \            7400    
    526          /*********************************************************************
    527          *********************************************************************/

   Maximum stack usage in bytes:

     Function                       ISTACK PSTACK XSTACK
     --------                       ------ ------ ------
     SampleApp_HandleKeys               0      0     22
       -> SampleApp_SendFlashMessage
                                        0      0     20
       -> aps_FindGroup                 0      0     20
       -> aps_RemoveGroup               0      0     20
       -> aps_AddGroup                  0      0     20
     SampleApp_Init                     0      0     14
       -> MT_UartInit                   0      0     22
       -> MT_UartRegisterTaskID         0      0     22
       -> afRegister                    0      0     22
       -> RegisterForKeys               0      0     22
       -> osal_memcpy                   0      0     28
       -> aps_AddGroup                  0      0     22
       -> HalLcdWriteString             0      0     22
     SampleApp_MessageMSGCB             0      0     22
       -> HalUARTWrite                  0      0     20
       -> HalUARTWrite                  0      0     20
       -> HalLedBlink                   0      0     20
     SampleApp_ProcessEvent             0      0     12
       -> osal_msg_receive              0      0     24
       -> osal_start_timerEx            0      0     24
       -> osal_msg_deallocate           0      0     24
       -> osal_msg_receive              0      0     24
       -> SampleApp_HandleKeys          0      0     24
       -> SampleApp_MessageMSGCB        0      0     24
       -> SampleApp_Send_P2P_Message
                                        0      0     24
       -> osal_rand                     0      0     24
       -> osal_start_timerEx            0      0     24
     SampleApp_SendFlashMessage         1      0     32
       -> AF_DataRequest                0      0     44
     SampleApp_SendPeriodicMessage      0      0     19
       -> AF_DataRequest                0      0     38
     SampleApp_Send_P2P_Message         0      0     32
       -> Onboard_wait                  0      0     22
       -> HalUARTWrite                  0      0     22
       -> HalLcdWriteString             0      0     22
       -> HalUARTWrite                  0      0     22
       -> HalLcdWriteString             0      0     22
       -> AF_DataRequest                0      0     40


   Segment part sizes:

     Function/Label                        Bytes
     --------------                        -----
     _A_P0                                    1
     P0SEL                                    1
     P0DIR                                    1
     AppTitle                                16
     SampleApp_ClusterList                    6
     SampleApp_SimpleDesc                    12
     SampleApp_epDesc                         6
     SampleApp_TaskID                         1
     SampleApp_NwkState                       1
     SampleApp_TransID                        1
     SampleApp_Periodic_DstAddr              12
     SampleApp_Flash_DstAddr                 12
     SampleApp_P2P_DstAddr                   12
     SampleApp_Group                         18
     SampleAppPeriodicCounter                 1
     SampleAppFlashCounter                    1
     SampleApp_Init                         191
     SampleApp_ProcessEvent                 176
     SampleApp_HandleKeys                    62
     ??Subroutine2_0                          5
     SampleApp_MessageMSGCB                 130
     ?Subroutine1                            12
     SampleApp_SendPeriodicMessage           69
     ?Subroutine0                             3
     SampleApp_SendFlashMessage             118
     SampleApp_Send_P2P_Message             160
     ?<Initializer for AppTitle>             16
     ??SampleApp_Init?relay                   6
     ??SampleApp_ProcessEvent?relay           6
     ??SampleApp_HandleKeys?relay             6
     ??SampleApp_MessageMSGCB?relay           6
     ??SampleApp_SendPeriodicMessage?relay    6
     ??SampleApp_SendFlashMessage?relay       6
     ??SampleApp_Send_P2P_Message?relay       6
     ?<Constant "Group 1">                    8
     ?<Constant "SampleApp">                 10
     ?<Constant "\n">                         2
     ?<Constant "midnight\n">                10
     ?<Constant "midnight">                   9
     ?<Constant "light\n">                    7
     ?<Constant "light">                      6

 
 926 bytes in segment BANKED_CODE
  42 bytes in segment BANK_RELAYS
   3 bytes in segment SFR_AN
  16 bytes in segment XDATA_I
  16 bytes in segment XDATA_ID
  70 bytes in segment XDATA_ROM_C
  65 bytes in segment XDATA_Z
 
 984 bytes of CODE  memory
  70 bytes of CONST memory
   0 bytes of DATA  memory (+ 3 bytes shared)
  81 bytes of XDATA memory

Errors: none
Warnings: none
