///////////////////////////////////////////////////////////////////////////////
//                                                                            /
// IAR C/C++ Compiler V8.10.3.10338/W32 for 8051        05/Aug/2016  10:42:59 /
// Copyright 2004-2011 IAR Systems AB.                                        /
//                                                                            /
//    Core               =  plain                                             /
//    Code model         =  banked                                            /
//    Data model         =  large                                             /
//    Calling convention =  xdata reentrant                                   /
//    Constant location  =  data_rom                                          /
//    Dptr setup         =  1,16                                              /
//    Source file        =  G:\»ªÖÚÎÞÏß\12.´®¿ÚÍ¸´«Ö®ÎÞÏßQQ\ZStack-2.5.1a\Com /
//                          ponents\mt\MT_AF.c                                /
//    Command line       =  -f G:\»ªÖÚÎÞÏß\12.´®¿ÚÍ¸´«Ö®ÎÞÏßQQ\ZStack-2.5.1a\ /
//                          Projects\zstack\SE\SampleApp\CC2530DB\..\..\..\To /
//                          ols\CC2530DB\f8wCoord.cfg (-DCPU32MHZ             /
//                          -DROOT=__near_func -DMAC_CFG_APP_PENDING_QUEUE=TR /
//                          UE -DMAC_CFG_TX_DATA_MAX=5 -DMAC_CFG_TX_MAX=8     /
//                          -DMAC_CFG_RX_MAX=5 -DZDO_COORDINATOR -DRTR_NWK)   /
//                          -f G:\»ªÖÚÎÞÏß\12.´®¿ÚÍ¸´«Ö®ÎÞÏßQQ\ZStack-2.5.1a\ /
//                          Projects\zstack\SE\SampleApp\CC2530DB\..\..\..\To /
//                          ols\CC2530DB\f8wConfig.cfg (-DZIGBEEPRO           /
//                          -DSECURE=0 -DZG_SECURE_DYNAMIC=0 -DREFLECTOR      /
//                          -DDEFAULT_CHANLIST=0x02000000                     /
//                          -DZDAPP_CONFIG_PAN_ID=0x1688                      /
//                          -DNWK_START_DELAY=100 -DEXTENDED_JOINING_RANDOM_M /
//                          ASK=0x007F -DBEACON_REQUEST_DELAY=100             /
//                          -DBEACON_REQ_DELAY_MASK=0x00FF                    /
//                          -DLINK_STATUS_JITTER_MASK=0x007F                  /
//                          -DROUTE_EXPIRY_TIME=30 -DAPSC_ACK_WAIT_DURATION_P /
//                          OLLED=3000 -DNWK_INDIRECT_MSG_TIMEOUT=7           /
//                          -DMAX_RREQ_ENTRIES=8 -DAPSC_MAX_FRAME_RETRIES=3   /
//                          -DNWK_MAX_DATA_RETRIES=2                          /
//                          -DMAX_POLL_FAILURE_RETRIES=2 -DMAX_BCAST=9        /
//                          -DAPS_MAX_GROUPS=16 -DMAX_RTG_ENTRIES=40          /
//                          -DNWK_MAX_BINDING_ENTRIES=4                       /
//                          -DMAX_BINDING_CLUSTER_IDS=4                       /
//                          "-DDEFAULT_KEY={0x01, 0x03, 0x05, 0x07, 0x09,     /
//                          0x0B, 0x0D, 0x0F, 0x00, 0x02, 0x04, 0x06, 0x08,   /
//                          0x0A, 0x0C, 0x0D}" -DMAC_MAX_FRAME_SIZE=116       /
//                          -DZDNWKMGR_MIN_TRANSMISSIONS=20 "-DCONST=const    /
//                          __code" -DGENERIC=__generic                       /
//                          -DRFD_RCVC_ALWAYS_ON=FALSE -DPOLL_RATE=1000       /
//                          -DQUEUED_POLL_RATE=100 -DRESPONSE_POLL_RATE=100   /
//                          -DREJOIN_POLL_RATE=440) -f                        /
//                          G:\»ªÖÚÎÞÏß\12.´®¿ÚÍ¸´«Ö®ÎÞÏßQQ\ZStack-2.5.1a\Pro /
//                          jects\zstack\SE\SampleApp\CC2530DB\..\..\..\Tools /
//                          \CC2530DB\f8wZCL.cfg (-DZCL_READ -DZCL_WRITE      /
//                          -DZCL_BASIC -DZCL_IDENTIFY -DZCL_ON_OFF           /
//                          -DZCL_KEY_ESTABLISH -DZCL_KEY_ESTABLISHMENT_KEY_G /
//                          ENERATE_TIMEOUT=4 -DZCL_KEY_ESTABLISHMENT_MAC_GEN /
//                          ERATE_TIMEOUT=10 -DZCL_KEY_ESTABLISHMENT_EKEY_GEN /
//                          ERATE_TIMEOUT=10 -DZCL_LOAD_CONTROL               /
//                          -DZCL_SIMPLE_METERING -DZCL_PRICING               /
//                          -DZCL_MESSAGE -DZCL_TUNNELING -DZCL_TOU)          /
//                          -DZCL_DEVICE_MGMT G:\»ªÖÚÎÞÏß\12.´®¿ÚÍ¸´«Ö®ÎÞÏßQQ /
//                          \ZStack-2.5.1a\Components\mt\MT_AF.c -D           /
//                          TC_LINKKEY_JOIN -D ZTOOL_P1 -D MT_TASK -D         /
//                          MT_APP_FUNC -D MT_SYS_FUNC -D LCD_SUPPORTED -D    /
//                          INT_HEAP_LEN=2450 -D NV_INIT -D xNV_RESTORE -D    /
//                          ZCL_REPORT -D INTER_PAN -D                        /
//                          ZDSECMGR_TC_DEVICE_MAX=16 -D TEST_CERT_DATA -lC   /
//                          "G:\»ªÖÚÎÞÏß\12.´®¿ÚÍ¸´«Ö®ÎÞÏßQQ\ZStack-2.5.1a\Pr /
//                          ojects\zstack\SE\SampleApp\CC2530DB\ESP -         /
//                          Coordinator\List\" -lA "G:\»ªÖÚÎÞÏß\12.´®¿ÚÍ¸´«Ö® /
//                          ÎÞÏßQQ\ZStack-2.5.1a\Projects\zstack\SE\SampleApp /
//                          \CC2530DB\ESP - Coordinator\List\"                /
//                          --diag_suppress Pe001,Pa010 -o                    /
//                          "G:\»ªÖÚÎÞÏß\12.´®¿ÚÍ¸´«Ö®ÎÞÏßQQ\ZStack-2.5.1a\Pr /
//                          ojects\zstack\SE\SampleApp\CC2530DB\ESP -         /
//                          Coordinator\Obj\" -e --no_code_motion --debug     /
//                          --core=plain --dptr=16,1 --data_model=large       /
//                          --code_model=banked --calling_convention=xdata_re /
//                          entrant --place_constants=data_rom                /
//                          --nr_virtual_regs 16 -I                           /
//                          G:\»ªÖÚÎÞÏß\12.´®¿ÚÍ¸´«Ö®ÎÞÏßQQ\ZStack-2.5.1a\Pro /
//                          jects\zstack\SE\SampleApp\CC2530DB\ -I            /
//                          G:\»ªÖÚÎÞÏß\12.´®¿ÚÍ¸´«Ö®ÎÞÏßQQ\ZStack-2.5.1a\Pro /
//                          jects\zstack\SE\SampleApp\CC2530DB\..\Source\ -I  /
//                          G:\»ªÖÚÎÞÏß\12.´®¿ÚÍ¸´«Ö®ÎÞÏßQQ\ZStack-2.5.1a\Pro /
//                          jects\zstack\SE\SampleApp\CC2530DB\..\..\Source\  /
//                          -I G:\»ªÖÚÎÞÏß\12.´®¿ÚÍ¸´«Ö®ÎÞÏßQQ\ZStack-2.5.1a\ /
//                          Projects\zstack\SE\SampleApp\CC2530DB\..\..\..\ZM /
//                          ain\TI2530DB\ -I G:\»ªÖÚÎÞÏß\12.´®¿ÚÍ¸´«Ö®ÎÞÏßQQ\ /
//                          ZStack-2.5.1a\Projects\zstack\SE\SampleApp\CC2530 /
//                          DB\..\..\..\..\..\Components\hal\include\ -I      /
//                          G:\»ªÖÚÎÞÏß\12.´®¿ÚÍ¸´«Ö®ÎÞÏßQQ\ZStack-2.5.1a\Pro /
//                          jects\zstack\SE\SampleApp\CC2530DB\..\..\..\..\.. /
//                          \Components\hal\target\CC2530EB\ -I               /
//                          G:\»ªÖÚÎÞÏß\12.´®¿ÚÍ¸´«Ö®ÎÞÏßQQ\ZStack-2.5.1a\Pro /
//                          jects\zstack\SE\SampleApp\CC2530DB\..\..\..\..\.. /
//                          \Components\mac\include\ -I                       /
//                          G:\»ªÖÚÎÞÏß\12.´®¿ÚÍ¸´«Ö®ÎÞÏßQQ\ZStack-2.5.1a\Pro /
//                          jects\zstack\SE\SampleApp\CC2530DB\..\..\..\..\.. /
//                          \Components\mac\high_level\ -I                    /
//                          G:\»ªÖÚÎÞÏß\12.´®¿ÚÍ¸´«Ö®ÎÞÏßQQ\ZStack-2.5.1a\Pro /
//                          jects\zstack\SE\SampleApp\CC2530DB\..\..\..\..\.. /
//                          \Components\mac\low_level\srf04\ -I               /
//                          G:\»ªÖÚÎÞÏß\12.´®¿ÚÍ¸´«Ö®ÎÞÏßQQ\ZStack-2.5.1a\Pro /
//                          jects\zstack\SE\SampleApp\CC2530DB\..\..\..\..\.. /
//                          \Components\mac\low_level\srf04\single_chip\ -I   /
//                          G:\»ªÖÚÎÞÏß\12.´®¿ÚÍ¸´«Ö®ÎÞÏßQQ\ZStack-2.5.1a\Pro /
//                          jects\zstack\SE\SampleApp\CC2530DB\..\..\..\..\.. /
//                          \Components\mt\ -I G:\»ªÖÚÎÞÏß\12.´®¿ÚÍ¸´«Ö®ÎÞÏßQ /
//                          Q\ZStack-2.5.1a\Projects\zstack\SE\SampleApp\CC25 /
//                          30DB\..\..\..\..\..\Components\osal\include\ -I   /
//                          G:\»ªÖÚÎÞÏß\12.´®¿ÚÍ¸´«Ö®ÎÞÏßQQ\ZStack-2.5.1a\Pro /
//                          jects\zstack\SE\SampleApp\CC2530DB\..\..\..\..\.. /
//                          \Components\services\saddr\ -I                    /
//                          G:\»ªÖÚÎÞÏß\12.´®¿ÚÍ¸´«Ö®ÎÞÏßQQ\ZStack-2.5.1a\Pro /
//                          jects\zstack\SE\SampleApp\CC2530DB\..\..\..\..\.. /
//                          \Components\services\sdata\ -I                    /
//                          G:\»ªÖÚÎÞÏß\12.´®¿ÚÍ¸´«Ö®ÎÞÏßQQ\ZStack-2.5.1a\Pro /
//                          jects\zstack\SE\SampleApp\CC2530DB\..\..\..\..\.. /
//                          \Components\stack\af\ -I                          /
//                          G:\»ªÖÚÎÞÏß\12.´®¿ÚÍ¸´«Ö®ÎÞÏßQQ\ZStack-2.5.1a\Pro /
//                          jects\zstack\SE\SampleApp\CC2530DB\..\..\..\..\.. /
//                          \Components\stack\nwk\ -I                         /
//                          G:\»ªÖÚÎÞÏß\12.´®¿ÚÍ¸´«Ö®ÎÞÏßQQ\ZStack-2.5.1a\Pro /
//                          jects\zstack\SE\SampleApp\CC2530DB\..\..\..\..\.. /
//                          \Components\stack\sapi\ -I                        /
//                          G:\»ªÖÚÎÞÏß\12.´®¿ÚÍ¸´«Ö®ÎÞÏßQQ\ZStack-2.5.1a\Pro /
//                          jects\zstack\SE\SampleApp\CC2530DB\..\..\..\..\.. /
//                          \Components\stack\sec\ -I                         /
//                          G:\»ªÖÚÎÞÏß\12.´®¿ÚÍ¸´«Ö®ÎÞÏßQQ\ZStack-2.5.1a\Pro /
//                          jects\zstack\SE\SampleApp\CC2530DB\..\..\..\..\.. /
//                          \Components\stack\sys\ -I                         /
//                          G:\»ªÖÚÎÞÏß\12.´®¿ÚÍ¸´«Ö®ÎÞÏßQQ\ZStack-2.5.1a\Pro /
//                          jects\zstack\SE\SampleApp\CC2530DB\..\..\..\..\.. /
//                          \Components\stack\zcl\ -I                         /
//                          G:\»ªÖÚÎÞÏß\12.´®¿ÚÍ¸´«Ö®ÎÞÏßQQ\ZStack-2.5.1a\Pro /
//                          jects\zstack\SE\SampleApp\CC2530DB\..\..\..\..\.. /
//                          \Components\stack\zdo\ -I                         /
//                          G:\»ªÖÚÎÞÏß\12.´®¿ÚÍ¸´«Ö®ÎÞÏßQQ\ZStack-2.5.1a\Pro /
//                          jects\zstack\SE\SampleApp\CC2530DB\..\..\..\..\.. /
//                          \Components\zmac\ -I G:\»ªÖÚÎÞÏß\12.´®¿ÚÍ¸´«Ö®ÎÞÏ /
//                          ßQQ\ZStack-2.5.1a\Projects\zstack\SE\SampleApp\CC /
//                          2530DB\..\..\..\..\..\Components\zmac\f8w\ -Ohz   /
//                          --require_prototypes                              /
//    List file          =  G:\»ªÖÚÎÞÏß\12.´®¿ÚÍ¸´«Ö®ÎÞÏßQQ\ZStack-2.5.1a\Pro /
//                          jects\zstack\SE\SampleApp\CC2530DB\ESP -          /
//                          Coordinator\List\MT_AF.s51                        /
//                                                                            /
//                                                                            /
///////////////////////////////////////////////////////////////////////////////

        NAME MT_AF

        RTMODEL "__SystemLibrary", "CLib"
        RTMODEL "__calling_convention", "xdata_reentrant"
        RTMODEL "__code_model", "banked"
        RTMODEL "__core", "plain"
        RTMODEL "__data_model", "large"
        RTMODEL "__dptr_size", "16"
        RTMODEL "__extended_stack", "disabled"
        RTMODEL "__location_for_constants", "data"
        RTMODEL "__number_of_dptrs", "1"
        RTMODEL "__rt_version", "1"

        RSEG DOVERLAY:DATA:NOROOT(0)
        RSEG IOVERLAY:IDATA:NOROOT(0)
        RSEG ISTACK:IDATA:NOROOT(0)
        RSEG PSTACK:XDATA:NOROOT(0)
        RSEG XSTACK:XDATA:NOROOT(0)

        EXTERN ?ALLOC_XSTACK8
        EXTERN ?BANKED_ENTER_XDATA
        EXTERN ?BANKED_LEAVE_XDATA
        EXTERN ?BDISPATCH
        EXTERN ?BRET
        EXTERN ?DEALLOC_XSTACK8
        EXTERN ?L_ADD
        EXTERN ?L_EQ_X
        EXTERN ?L_MOV_X
        EXTERN ?L_SHL
        EXTERN ?PUSH_XSTACK8_X_TWO
        EXTERN ?PUSH_XSTACK_I_ONE
        EXTERN ?PUSH_XSTACK_I_THREE
        EXTERN ?PUSH_XSTACK_I_TWO
        EXTERN ?UL_SHR
        EXTERN ?V0
        EXTERN ?XLOAD_R2345
        EXTERN ?XSP
        EXTERN ?XSTACK_DISP0_8
        EXTERN ?XSTORE_R2345
        EXTERN __INIT_XDATA_Z

        PUBLIC ??MT_AfCommandProcessing?relay
        FUNCTION ??MT_AfCommandProcessing?relay,0203H
        PUBLIC ??MT_AfDataConfirm?relay
        FUNCTION ??MT_AfDataConfirm?relay,0203H
        PUBLIC ??MT_AfDataRequest?relay
        FUNCTION ??MT_AfDataRequest?relay,0203H
        PUBLIC ??MT_AfDataRequestSrcRtg?relay
        FUNCTION ??MT_AfDataRequestSrcRtg?relay,0203H
        FUNCTION ??MT_AfDataRetrieve?relay,0203H
        FUNCTION ??MT_AfDataStore?relay,0203H
        PUBLIC ??MT_AfExec?relay
        FUNCTION ??MT_AfExec?relay,0203H
        PUBLIC ??MT_AfIncomingMsg?relay
        FUNCTION ??MT_AfIncomingMsg?relay,0203H
        FUNCTION ??MT_AfInterPanCtl?relay,0203H
        PUBLIC ??MT_AfRegister?relay
        FUNCTION ??MT_AfRegister?relay,0203H
        PUBLIC MT_AfCommandProcessing
        FUNCTION MT_AfCommandProcessing,021203H
        ARGFRAME XSTACK, 0, STACK
        LOCFRAME ISTACK, 1, STACK
        LOCFRAME XSTACK, 12, STACK
        PUBLIC MT_AfDataConfirm
        FUNCTION MT_AfDataConfirm,021203H
        ARGFRAME XSTACK, 0, STACK
        LOCFRAME ISTACK, 3, STACK
        LOCFRAME XSTACK, 3, STACK
        PUBLIC MT_AfDataRequest
        FUNCTION MT_AfDataRequest,021203H
        ARGFRAME XSTACK, 12, STACK
        ARGFRAME IOVERLAY, 0, STATIC
        ARGFRAME DOVERLAY, 0, STATIC
        LOCFRAME ISTACK, 1, STACK
        LOCFRAME XSTACK, 45, STACK
        PUBLIC MT_AfDataRequestSrcRtg
        FUNCTION MT_AfDataRequestSrcRtg,021203H
        ARGFRAME XSTACK, 12, STACK
        ARGFRAME IOVERLAY, 0, STATIC
        ARGFRAME DOVERLAY, 0, STATIC
        LOCFRAME ISTACK, 1, STACK
        LOCFRAME XSTACK, 46, STACK
        FUNCTION MT_AfDataRetrieve,021203H
        ARGFRAME XSTACK, 12, STACK
        ARGFRAME IOVERLAY, 0, STATIC
        ARGFRAME DOVERLAY, 0, STATIC
        LOCFRAME ISTACK, 1, STACK
        LOCFRAME XSTACK, 24, STACK
        FUNCTION MT_AfDataStore,021203H
        ARGFRAME XSTACK, 12, STACK
        ARGFRAME IOVERLAY, 0, STATIC
        ARGFRAME DOVERLAY, 0, STATIC
        LOCFRAME ISTACK, 1, STACK
        LOCFRAME XSTACK, 21, STACK
        PUBLIC MT_AfExec
        FUNCTION MT_AfExec,021203H
        ARGFRAME XSTACK, 0, STACK
        LOCFRAME XSTACK, 9, STACK
        PUBLIC MT_AfIncomingMsg
        FUNCTION MT_AfIncomingMsg,021203H
        ARGFRAME XSTACK, 0, STACK
        LOCFRAME ISTACK, 1, STACK
        LOCFRAME XSTACK, 26, STACK
        FUNCTION MT_AfInterPanCtl,021203H
        ARGFRAME XSTACK, 12, STACK
        ARGFRAME IOVERLAY, 0, STATIC
        ARGFRAME DOVERLAY, 0, STATIC
        LOCFRAME ISTACK, 1, STACK
        LOCFRAME XSTACK, 12, STACK
        PUBLIC MT_AfRegister
        FUNCTION MT_AfRegister,021203H
        ARGFRAME XSTACK, 12, STACK
        ARGFRAME IOVERLAY, 0, STATIC
        ARGFRAME DOVERLAY, 0, STATIC
        LOCFRAME ISTACK, 1, STACK
        LOCFRAME XSTACK, 15, STACK
        PUBLIC pMtAfDataReq
        PUBLIC pMtAfInMsgList
        
        CFI Names cfiNames0
        CFI StackFrame CFA_SP SP IDATA
        CFI StackFrame CFA_PSP16 PSP16 XDATA
        CFI StackFrame CFA_XSP16 XSP16 XDATA
        CFI StaticOverlayFrame CFA_IOVERLAY IOVERLAY
        CFI StaticOverlayFrame CFA_DOVERLAY DOVERLAY
        CFI Resource `PSW.CY`:1, `B.BR0`:1, `B.BR1`:1, `B.BR2`:1, `B.BR3`:1
        CFI Resource `B.BR4`:1, `B.BR5`:1, `B.BR6`:1, `B.BR7`:1, `VB.BR8`:1
        CFI Resource `VB.BR9`:1, `VB.BR10`:1, `VB.BR11`:1, `VB.BR12`:1
        CFI Resource `VB.BR13`:1, `VB.BR14`:1, `VB.BR15`:1, VB:8, B:8, A:8
        CFI Resource PSW:8, DPL0:8, DPH0:8, R0:8, R1:8, R2:8, R3:8, R4:8, R5:8
        CFI Resource R6:8, R7:8, V0:8, V1:8, V2:8, V3:8, V4:8, V5:8, V6:8, V7:8
        CFI Resource V8:8, V9:8, V10:8, V11:8, V12:8, V13:8, V14:8, V15:8, SP:8
        CFI Resource PSPH:8, PSPL:8, PSP16:16, XSPH:8, XSPL:8, XSP16:16
        CFI VirtualResource ?RET:24
        CFI Resource ?BRET_EXT:8
        CFI VirtualResource ?RET_HIGH:8, ?RET_LOW:8
        CFI ResourceParts PSP16 PSPH, PSPL
        CFI ResourceParts XSP16 XSPH, XSPL
        CFI ResourceParts ?RET ?BRET_EXT, ?RET_HIGH, ?RET_LOW
        CFI EndNames cfiNames0
        
        CFI Common cfiCommon0 Using cfiNames0
        CFI CodeAlign 1
        CFI DataAlign -1
        CFI ReturnAddress ?RET CODE
        CFI CFA_DOVERLAY Used
        CFI CFA_IOVERLAY Used
        CFI CFA_SP SP+-3
        CFI CFA_PSP16 PSP16+0
        CFI CFA_XSP16 XSP16+0
        CFI `PSW.CY` SameValue
        CFI `B.BR0` SameValue
        CFI `B.BR1` SameValue
        CFI `B.BR2` SameValue
        CFI `B.BR3` SameValue
        CFI `B.BR4` SameValue
        CFI `B.BR5` SameValue
        CFI `B.BR6` SameValue
        CFI `B.BR7` SameValue
        CFI `VB.BR8` SameValue
        CFI `VB.BR9` SameValue
        CFI `VB.BR10` SameValue
        CFI `VB.BR11` SameValue
        CFI `VB.BR12` SameValue
        CFI `VB.BR13` SameValue
        CFI `VB.BR14` SameValue
        CFI `VB.BR15` SameValue
        CFI VB SameValue
        CFI B Undefined
        CFI A Undefined
        CFI PSW SameValue
        CFI DPL0 SameValue
        CFI DPH0 SameValue
        CFI R0 Undefined
        CFI R1 Undefined
        CFI R2 Undefined
        CFI R3 Undefined
        CFI R4 Undefined
        CFI R5 Undefined
        CFI R6 SameValue
        CFI R7 SameValue
        CFI V0 SameValue
        CFI V1 SameValue
        CFI V2 SameValue
        CFI V3 SameValue
        CFI V4 SameValue
        CFI V5 SameValue
        CFI V6 SameValue
        CFI V7 SameValue
        CFI V8 SameValue
        CFI V9 SameValue
        CFI V10 SameValue
        CFI V11 SameValue
        CFI V12 SameValue
        CFI V13 SameValue
        CFI V14 SameValue
        CFI V15 SameValue
        CFI PSPH Undefined
        CFI PSPL Undefined
        CFI XSPH Undefined
        CFI XSPL Undefined
        CFI ?RET Concat
        CFI ?BRET_EXT Frame(CFA_SP, 3)
        CFI ?RET_HIGH Frame(CFA_SP, 2)
        CFI ?RET_LOW Frame(CFA_SP, 1)
        CFI EndCommon cfiCommon0
        
        
        CFI Common cfiCommon1 Using cfiNames0
        CFI CodeAlign 1
        CFI DataAlign -1
        CFI ReturnAddress ?RET CODE
        CFI CFA_DOVERLAY Used
        CFI CFA_IOVERLAY Used
        CFI CFA_SP SP+-2
        CFI CFA_PSP16 PSP16+0
        CFI CFA_XSP16 XSP16+0
        CFI `PSW.CY` SameValue
        CFI `B.BR0` SameValue
        CFI `B.BR1` SameValue
        CFI `B.BR2` SameValue
        CFI `B.BR3` SameValue
        CFI `B.BR4` SameValue
        CFI `B.BR5` SameValue
        CFI `B.BR6` SameValue
        CFI `B.BR7` SameValue
        CFI `VB.BR8` SameValue
        CFI `VB.BR9` SameValue
        CFI `VB.BR10` SameValue
        CFI `VB.BR11` SameValue
        CFI `VB.BR12` SameValue
        CFI `VB.BR13` SameValue
        CFI `VB.BR14` SameValue
        CFI `VB.BR15` SameValue
        CFI VB SameValue
        CFI B SameValue
        CFI A SameValue
        CFI PSW SameValue
        CFI DPL0 SameValue
        CFI DPH0 SameValue
        CFI R0 SameValue
        CFI R1 SameValue
        CFI R2 SameValue
        CFI R3 SameValue
        CFI R4 SameValue
        CFI R5 SameValue
        CFI R6 SameValue
        CFI R7 SameValue
        CFI V0 SameValue
        CFI V1 SameValue
        CFI V2 SameValue
        CFI V3 SameValue
        CFI V4 SameValue
        CFI V5 SameValue
        CFI V6 SameValue
        CFI V7 SameValue
        CFI V8 SameValue
        CFI V9 SameValue
        CFI V10 SameValue
        CFI V11 SameValue
        CFI V12 SameValue
        CFI V13 SameValue
        CFI V14 SameValue
        CFI V15 SameValue
        CFI PSPH Undefined
        CFI PSPL Undefined
        CFI XSPH Undefined
        CFI XSPL Undefined
        CFI ?RET Concat
        CFI ?BRET_EXT SameValue
        CFI ?RET_HIGH Frame(CFA_SP, 2)
        CFI ?RET_LOW Frame(CFA_SP, 1)
        CFI EndCommon cfiCommon1
        
osal_mem_free       SYMBOL "osal_mem_free"
osal_start_timerEx  SYMBOL "osal_start_timerEx"
osal_set_event      SYMBOL "osal_set_event"
afAPSF_ConfigSet    SYMBOL "afAPSF_ConfigSet"
MT_BuildAndSendZToolResponse SYMBOL "MT_BuildAndSendZToolResponse"
osal_mem_alloc      SYMBOL "osal_mem_alloc"
MT_BuildEndpointDesc SYMBOL "MT_BuildEndpointDesc"
afRegister          SYMBOL "afRegister"
osal_memcpy         SYMBOL "osal_memcpy"
afFindEndPointDesc  SYMBOL "afFindEndPointDesc"
AF_DataRequest      SYMBOL "AF_DataRequest"
osal_memset         SYMBOL "osal_memset"
AF_DataRequestSrcRtg SYMBOL "AF_DataRequestSrcRtg"
StubAPS_SetIntraPanChannel SYMBOL "StubAPS_SetIntraPanChannel"
StubAPS_SetInterPanChannel SYMBOL "StubAPS_SetInterPanChannel"
StubAPS_RegisterApp SYMBOL "StubAPS_RegisterApp"
StubAPS_InterPan    SYMBOL "StubAPS_InterPan"
??AF_DataRequest?relay SYMBOL "?relay", AF_DataRequest
??AF_DataRequestSrcRtg?relay SYMBOL "?relay", AF_DataRequestSrcRtg
??MT_BuildAndSendZToolResponse?relay SYMBOL "?relay", MT_BuildAndSendZToolResponse
??MT_BuildEndpointDesc?relay SYMBOL "?relay", MT_BuildEndpointDesc
??StubAPS_InterPan?relay SYMBOL "?relay", StubAPS_InterPan
??StubAPS_RegisterApp?relay SYMBOL "?relay", StubAPS_RegisterApp
??StubAPS_SetInterPanChannel?relay SYMBOL "?relay", StubAPS_SetInterPanChannel
??StubAPS_SetIntraPanChannel?relay SYMBOL "?relay", StubAPS_SetIntraPanChannel
??afAPSF_ConfigSet?relay SYMBOL "?relay", afAPSF_ConfigSet
??afFindEndPointDesc?relay SYMBOL "?relay", afFindEndPointDesc
??afRegister?relay  SYMBOL "?relay", afRegister
??osal_mem_alloc?relay SYMBOL "?relay", osal_mem_alloc
??osal_mem_free?relay SYMBOL "?relay", osal_mem_free
??osal_memcpy?relay SYMBOL "?relay", osal_memcpy
??osal_memset?relay SYMBOL "?relay", osal_memset
??osal_set_event?relay SYMBOL "?relay", osal_set_event
??osal_start_timerEx?relay SYMBOL "?relay", osal_start_timerEx
MT_AfCommandProcessing SYMBOL "MT_AfCommandProcessing"
??MT_AfCommandProcessing?relay SYMBOL "?relay", MT_AfCommandProcessing
MT_AfDataConfirm    SYMBOL "MT_AfDataConfirm"
??MT_AfDataConfirm?relay SYMBOL "?relay", MT_AfDataConfirm
MT_AfDataRequest    SYMBOL "MT_AfDataRequest"
??MT_AfDataRequest?relay SYMBOL "?relay", MT_AfDataRequest
MT_AfDataRequestSrcRtg SYMBOL "MT_AfDataRequestSrcRtg"
??MT_AfDataRequestSrcRtg?relay SYMBOL "?relay", MT_AfDataRequestSrcRtg
MT_AfExec           SYMBOL "MT_AfExec"
??MT_AfExec?relay   SYMBOL "?relay", MT_AfExec
MT_AfIncomingMsg    SYMBOL "MT_AfIncomingMsg"
??MT_AfIncomingMsg?relay SYMBOL "?relay", MT_AfIncomingMsg
MT_AfRegister       SYMBOL "MT_AfRegister"
??MT_AfRegister?relay SYMBOL "?relay", MT_AfRegister

        EXTERN osal_mem_free
        FUNCTION osal_mem_free,0202H
        ARGFRAME ISTACK, 0, STACK
        ARGFRAME PSTACK, 0, STACK
        ARGFRAME XSTACK, 34, STACK
        ARGFRAME IOVERLAY, 0, STATIC
        ARGFRAME DOVERLAY, 0, STATIC
        EXTERN osal_start_timerEx
        FUNCTION osal_start_timerEx,0202H
        ARGFRAME ISTACK, 0, STACK
        ARGFRAME PSTACK, 0, STACK
        ARGFRAME XSTACK, 36, STACK
        ARGFRAME IOVERLAY, 0, STATIC
        ARGFRAME DOVERLAY, 0, STATIC
        EXTERN osal_set_event
        FUNCTION osal_set_event,0202H
        ARGFRAME ISTACK, 0, STACK
        ARGFRAME PSTACK, 0, STACK
        ARGFRAME XSTACK, 36, STACK
        ARGFRAME IOVERLAY, 0, STATIC
        ARGFRAME DOVERLAY, 0, STATIC
        EXTERN afAPSF_ConfigSet
        FUNCTION afAPSF_ConfigSet,0202H
        ARGFRAME ISTACK, 0, STACK
        ARGFRAME PSTACK, 0, STACK
        ARGFRAME XSTACK, 12, STACK
        ARGFRAME IOVERLAY, 0, STATIC
        ARGFRAME DOVERLAY, 0, STATIC
        EXTERN MT_BuildAndSendZToolResponse
        FUNCTION MT_BuildAndSendZToolResponse,0202H
        ARGFRAME ISTACK, 2, STACK
        ARGFRAME PSTACK, 0, STACK
        ARGFRAME XSTACK, 36, STACK
        ARGFRAME IOVERLAY, 0, STATIC
        ARGFRAME DOVERLAY, 0, STATIC
        EXTERN osal_mem_alloc
        FUNCTION osal_mem_alloc,0202H
        ARGFRAME ISTACK, 0, STACK
        ARGFRAME PSTACK, 0, STACK
        ARGFRAME XSTACK, 36, STACK
        ARGFRAME IOVERLAY, 0, STATIC
        ARGFRAME DOVERLAY, 0, STATIC
        EXTERN MT_BuildEndpointDesc
        FUNCTION MT_BuildEndpointDesc,0202H
        ARGFRAME ISTACK, 0, STACK
        ARGFRAME PSTACK, 0, STACK
        ARGFRAME XSTACK, 15, STACK
        ARGFRAME IOVERLAY, 0, STATIC
        ARGFRAME DOVERLAY, 0, STATIC
        EXTERN afRegister
        FUNCTION afRegister,0202H
        ARGFRAME ISTACK, 0, STACK
        ARGFRAME PSTACK, 0, STACK
        ARGFRAME XSTACK, 15, STACK
        ARGFRAME IOVERLAY, 0, STATIC
        ARGFRAME DOVERLAY, 0, STATIC
        EXTERN osal_memcpy
        FUNCTION osal_memcpy,0202H
        ARGFRAME ISTACK, 0, STACK
        ARGFRAME PSTACK, 0, STACK
        ARGFRAME XSTACK, 39, STACK
        ARGFRAME IOVERLAY, 0, STATIC
        ARGFRAME DOVERLAY, 0, STATIC
        EXTERN afFindEndPointDesc
        FUNCTION afFindEndPointDesc,0202H
        ARGFRAME ISTACK, 0, STACK
        ARGFRAME PSTACK, 0, STACK
        ARGFRAME XSTACK, 36, STACK
        ARGFRAME IOVERLAY, 0, STATIC
        ARGFRAME DOVERLAY, 0, STATIC
        EXTERN AF_DataRequest
        FUNCTION AF_DataRequest,0202H
        ARGFRAME ISTACK, 0, STACK
        ARGFRAME PSTACK, 0, STACK
        ARGFRAME XSTACK, 45, STACK
        ARGFRAME IOVERLAY, 0, STATIC
        ARGFRAME DOVERLAY, 0, STATIC
        EXTERN osal_memset
        FUNCTION osal_memset,0202H
        ARGFRAME ISTACK, 0, STACK
        ARGFRAME PSTACK, 0, STACK
        ARGFRAME XSTACK, 34, STACK
        ARGFRAME IOVERLAY, 0, STATIC
        ARGFRAME DOVERLAY, 0, STATIC
        EXTERN AF_DataRequestSrcRtg
        FUNCTION AF_DataRequestSrcRtg,0202H
        ARGFRAME ISTACK, 0, STACK
        ARGFRAME PSTACK, 0, STACK
        ARGFRAME XSTACK, 46, STACK
        ARGFRAME IOVERLAY, 0, STATIC
        ARGFRAME DOVERLAY, 0, STATIC
        EXTERN StubAPS_SetIntraPanChannel
        FUNCTION StubAPS_SetIntraPanChannel,0202H
        ARGFRAME ISTACK, 0, STACK
        ARGFRAME PSTACK, 0, STACK
        ARGFRAME XSTACK, 12, STACK
        ARGFRAME IOVERLAY, 0, STATIC
        ARGFRAME DOVERLAY, 0, STATIC
        EXTERN StubAPS_SetInterPanChannel
        FUNCTION StubAPS_SetInterPanChannel,0202H
        ARGFRAME ISTACK, 0, STACK
        ARGFRAME PSTACK, 0, STACK
        ARGFRAME XSTACK, 12, STACK
        ARGFRAME IOVERLAY, 0, STATIC
        ARGFRAME DOVERLAY, 0, STATIC
        EXTERN StubAPS_RegisterApp
        FUNCTION StubAPS_RegisterApp,0202H
        ARGFRAME ISTACK, 0, STACK
        ARGFRAME PSTACK, 0, STACK
        ARGFRAME XSTACK, 12, STACK
        ARGFRAME IOVERLAY, 0, STATIC
        ARGFRAME DOVERLAY, 0, STATIC
        EXTERN StubAPS_InterPan
        FUNCTION StubAPS_InterPan,0202H
        ARGFRAME ISTACK, 0, STACK
        ARGFRAME PSTACK, 0, STACK
        ARGFRAME XSTACK, 23, STACK
        ARGFRAME IOVERLAY, 0, STATIC
        ARGFRAME DOVERLAY, 0, STATIC
        EXTERN ??AF_DataRequest?relay
        FUNCTION ??AF_DataRequest?relay,00H
        EXTERN ??AF_DataRequestSrcRtg?relay
        FUNCTION ??AF_DataRequestSrcRtg?relay,00H
        EXTERN ??MT_BuildAndSendZToolResponse?relay
        FUNCTION ??MT_BuildAndSendZToolResponse?relay,00H
        EXTERN ??MT_BuildEndpointDesc?relay
        FUNCTION ??MT_BuildEndpointDesc?relay,00H
        EXTERN ??StubAPS_InterPan?relay
        FUNCTION ??StubAPS_InterPan?relay,00H
        EXTERN ??StubAPS_RegisterApp?relay
        FUNCTION ??StubAPS_RegisterApp?relay,00H
        EXTERN ??StubAPS_SetInterPanChannel?relay
        FUNCTION ??StubAPS_SetInterPanChannel?relay,00H
        EXTERN ??StubAPS_SetIntraPanChannel?relay
        FUNCTION ??StubAPS_SetIntraPanChannel?relay,00H
        EXTERN ??afAPSF_ConfigSet?relay
        FUNCTION ??afAPSF_ConfigSet?relay,00H
        EXTERN ??afFindEndPointDesc?relay
        FUNCTION ??afFindEndPointDesc?relay,00H
        EXTERN ??afRegister?relay
        FUNCTION ??afRegister?relay,00H
        EXTERN ??osal_mem_alloc?relay
        FUNCTION ??osal_mem_alloc?relay,00H
        EXTERN ??osal_mem_free?relay
        FUNCTION ??osal_mem_free?relay,00H
        EXTERN ??osal_memcpy?relay
        FUNCTION ??osal_memcpy?relay,00H
        EXTERN ??osal_memset?relay
        FUNCTION ??osal_memset?relay,00H
        EXTERN ??osal_set_event?relay
        FUNCTION ??osal_set_event?relay,00H
        EXTERN ??osal_start_timerEx?relay
        FUNCTION ??osal_start_timerEx?relay,00H
        EXTERN MT_TaskID

// G:\»ªÖÚÎÞÏß\12.´®¿ÚÍ¸´«Ö®ÎÞÏßQQ\ZStack-2.5.1a\Components\mt\MT_AF.c
//    1 /**************************************************************************************************
//    2   Filename:       MT_AF.c
//    3   Revised:        $Date: 2011-05-27 16:00:27 -0700 (Fri, 27 May 2011) $
//    4   Revision:       $Revision: 26145 $
//    5 
//    6 
//    7   Description:    MonitorTest functions for the AF layer.
//    8 
//    9 
//   10   Copyright 2007-2011 Texas Instruments Incorporated. All rights reserved.
//   11 
//   12   IMPORTANT: Your use of this Software is limited to those specific rights
//   13   granted under the terms of a software license agreement between the user
//   14   who downloaded the software, his/her employer (which must be your employer)
//   15   and Texas Instruments Incorporated (the "License").  You may not use this
//   16   Software unless you agree to abide by the terms of the License. The License
//   17   limits your use, and you acknowledge, that the Software may not be modified,
//   18   copied or distributed unless embedded on a Texas Instruments microcontroller
//   19   or used solely and exclusively in conjunction with a Texas Instruments radio
//   20   frequency transceiver, which is integrated into your product.  Other than for
//   21   the foregoing purpose, you may not use, reproduce, copy, prepare derivative
//   22   works of, modify, distribute, perform, display or sell this Software and/or
//   23   its documentation for any purpose.
//   24 
//   25   YOU FURTHER ACKNOWLEDGE AND AGREE THAT THE SOFTWARE AND DOCUMENTATION ARE
//   26   PROVIDED “AS IS” WITHOUT WARRANTY OF ANY KIND, EITHER EXPRESS OR IMPLIED,
//   27   INCLUDING WITHOUT LIMITATION, ANY WARRANTY OF MERCHANTABILITY, TITLE,
//   28   NON-INFRINGEMENT AND FITNESS FOR A PARTICULAR PURPOSE. IN NO EVENT SHALL
//   29   TEXAS INSTRUMENTS OR ITS LICENSORS BE LIABLE OR OBLIGATED UNDER CONTRACT,
//   30   NEGLIGENCE, STRICT LIABILITY, CONTRIBUTION, BREACH OF WARRANTY, OR OTHER
//   31   LEGAL EQUITABLE THEORY ANY DIRECT OR INDIRECT DAMAGES OR EXPENSES
//   32   INCLUDING BUT NOT LIMITED TO ANY INCIDENTAL, SPECIAL, INDIRECT, PUNITIVE
//   33   OR CONSEQUENTIAL DAMAGES, LOST PROFITS OR LOST DATA, COST OF PROCUREMENT
//   34   OF SUBSTITUTE GOODS, TECHNOLOGY, SERVICES, OR ANY CLAIMS BY THIRD PARTIES
//   35   (INCLUDING BUT NOT LIMITED TO ANY DEFENSE THEREOF), OR OTHER SIMILAR COSTS.
//   36 
//   37   Should you have any questions regarding your right to use this Software,
//   38   contact Texas Instruments Incorporated at www.TI.com.
//   39 
//   40 **************************************************************************************************/
//   41 
//   42 /* ------------------------------------------------------------------------------------------------
//   43  *                                          Includes
//   44  * ------------------------------------------------------------------------------------------------
//   45  */
//   46 #include "ZComDef.h"
//   47 #include "OSAL.h"
//   48 #include "MT.h"
//   49 #include "MT_AF.h"
//   50 #include "MT_ZDO.h"
//   51 #include "nwk.h"
//   52 #include "OnBoard.h"
//   53 #include "MT_UART.h"
//   54 
//   55 #if defined INTER_PAN
//   56 #include "stub_aps.h"
//   57 #endif
//   58 
//   59 /* ------------------------------------------------------------------------------------------------
//   60  *                                          Constants
//   61  * ------------------------------------------------------------------------------------------------
//   62  */
//   63 
//   64 #if !defined MT_AF_EXEC_CNT
//   65 #define MT_AF_EXEC_CNT  15
//   66 #endif
//   67 
//   68 #if !defined MT_AF_EXEC_DLY
//   69 #define MT_AF_EXEC_DLY  1000
//   70 #endif
//   71 
//   72 /* ------------------------------------------------------------------------------------------------
//   73  *                                           Typedefs
//   74  * ------------------------------------------------------------------------------------------------
//   75  */
//   76 
//   77 typedef struct
//   78 {
//   79   uint8 *data;
//   80   afAddrType_t dstAddr;
//   81   endPointDesc_t *epDesc;
//   82   uint16 cId;
//   83   uint16 dataLen;
//   84   uint8 transId;
//   85   uint8 txOpts;
//   86   uint8 radius;
//   87   uint8 tick;
//   88 } mtAfDataReq_t;
//   89 
//   90 typedef struct _mtAfInMsgList_t
//   91 {
//   92   struct _mtAfInMsgList_t *next;
//   93   uint8 *data;
//   94   uint32 timestamp;         // Receipt timestamp from MAC.
//   95   uint8 tick;
//   96 } mtAfInMsgList_t;
//   97 
//   98 /* ------------------------------------------------------------------------------------------------
//   99  *                                        Local Variables
//  100  * ------------------------------------------------------------------------------------------------
//  101  */
//  102 

        RSEG XDATA_Z:XDATA:NOROOT(0)
        DATA16
//  103 mtAfInMsgList_t *pMtAfInMsgList = NULL;
pMtAfInMsgList:
        DS 2
        REQUIRE __INIT_XDATA_Z

        RSEG XDATA_Z:XDATA:NOROOT(0)
        DATA16
//  104 mtAfDataReq_t *pMtAfDataReq = NULL;
pMtAfDataReq:
        DS 2
        REQUIRE __INIT_XDATA_Z
//  105 
//  106 /* ------------------------------------------------------------------------------------------------
//  107  *                                        Global Variables
//  108  * ------------------------------------------------------------------------------------------------
//  109  */
//  110 
//  111 #if defined ( MT_AF_CB_FUNC )
//  112 uint16 _afCallbackSub;
//  113 #endif
//  114 
//  115 /* ------------------------------------------------------------------------------------------------
//  116  *                                        Local Functions
//  117  * ------------------------------------------------------------------------------------------------
//  118  */
//  119 
//  120 void MT_AfRegister(uint8 *pBuf);
//  121 void MT_AfDataRequest(uint8 *pBuf);
//  122 
//  123 #if defined ( ZIGBEE_SOURCE_ROUTING )
//  124 void MT_AfDataRequestSrcRtg(uint8 *pBuf);
//  125 #endif
//  126 
//  127 #if defined INTER_PAN
//  128 static void MT_AfInterPanCtl(uint8 *pBuf);
//  129 #endif
//  130 
//  131 static void MT_AfDataRetrieve(uint8 *pBuf);
//  132 static void MT_AfDataStore(uint8 *pBuf);
//  133 static void MT_AfAPSF_ConfigSet(uint8 *pBuf);
//  134 
//  135 /**************************************************************************************************
//  136  * @fn          MT_AfExec
//  137  *
//  138  * @brief       This function is invoked by an MT timer event.
//  139  *
//  140  * input parameters
//  141  *
//  142  * None.
//  143  *
//  144  * output parameters
//  145  *
//  146  * None.
//  147  *
//  148  * @return      None.
//  149  **************************************************************************************************
//  150  */

        RSEG BANKED_CODE:CODE:NOROOT(0)
//  151 void MT_AfExec(void)
MT_AfExec:
        CFI Block cfiBlock0 Using cfiCommon0
        CFI Function MT_AfExec
        CODE
//  152 {
        FUNCALL MT_AfExec, osal_mem_free
        LOCFRAME ISTACK, 0, STACK
        LOCFRAME PSTACK, 0, STACK
        LOCFRAME XSTACK, 9, STACK
        LOCFRAME IOVERLAY, 0, STATIC
        LOCFRAME DOVERLAY, 0, STATIC
        ARGFRAME ISTACK, 0, STACK
        ARGFRAME PSTACK, 0, STACK
        ARGFRAME XSTACK, 9, STACK
        ARGFRAME IOVERLAY, 0, STATIC
        ARGFRAME DOVERLAY, 0, STATIC
        FUNCALL MT_AfExec, osal_mem_free
        LOCFRAME ISTACK, 0, STACK
        LOCFRAME PSTACK, 0, STACK
        LOCFRAME XSTACK, 9, STACK
        LOCFRAME IOVERLAY, 0, STATIC
        LOCFRAME DOVERLAY, 0, STATIC
        ARGFRAME ISTACK, 0, STACK
        ARGFRAME PSTACK, 0, STACK
        ARGFRAME XSTACK, 9, STACK
        ARGFRAME IOVERLAY, 0, STATIC
        ARGFRAME DOVERLAY, 0, STATIC
        FUNCALL MT_AfExec, osal_mem_free
        LOCFRAME ISTACK, 0, STACK
        LOCFRAME PSTACK, 0, STACK
        LOCFRAME XSTACK, 9, STACK
        LOCFRAME IOVERLAY, 0, STATIC
        LOCFRAME DOVERLAY, 0, STATIC
        ARGFRAME ISTACK, 0, STACK
        ARGFRAME PSTACK, 0, STACK
        ARGFRAME XSTACK, 9, STACK
        ARGFRAME IOVERLAY, 0, STATIC
        ARGFRAME DOVERLAY, 0, STATIC
        FUNCALL MT_AfExec, osal_start_timerEx
        LOCFRAME ISTACK, 0, STACK
        LOCFRAME PSTACK, 0, STACK
        LOCFRAME XSTACK, 9, STACK
        LOCFRAME IOVERLAY, 0, STATIC
        LOCFRAME DOVERLAY, 0, STATIC
        ARGFRAME ISTACK, 0, STACK
        ARGFRAME PSTACK, 0, STACK
        ARGFRAME XSTACK, 9, STACK
        ARGFRAME IOVERLAY, 0, STATIC
        ARGFRAME DOVERLAY, 0, STATIC
        FUNCALL MT_AfExec, osal_set_event
        LOCFRAME ISTACK, 0, STACK
        LOCFRAME PSTACK, 0, STACK
        LOCFRAME XSTACK, 9, STACK
        LOCFRAME IOVERLAY, 0, STATIC
        LOCFRAME DOVERLAY, 0, STATIC
        ARGFRAME ISTACK, 0, STACK
        ARGFRAME PSTACK, 0, STACK
        ARGFRAME XSTACK, 9, STACK
        ARGFRAME IOVERLAY, 0, STATIC
        ARGFRAME DOVERLAY, 0, STATIC
        MOV     A,#-0x9
        LCALL   ?BANKED_ENTER_XDATA
        CFI R6 load(1, XDATA, add(CFA_XSP16, literal(-9)))
        CFI VB load(1, XDATA, add(CFA_XSP16, literal(-8)))
        CFI V0 load(1, XDATA, add(CFA_XSP16, literal(-7)))
        CFI R7 load(1, XDATA, add(CFA_XSP16, literal(-6)))
        CFI ?RET_LOW load(1, XDATA, add(CFA_XSP16, literal(-5)))
        CFI ?RET_HIGH load(1, XDATA, add(CFA_XSP16, literal(-4)))
        CFI ?BRET_EXT load(1, XDATA, add(CFA_XSP16, literal(-3)))
        CFI DPL0 load(1, XDATA, add(CFA_XSP16, literal(-2)))
        CFI DPH0 load(1, XDATA, add(CFA_XSP16, literal(-1)))
        CFI CFA_SP SP+0
        CFI CFA_XSP16 add(XSP16, 9)
        ; Saved register size: 9
        ; Auto size: 0
//  153   mtAfInMsgList_t *pPrev, *pItem = pMtAfInMsgList;
??MT_AfExec_0:
        MOV     DPTR,#pMtAfInMsgList
        SJMP    ??MT_AfExec_1
//  154 
//  155   while (pItem != NULL)
//  156   {
//  157     if (--(pItem->tick) == 0)
//  158     {
//  159       if (pMtAfInMsgList == pItem)
//  160       {
//  161         pMtAfInMsgList = pItem->next;
//  162         (void)osal_mem_free(pItem);
//  163         pItem = pMtAfInMsgList;
//  164       }
//  165       else
//  166       {
//  167         pPrev->next = pItem->next;
//  168         (void)osal_mem_free(pItem);
//  169         pItem = pPrev->next;
//  170       }
//  171     }
//  172     else
//  173     {
//  174       pPrev = pItem;
??MT_AfExec_2:
        MOV     A,R2
        MOV     R6,A
        MOV     A,R3
        MOV     R7,A
//  175       pItem = pItem->next;
        MOV     DPL,R2
        MOV     DPH,R3
??MT_AfExec_1:
        MOVX    A,@DPTR
        MOV     R2,A
        INC     DPTR
        MOVX    A,@DPTR
        MOV     R3,A
//  176     }
        MOV     A,R2
        ORL     A,R3
        JZ      ??MT_AfExec_3
        MOV     A,R2
        ADD     A,#0x8
        LCALL   ?Subroutine21 & 0xFFFF
??CrossCallReturnLabel_74:
        DEC     A
        MOVX    @DPTR,A
        JNZ     ??MT_AfExec_2
        LCALL   ?Subroutine16 & 0xFFFF
??CrossCallReturnLabel_136:
        MOV     A,R2
        XRL     A,R0
        JNZ     ??MT_AfExec_4
        MOV     A,R3
        XRL     A,R1
??MT_AfExec_4:
        MOV     DPL,R2
        MOV     DPH,R3
        JNZ     ??MT_AfExec_5
        LCALL   ?Subroutine15 & 0xFFFF
??CrossCallReturnLabel_21:
        LCALL   ?Subroutine32 & 0xFFFF
??CrossCallReturnLabel_50:
        SJMP    ??MT_AfExec_0
??MT_AfExec_5:
        LCALL   ??Subroutine59_0 & 0xFFFF
??CrossCallReturnLabel_134:
        MOV     DPL,R6
        MOV     DPH,R7
        LCALL   ?Subroutine32 & 0xFFFF
??CrossCallReturnLabel_51:
        MOV     DPL,R6
        MOV     DPH,R7
        SJMP    ??MT_AfExec_1
//  177   }
//  178 
//  179   if (pMtAfDataReq != NULL)
??MT_AfExec_3:
        LCALL   ?Subroutine3 & 0xFFFF
??CrossCallReturnLabel_92:
        JZ      ??MT_AfExec_6
//  180   {
//  181     if (--(pMtAfDataReq->tick) == 0)
        LCALL   ?Subroutine4 & 0xFFFF
??CrossCallReturnLabel_80:
        DEC     A
        MOVX    @DPTR,A
        LCALL   ?Subroutine4 & 0xFFFF
??CrossCallReturnLabel_81:
        JNZ     ??MT_AfExec_6
//  182     {
//  183       (void)osal_mem_free(pMtAfDataReq);
        ; Setup parameters for call to function osal_mem_free
        LCALL   ?Subroutine9 & 0xFFFF
//  184       pMtAfDataReq = NULL;
//  185     }
//  186   }
??CrossCallReturnLabel_9:
        MOVX    @DPTR,A
//  187 
//  188   if ((pMtAfInMsgList != NULL) || (pMtAfDataReq != NULL))
??MT_AfExec_6:
        MOV     DPTR,#pMtAfInMsgList
        LCALL   ??Subroutine52_0 & 0xFFFF
??CrossCallReturnLabel_91:
        JNZ     ??MT_AfExec_7
        LCALL   ?Subroutine3 & 0xFFFF
??CrossCallReturnLabel_93:
        JZ      ??CrossCallReturnLabel_23
//  189   {
//  190     if (ZSuccess != osal_start_timerEx(MT_TaskID, MT_AF_EXEC_EVT, MT_AF_EXEC_DLY))
??MT_AfExec_7:
        ; Setup parameters for call to function osal_start_timerEx
        LCALL   ??Subroutine51_0 & 0xFFFF
??CrossCallReturnLabel_90:
        JZ      ??CrossCallReturnLabel_23
//  191     {
//  192       osal_set_event(MT_TaskID, MT_AF_EXEC_EVT);
        ; Setup parameters for call to function osal_set_event
        LCALL   ?Subroutine17 & 0xFFFF
        CFI EndBlock cfiBlock0
//  193     }
//  194   }
//  195 }
??CrossCallReturnLabel_23:
        REQUIRE ?Subroutine0
        ; // Fall through to label ?Subroutine0

        RSEG BANKED_CODE:CODE:NOROOT(0)
?Subroutine0:
        CFI Block cfiBlock1 Using cfiCommon0
        CFI NoFunction
        CFI CFA_SP SP+0
        CFI CFA_XSP16 add(XSP16, 9)
        CFI VB load(1, XDATA, add(CFA_XSP16, literal(-8)))
        CFI DPL0 load(1, XDATA, add(CFA_XSP16, literal(-2)))
        CFI DPH0 load(1, XDATA, add(CFA_XSP16, literal(-1)))
        CFI R6 load(1, XDATA, add(CFA_XSP16, literal(-9)))
        CFI R7 load(1, XDATA, add(CFA_XSP16, literal(-6)))
        CFI V0 load(1, XDATA, add(CFA_XSP16, literal(-7)))
        CFI ?BRET_EXT load(1, XDATA, add(CFA_XSP16, literal(-3)))
        CFI ?RET_HIGH load(1, XDATA, add(CFA_XSP16, literal(-4)))
        CFI ?RET_LOW load(1, XDATA, add(CFA_XSP16, literal(-5)))
        MOV     R7,#0x1
        LJMP    ?BANKED_LEAVE_XDATA
        CFI EndBlock cfiBlock1

        RSEG BANKED_CODE:CODE:NOROOT(0)
?Subroutine32:
        CFI Block cfiCond2 Using cfiCommon0
        CFI NoFunction
        CFI Conditional ??CrossCallReturnLabel_50
        CFI R6 load(1, XDATA, add(CFA_XSP16, literal(-9)))
        CFI VB load(1, XDATA, add(CFA_XSP16, literal(-8)))
        CFI V0 load(1, XDATA, add(CFA_XSP16, literal(-7)))
        CFI R7 load(1, XDATA, add(CFA_XSP16, literal(-6)))
        CFI ?RET_LOW load(1, XDATA, add(CFA_XSP16, literal(-5)))
        CFI ?RET_HIGH load(1, XDATA, add(CFA_XSP16, literal(-4)))
        CFI ?BRET_EXT load(1, XDATA, add(CFA_XSP16, literal(-3)))
        CFI DPL0 load(1, XDATA, add(CFA_XSP16, literal(-2)))
        CFI DPH0 load(1, XDATA, add(CFA_XSP16, literal(-1)))
        CFI CFA_SP SP+0
        CFI CFA_XSP16 add(XSP16, 9)
        CFI Block cfiCond3 Using cfiCommon0
        CFI (cfiCond3) NoFunction
        CFI (cfiCond3) Conditional ??CrossCallReturnLabel_51
        CFI (cfiCond3) R6 load(1, XDATA, add(CFA_XSP16, literal(-9)))
        CFI (cfiCond3) VB load(1, XDATA, add(CFA_XSP16, literal(-8)))
        CFI (cfiCond3) V0 load(1, XDATA, add(CFA_XSP16, literal(-7)))
        CFI (cfiCond3) R7 load(1, XDATA, add(CFA_XSP16, literal(-6)))
        CFI (cfiCond3) ?RET_LOW load(1, XDATA, add(CFA_XSP16, literal(-5)))
        CFI (cfiCond3) ?RET_HIGH load(1, XDATA, add(CFA_XSP16, literal(-4)))
        CFI (cfiCond3) ?BRET_EXT load(1, XDATA, add(CFA_XSP16, literal(-3)))
        CFI (cfiCond3) DPL0 load(1, XDATA, add(CFA_XSP16, literal(-2)))
        CFI (cfiCond3) DPH0 load(1, XDATA, add(CFA_XSP16, literal(-1)))
        CFI (cfiCond3) CFA_SP SP+0
        CFI (cfiCond3) CFA_XSP16 add(XSP16, 9)
        CFI Block cfiPicker4 Using cfiCommon1
        CFI (cfiPicker4) NoFunction
        CFI (cfiPicker4) Picker
        MOV     A,R0
        MOVX    @DPTR,A
        INC     DPTR
        MOV     A,R1
        MOVX    @DPTR,A
        ; Setup parameters for call to function osal_mem_free
        ; Setup parameters for call to function osal_mem_free
        LCALL   ??osal_mem_free?relay
        RET
        CFI EndBlock cfiCond2
        CFI EndBlock cfiCond3
        CFI EndBlock cfiPicker4

        RSEG BANKED_CODE:CODE:NOROOT(0)
?Subroutine21:
        CFI Block cfiCond5 Using cfiCommon0
        CFI NoFunction
        CFI Conditional ??CrossCallReturnLabel_74
        CFI R6 load(1, XDATA, add(CFA_XSP16, literal(-9)))
        CFI VB load(1, XDATA, add(CFA_XSP16, literal(-8)))
        CFI V0 load(1, XDATA, add(CFA_XSP16, literal(-7)))
        CFI R7 load(1, XDATA, add(CFA_XSP16, literal(-6)))
        CFI ?RET_LOW load(1, XDATA, add(CFA_XSP16, literal(-5)))
        CFI ?RET_HIGH load(1, XDATA, add(CFA_XSP16, literal(-4)))
        CFI ?BRET_EXT load(1, XDATA, add(CFA_XSP16, literal(-3)))
        CFI DPL0 load(1, XDATA, add(CFA_XSP16, literal(-2)))
        CFI DPH0 load(1, XDATA, add(CFA_XSP16, literal(-1)))
        CFI CFA_SP SP+0
        CFI CFA_XSP16 add(XSP16, 9)
        CFI Block cfiCond6 Using cfiCommon0
        CFI (cfiCond6) NoFunction
        CFI (cfiCond6) Conditional ??CrossCallReturnLabel_75
        CFI (cfiCond6) R6 load(1, XDATA, add(CFA_XSP16, literal(-23)))
        CFI (cfiCond6) VB load(1, XDATA, add(CFA_XSP16, literal(-22)))
        CFI (cfiCond6) V0 load(1, XDATA, add(CFA_XSP16, literal(-21)))
        CFI (cfiCond6) V1 load(1, XDATA, add(CFA_XSP16, literal(-20)))
        CFI (cfiCond6) V2 load(1, XDATA, add(CFA_XSP16, literal(-19)))
        CFI (cfiCond6) V3 load(1, XDATA, add(CFA_XSP16, literal(-18)))
        CFI (cfiCond6) V4 load(1, XDATA, add(CFA_XSP16, literal(-17)))
        CFI (cfiCond6) V5 load(1, XDATA, add(CFA_XSP16, literal(-16)))
        CFI (cfiCond6) V6 load(1, XDATA, add(CFA_XSP16, literal(-15)))
        CFI (cfiCond6) V7 load(1, XDATA, add(CFA_XSP16, literal(-14)))
        CFI (cfiCond6) V8 load(1, XDATA, add(CFA_XSP16, literal(-13)))
        CFI (cfiCond6) V9 load(1, XDATA, add(CFA_XSP16, literal(-12)))
        CFI (cfiCond6) V10 load(1, XDATA, add(CFA_XSP16, literal(-11)))
        CFI (cfiCond6) V11 load(1, XDATA, add(CFA_XSP16, literal(-10)))
        CFI (cfiCond6) V12 load(1, XDATA, add(CFA_XSP16, literal(-9)))
        CFI (cfiCond6) V13 load(1, XDATA, add(CFA_XSP16, literal(-8)))
        CFI (cfiCond6) V14 load(1, XDATA, add(CFA_XSP16, literal(-7)))
        CFI (cfiCond6) R7 load(1, XDATA, add(CFA_XSP16, literal(-6)))
        CFI (cfiCond6) ?RET_LOW load(1, XDATA, add(CFA_XSP16, literal(-5)))
        CFI (cfiCond6) ?RET_HIGH load(1, XDATA, add(CFA_XSP16, literal(-4)))
        CFI (cfiCond6) ?BRET_EXT load(1, XDATA, add(CFA_XSP16, literal(-3)))
        CFI (cfiCond6) DPL0 load(1, XDATA, add(CFA_XSP16, literal(-2)))
        CFI (cfiCond6) DPH0 load(1, XDATA, add(CFA_XSP16, literal(-1)))
        CFI (cfiCond6) CFA_SP SP+0
        CFI (cfiCond6) CFA_XSP16 add(XSP16, 23)
        CFI Block cfiCond7 Using cfiCommon0
        CFI (cfiCond7) NoFunction
        CFI (cfiCond7) Conditional ??CrossCallReturnLabel_76
        CFI (cfiCond7) R6 load(1, XDATA, add(CFA_XSP16, literal(-23)))
        CFI (cfiCond7) VB load(1, XDATA, add(CFA_XSP16, literal(-22)))
        CFI (cfiCond7) V0 load(1, XDATA, add(CFA_XSP16, literal(-21)))
        CFI (cfiCond7) V1 load(1, XDATA, add(CFA_XSP16, literal(-20)))
        CFI (cfiCond7) V2 load(1, XDATA, add(CFA_XSP16, literal(-19)))
        CFI (cfiCond7) V3 load(1, XDATA, add(CFA_XSP16, literal(-18)))
        CFI (cfiCond7) V4 load(1, XDATA, add(CFA_XSP16, literal(-17)))
        CFI (cfiCond7) V5 load(1, XDATA, add(CFA_XSP16, literal(-16)))
        CFI (cfiCond7) V6 load(1, XDATA, add(CFA_XSP16, literal(-15)))
        CFI (cfiCond7) V7 load(1, XDATA, add(CFA_XSP16, literal(-14)))
        CFI (cfiCond7) V8 load(1, XDATA, add(CFA_XSP16, literal(-13)))
        CFI (cfiCond7) V9 load(1, XDATA, add(CFA_XSP16, literal(-12)))
        CFI (cfiCond7) V10 load(1, XDATA, add(CFA_XSP16, literal(-11)))
        CFI (cfiCond7) V11 load(1, XDATA, add(CFA_XSP16, literal(-10)))
        CFI (cfiCond7) V12 load(1, XDATA, add(CFA_XSP16, literal(-9)))
        CFI (cfiCond7) V13 load(1, XDATA, add(CFA_XSP16, literal(-8)))
        CFI (cfiCond7) V14 load(1, XDATA, add(CFA_XSP16, literal(-7)))
        CFI (cfiCond7) R7 load(1, XDATA, add(CFA_XSP16, literal(-6)))
        CFI (cfiCond7) ?RET_LOW load(1, XDATA, add(CFA_XSP16, literal(-5)))
        CFI (cfiCond7) ?RET_HIGH load(1, XDATA, add(CFA_XSP16, literal(-4)))
        CFI (cfiCond7) ?BRET_EXT load(1, XDATA, add(CFA_XSP16, literal(-3)))
        CFI (cfiCond7) DPL0 load(1, XDATA, add(CFA_XSP16, literal(-2)))
        CFI (cfiCond7) DPH0 load(1, XDATA, add(CFA_XSP16, literal(-1)))
        CFI (cfiCond7) CFA_SP SP+0
        CFI (cfiCond7) CFA_XSP16 add(XSP16, 23)
        CFI Block cfiCond8 Using cfiCommon0
        CFI (cfiCond8) NoFunction
        CFI (cfiCond8) Conditional ??CrossCallReturnLabel_77
        CFI (cfiCond8) R6 load(1, XDATA, add(CFA_XSP16, literal(-23)))
        CFI (cfiCond8) VB load(1, XDATA, add(CFA_XSP16, literal(-22)))
        CFI (cfiCond8) V0 load(1, XDATA, add(CFA_XSP16, literal(-21)))
        CFI (cfiCond8) V1 load(1, XDATA, add(CFA_XSP16, literal(-20)))
        CFI (cfiCond8) V2 load(1, XDATA, add(CFA_XSP16, literal(-19)))
        CFI (cfiCond8) V3 load(1, XDATA, add(CFA_XSP16, literal(-18)))
        CFI (cfiCond8) V4 load(1, XDATA, add(CFA_XSP16, literal(-17)))
        CFI (cfiCond8) V5 load(1, XDATA, add(CFA_XSP16, literal(-16)))
        CFI (cfiCond8) V6 load(1, XDATA, add(CFA_XSP16, literal(-15)))
        CFI (cfiCond8) V7 load(1, XDATA, add(CFA_XSP16, literal(-14)))
        CFI (cfiCond8) V8 load(1, XDATA, add(CFA_XSP16, literal(-13)))
        CFI (cfiCond8) V9 load(1, XDATA, add(CFA_XSP16, literal(-12)))
        CFI (cfiCond8) V10 load(1, XDATA, add(CFA_XSP16, literal(-11)))
        CFI (cfiCond8) V11 load(1, XDATA, add(CFA_XSP16, literal(-10)))
        CFI (cfiCond8) V12 load(1, XDATA, add(CFA_XSP16, literal(-9)))
        CFI (cfiCond8) V13 load(1, XDATA, add(CFA_XSP16, literal(-8)))
        CFI (cfiCond8) V14 load(1, XDATA, add(CFA_XSP16, literal(-7)))
        CFI (cfiCond8) R7 load(1, XDATA, add(CFA_XSP16, literal(-6)))
        CFI (cfiCond8) ?RET_LOW load(1, XDATA, add(CFA_XSP16, literal(-5)))
        CFI (cfiCond8) ?RET_HIGH load(1, XDATA, add(CFA_XSP16, literal(-4)))
        CFI (cfiCond8) ?BRET_EXT load(1, XDATA, add(CFA_XSP16, literal(-3)))
        CFI (cfiCond8) DPL0 load(1, XDATA, add(CFA_XSP16, literal(-2)))
        CFI (cfiCond8) DPH0 load(1, XDATA, add(CFA_XSP16, literal(-1)))
        CFI (cfiCond8) CFA_SP SP+0
        CFI (cfiCond8) CFA_XSP16 add(XSP16, 23)
        CFI Block cfiPicker9 Using cfiCommon1
        CFI (cfiPicker9) NoFunction
        CFI (cfiPicker9) Picker
        MOV     DPL,A
        MOV     A,R3
        CFI EndBlock cfiCond5
        CFI EndBlock cfiCond6
        CFI EndBlock cfiCond7
        CFI EndBlock cfiCond8
        CFI EndBlock cfiPicker9
        REQUIRE ??Subroutine47_0
        ; // Fall through to label ??Subroutine47_0

        RSEG BANKED_CODE:CODE:NOROOT(0)
??Subroutine47_0:
        CFI Block cfiCond10 Using cfiCommon0
        CFI NoFunction
        CFI Conditional ??CrossCallReturnLabel_73
        CFI R6 load(1, XDATA, add(CFA_XSP16, literal(-23)))
        CFI VB load(1, XDATA, add(CFA_XSP16, literal(-22)))
        CFI V0 load(1, XDATA, add(CFA_XSP16, literal(-21)))
        CFI V1 load(1, XDATA, add(CFA_XSP16, literal(-20)))
        CFI V2 load(1, XDATA, add(CFA_XSP16, literal(-19)))
        CFI V3 load(1, XDATA, add(CFA_XSP16, literal(-18)))
        CFI V4 load(1, XDATA, add(CFA_XSP16, literal(-17)))
        CFI V5 load(1, XDATA, add(CFA_XSP16, literal(-16)))
        CFI V6 load(1, XDATA, add(CFA_XSP16, literal(-15)))
        CFI V7 load(1, XDATA, add(CFA_XSP16, literal(-14)))
        CFI V8 load(1, XDATA, add(CFA_XSP16, literal(-13)))
        CFI V9 load(1, XDATA, add(CFA_XSP16, literal(-12)))
        CFI V10 load(1, XDATA, add(CFA_XSP16, literal(-11)))
        CFI V11 load(1, XDATA, add(CFA_XSP16, literal(-10)))
        CFI V12 load(1, XDATA, add(CFA_XSP16, literal(-9)))
        CFI V13 load(1, XDATA, add(CFA_XSP16, literal(-8)))
        CFI V14 load(1, XDATA, add(CFA_XSP16, literal(-7)))
        CFI R7 load(1, XDATA, add(CFA_XSP16, literal(-6)))
        CFI ?RET_LOW load(1, XDATA, add(CFA_XSP16, literal(-5)))
        CFI ?RET_HIGH load(1, XDATA, add(CFA_XSP16, literal(-4)))
        CFI ?BRET_EXT load(1, XDATA, add(CFA_XSP16, literal(-3)))
        CFI DPL0 load(1, XDATA, add(CFA_XSP16, literal(-2)))
        CFI DPH0 load(1, XDATA, add(CFA_XSP16, literal(-1)))
        CFI CFA_SP SP+0
        CFI CFA_XSP16 add(XSP16, 23)
        CFI Block cfiCond11 Using cfiCommon0
        CFI (cfiCond11) NoFunction
        CFI (cfiCond11) Conditional ??CrossCallReturnLabel_74
        CFI (cfiCond11) R6 load(1, XDATA, add(CFA_XSP16, literal(-9)))
        CFI (cfiCond11) VB load(1, XDATA, add(CFA_XSP16, literal(-8)))
        CFI (cfiCond11) V0 load(1, XDATA, add(CFA_XSP16, literal(-7)))
        CFI (cfiCond11) R7 load(1, XDATA, add(CFA_XSP16, literal(-6)))
        CFI (cfiCond11) ?RET_LOW load(1, XDATA, add(CFA_XSP16, literal(-5)))
        CFI (cfiCond11) ?RET_HIGH load(1, XDATA, add(CFA_XSP16, literal(-4)))
        CFI (cfiCond11) ?BRET_EXT load(1, XDATA, add(CFA_XSP16, literal(-3)))
        CFI (cfiCond11) DPL0 load(1, XDATA, add(CFA_XSP16, literal(-2)))
        CFI (cfiCond11) DPH0 load(1, XDATA, add(CFA_XSP16, literal(-1)))
        CFI (cfiCond11) CFA_SP SP+0
        CFI (cfiCond11) CFA_XSP16 add(XSP16, 9)
        CFI Block cfiCond12 Using cfiCommon0
        CFI (cfiCond12) NoFunction
        CFI (cfiCond12) Conditional ??CrossCallReturnLabel_75
        CFI (cfiCond12) R6 load(1, XDATA, add(CFA_XSP16, literal(-23)))
        CFI (cfiCond12) VB load(1, XDATA, add(CFA_XSP16, literal(-22)))
        CFI (cfiCond12) V0 load(1, XDATA, add(CFA_XSP16, literal(-21)))
        CFI (cfiCond12) V1 load(1, XDATA, add(CFA_XSP16, literal(-20)))
        CFI (cfiCond12) V2 load(1, XDATA, add(CFA_XSP16, literal(-19)))
        CFI (cfiCond12) V3 load(1, XDATA, add(CFA_XSP16, literal(-18)))
        CFI (cfiCond12) V4 load(1, XDATA, add(CFA_XSP16, literal(-17)))
        CFI (cfiCond12) V5 load(1, XDATA, add(CFA_XSP16, literal(-16)))
        CFI (cfiCond12) V6 load(1, XDATA, add(CFA_XSP16, literal(-15)))
        CFI (cfiCond12) V7 load(1, XDATA, add(CFA_XSP16, literal(-14)))
        CFI (cfiCond12) V8 load(1, XDATA, add(CFA_XSP16, literal(-13)))
        CFI (cfiCond12) V9 load(1, XDATA, add(CFA_XSP16, literal(-12)))
        CFI (cfiCond12) V10 load(1, XDATA, add(CFA_XSP16, literal(-11)))
        CFI (cfiCond12) V11 load(1, XDATA, add(CFA_XSP16, literal(-10)))
        CFI (cfiCond12) V12 load(1, XDATA, add(CFA_XSP16, literal(-9)))
        CFI (cfiCond12) V13 load(1, XDATA, add(CFA_XSP16, literal(-8)))
        CFI (cfiCond12) V14 load(1, XDATA, add(CFA_XSP16, literal(-7)))
        CFI (cfiCond12) R7 load(1, XDATA, add(CFA_XSP16, literal(-6)))
        CFI (cfiCond12) ?RET_LOW load(1, XDATA, add(CFA_XSP16, literal(-5)))
        CFI (cfiCond12) ?RET_HIGH load(1, XDATA, add(CFA_XSP16, literal(-4)))
        CFI (cfiCond12) ?BRET_EXT load(1, XDATA, add(CFA_XSP16, literal(-3)))
        CFI (cfiCond12) DPL0 load(1, XDATA, add(CFA_XSP16, literal(-2)))
        CFI (cfiCond12) DPH0 load(1, XDATA, add(CFA_XSP16, literal(-1)))
        CFI (cfiCond12) CFA_SP SP+0
        CFI (cfiCond12) CFA_XSP16 add(XSP16, 23)
        CFI Block cfiCond13 Using cfiCommon0
        CFI (cfiCond13) NoFunction
        CFI (cfiCond13) Conditional ??CrossCallReturnLabel_76
        CFI (cfiCond13) R6 load(1, XDATA, add(CFA_XSP16, literal(-23)))
        CFI (cfiCond13) VB load(1, XDATA, add(CFA_XSP16, literal(-22)))
        CFI (cfiCond13) V0 load(1, XDATA, add(CFA_XSP16, literal(-21)))
        CFI (cfiCond13) V1 load(1, XDATA, add(CFA_XSP16, literal(-20)))
        CFI (cfiCond13) V2 load(1, XDATA, add(CFA_XSP16, literal(-19)))
        CFI (cfiCond13) V3 load(1, XDATA, add(CFA_XSP16, literal(-18)))
        CFI (cfiCond13) V4 load(1, XDATA, add(CFA_XSP16, literal(-17)))
        CFI (cfiCond13) V5 load(1, XDATA, add(CFA_XSP16, literal(-16)))
        CFI (cfiCond13) V6 load(1, XDATA, add(CFA_XSP16, literal(-15)))
        CFI (cfiCond13) V7 load(1, XDATA, add(CFA_XSP16, literal(-14)))
        CFI (cfiCond13) V8 load(1, XDATA, add(CFA_XSP16, literal(-13)))
        CFI (cfiCond13) V9 load(1, XDATA, add(CFA_XSP16, literal(-12)))
        CFI (cfiCond13) V10 load(1, XDATA, add(CFA_XSP16, literal(-11)))
        CFI (cfiCond13) V11 load(1, XDATA, add(CFA_XSP16, literal(-10)))
        CFI (cfiCond13) V12 load(1, XDATA, add(CFA_XSP16, literal(-9)))
        CFI (cfiCond13) V13 load(1, XDATA, add(CFA_XSP16, literal(-8)))
        CFI (cfiCond13) V14 load(1, XDATA, add(CFA_XSP16, literal(-7)))
        CFI (cfiCond13) R7 load(1, XDATA, add(CFA_XSP16, literal(-6)))
        CFI (cfiCond13) ?RET_LOW load(1, XDATA, add(CFA_XSP16, literal(-5)))
        CFI (cfiCond13) ?RET_HIGH load(1, XDATA, add(CFA_XSP16, literal(-4)))
        CFI (cfiCond13) ?BRET_EXT load(1, XDATA, add(CFA_XSP16, literal(-3)))
        CFI (cfiCond13) DPL0 load(1, XDATA, add(CFA_XSP16, literal(-2)))
        CFI (cfiCond13) DPH0 load(1, XDATA, add(CFA_XSP16, literal(-1)))
        CFI (cfiCond13) CFA_SP SP+0
        CFI (cfiCond13) CFA_XSP16 add(XSP16, 23)
        CFI Block cfiCond14 Using cfiCommon0
        CFI (cfiCond14) NoFunction
        CFI (cfiCond14) Conditional ??CrossCallReturnLabel_77
        CFI (cfiCond14) R6 load(1, XDATA, add(CFA_XSP16, literal(-23)))
        CFI (cfiCond14) VB load(1, XDATA, add(CFA_XSP16, literal(-22)))
        CFI (cfiCond14) V0 load(1, XDATA, add(CFA_XSP16, literal(-21)))
        CFI (cfiCond14) V1 load(1, XDATA, add(CFA_XSP16, literal(-20)))
        CFI (cfiCond14) V2 load(1, XDATA, add(CFA_XSP16, literal(-19)))
        CFI (cfiCond14) V3 load(1, XDATA, add(CFA_XSP16, literal(-18)))
        CFI (cfiCond14) V4 load(1, XDATA, add(CFA_XSP16, literal(-17)))
        CFI (cfiCond14) V5 load(1, XDATA, add(CFA_XSP16, literal(-16)))
        CFI (cfiCond14) V6 load(1, XDATA, add(CFA_XSP16, literal(-15)))
        CFI (cfiCond14) V7 load(1, XDATA, add(CFA_XSP16, literal(-14)))
        CFI (cfiCond14) V8 load(1, XDATA, add(CFA_XSP16, literal(-13)))
        CFI (cfiCond14) V9 load(1, XDATA, add(CFA_XSP16, literal(-12)))
        CFI (cfiCond14) V10 load(1, XDATA, add(CFA_XSP16, literal(-11)))
        CFI (cfiCond14) V11 load(1, XDATA, add(CFA_XSP16, literal(-10)))
        CFI (cfiCond14) V12 load(1, XDATA, add(CFA_XSP16, literal(-9)))
        CFI (cfiCond14) V13 load(1, XDATA, add(CFA_XSP16, literal(-8)))
        CFI (cfiCond14) V14 load(1, XDATA, add(CFA_XSP16, literal(-7)))
        CFI (cfiCond14) R7 load(1, XDATA, add(CFA_XSP16, literal(-6)))
        CFI (cfiCond14) ?RET_LOW load(1, XDATA, add(CFA_XSP16, literal(-5)))
        CFI (cfiCond14) ?RET_HIGH load(1, XDATA, add(CFA_XSP16, literal(-4)))
        CFI (cfiCond14) ?BRET_EXT load(1, XDATA, add(CFA_XSP16, literal(-3)))
        CFI (cfiCond14) DPL0 load(1, XDATA, add(CFA_XSP16, literal(-2)))
        CFI (cfiCond14) DPH0 load(1, XDATA, add(CFA_XSP16, literal(-1)))
        CFI (cfiCond14) CFA_SP SP+0
        CFI (cfiCond14) CFA_XSP16 add(XSP16, 23)
        CFI Block cfiPicker15 Using cfiCommon1
        CFI (cfiPicker15) NoFunction
        CFI (cfiPicker15) Picker
        LCALL   ??Subroutine55_0 & 0xFFFF
??CrossCallReturnLabel_111:
        MOVX    A,@DPTR
        RET
        CFI EndBlock cfiCond10
        CFI EndBlock cfiCond11
        CFI EndBlock cfiCond12
        CFI EndBlock cfiCond13
        CFI EndBlock cfiCond14
        CFI EndBlock cfiPicker15

        RSEG BANKED_CODE:CODE:NOROOT(0)
?Subroutine4:
        CFI Block cfiCond16 Using cfiCommon0
        CFI NoFunction
        CFI Conditional ??CrossCallReturnLabel_80
        CFI R6 load(1, XDATA, add(CFA_XSP16, literal(-9)))
        CFI VB load(1, XDATA, add(CFA_XSP16, literal(-8)))
        CFI V0 load(1, XDATA, add(CFA_XSP16, literal(-7)))
        CFI R7 load(1, XDATA, add(CFA_XSP16, literal(-6)))
        CFI ?RET_LOW load(1, XDATA, add(CFA_XSP16, literal(-5)))
        CFI ?RET_HIGH load(1, XDATA, add(CFA_XSP16, literal(-4)))
        CFI ?BRET_EXT load(1, XDATA, add(CFA_XSP16, literal(-3)))
        CFI DPL0 load(1, XDATA, add(CFA_XSP16, literal(-2)))
        CFI DPH0 load(1, XDATA, add(CFA_XSP16, literal(-1)))
        CFI CFA_SP SP+0
        CFI CFA_XSP16 add(XSP16, 9)
        CFI Block cfiCond17 Using cfiCommon0
        CFI (cfiCond17) NoFunction
        CFI (cfiCond17) Conditional ??CrossCallReturnLabel_81
        CFI (cfiCond17) R6 load(1, XDATA, add(CFA_XSP16, literal(-9)))
        CFI (cfiCond17) VB load(1, XDATA, add(CFA_XSP16, literal(-8)))
        CFI (cfiCond17) V0 load(1, XDATA, add(CFA_XSP16, literal(-7)))
        CFI (cfiCond17) R7 load(1, XDATA, add(CFA_XSP16, literal(-6)))
        CFI (cfiCond17) ?RET_LOW load(1, XDATA, add(CFA_XSP16, literal(-5)))
        CFI (cfiCond17) ?RET_HIGH load(1, XDATA, add(CFA_XSP16, literal(-4)))
        CFI (cfiCond17) ?BRET_EXT load(1, XDATA, add(CFA_XSP16, literal(-3)))
        CFI (cfiCond17) DPL0 load(1, XDATA, add(CFA_XSP16, literal(-2)))
        CFI (cfiCond17) DPH0 load(1, XDATA, add(CFA_XSP16, literal(-1)))
        CFI (cfiCond17) CFA_SP SP+0
        CFI (cfiCond17) CFA_XSP16 add(XSP16, 9)
        CFI Block cfiPicker18 Using cfiCommon1
        CFI (cfiPicker18) NoFunction
        CFI (cfiPicker18) Picker
        MOV     DPTR,#pMtAfDataReq
        MOVX    A,@DPTR
        ADD     A,#0x17
        CFI EndBlock cfiCond16
        CFI EndBlock cfiCond17
        CFI EndBlock cfiPicker18
        REQUIRE ??Subroutine48_0
        ; // Fall through to label ??Subroutine48_0

        RSEG BANKED_CODE:CODE:NOROOT(0)
??Subroutine48_0:
        CFI Block cfiCond19 Using cfiCommon0
        CFI NoFunction
        CFI Conditional ??CrossCallReturnLabel_78
        CFI R6 load(1, XDATA, add(CFA_XSP16, literal(-11)))
        CFI VB load(1, XDATA, add(CFA_XSP16, literal(-10)))
        CFI V0 load(1, XDATA, add(CFA_XSP16, literal(-9)))
        CFI V1 load(1, XDATA, add(CFA_XSP16, literal(-8)))
        CFI V2 load(1, XDATA, add(CFA_XSP16, literal(-7)))
        CFI R7 load(1, XDATA, add(CFA_XSP16, literal(-6)))
        CFI ?RET_LOW load(1, XDATA, add(CFA_XSP16, literal(-5)))
        CFI ?RET_HIGH load(1, XDATA, add(CFA_XSP16, literal(-4)))
        CFI ?BRET_EXT load(1, XDATA, add(CFA_XSP16, literal(-3)))
        CFI DPL0 load(1, XDATA, add(CFA_XSP16, literal(-2)))
        CFI DPH0 load(1, XDATA, add(CFA_XSP16, literal(-1)))
        CFI CFA_SP SP+0
        CFI CFA_XSP16 add(XSP16, 12)
        CFI Block cfiCond20 Using cfiCommon0
        CFI (cfiCond20) NoFunction
        CFI (cfiCond20) Conditional ??CrossCallReturnLabel_79
        CFI (cfiCond20) R6 load(1, XDATA, add(CFA_XSP16, literal(-11)))
        CFI (cfiCond20) VB load(1, XDATA, add(CFA_XSP16, literal(-10)))
        CFI (cfiCond20) V0 load(1, XDATA, add(CFA_XSP16, literal(-9)))
        CFI (cfiCond20) V1 load(1, XDATA, add(CFA_XSP16, literal(-8)))
        CFI (cfiCond20) V2 load(1, XDATA, add(CFA_XSP16, literal(-7)))
        CFI (cfiCond20) R7 load(1, XDATA, add(CFA_XSP16, literal(-6)))
        CFI (cfiCond20) ?RET_LOW load(1, XDATA, add(CFA_XSP16, literal(-5)))
        CFI (cfiCond20) ?RET_HIGH load(1, XDATA, add(CFA_XSP16, literal(-4)))
        CFI (cfiCond20) ?BRET_EXT load(1, XDATA, add(CFA_XSP16, literal(-3)))
        CFI (cfiCond20) DPL0 load(1, XDATA, add(CFA_XSP16, literal(-2)))
        CFI (cfiCond20) DPH0 load(1, XDATA, add(CFA_XSP16, literal(-1)))
        CFI (cfiCond20) CFA_SP SP+0
        CFI (cfiCond20) CFA_XSP16 add(XSP16, 21)
        CFI Block cfiCond21 Using cfiCommon0
        CFI (cfiCond21) NoFunction
        CFI (cfiCond21) Conditional ??CrossCallReturnLabel_80
        CFI (cfiCond21) R6 load(1, XDATA, add(CFA_XSP16, literal(-9)))
        CFI (cfiCond21) VB load(1, XDATA, add(CFA_XSP16, literal(-8)))
        CFI (cfiCond21) V0 load(1, XDATA, add(CFA_XSP16, literal(-7)))
        CFI (cfiCond21) R7 load(1, XDATA, add(CFA_XSP16, literal(-6)))
        CFI (cfiCond21) ?RET_LOW load(1, XDATA, add(CFA_XSP16, literal(-5)))
        CFI (cfiCond21) ?RET_HIGH load(1, XDATA, add(CFA_XSP16, literal(-4)))
        CFI (cfiCond21) ?BRET_EXT load(1, XDATA, add(CFA_XSP16, literal(-3)))
        CFI (cfiCond21) DPL0 load(1, XDATA, add(CFA_XSP16, literal(-2)))
        CFI (cfiCond21) DPH0 load(1, XDATA, add(CFA_XSP16, literal(-1)))
        CFI (cfiCond21) CFA_SP SP+0
        CFI (cfiCond21) CFA_XSP16 add(XSP16, 9)
        CFI Block cfiCond22 Using cfiCommon0
        CFI (cfiCond22) NoFunction
        CFI (cfiCond22) Conditional ??CrossCallReturnLabel_81
        CFI (cfiCond22) R6 load(1, XDATA, add(CFA_XSP16, literal(-9)))
        CFI (cfiCond22) VB load(1, XDATA, add(CFA_XSP16, literal(-8)))
        CFI (cfiCond22) V0 load(1, XDATA, add(CFA_XSP16, literal(-7)))
        CFI (cfiCond22) R7 load(1, XDATA, add(CFA_XSP16, literal(-6)))
        CFI (cfiCond22) ?RET_LOW load(1, XDATA, add(CFA_XSP16, literal(-5)))
        CFI (cfiCond22) ?RET_HIGH load(1, XDATA, add(CFA_XSP16, literal(-4)))
        CFI (cfiCond22) ?BRET_EXT load(1, XDATA, add(CFA_XSP16, literal(-3)))
        CFI (cfiCond22) DPL0 load(1, XDATA, add(CFA_XSP16, literal(-2)))
        CFI (cfiCond22) DPH0 load(1, XDATA, add(CFA_XSP16, literal(-1)))
        CFI (cfiCond22) CFA_SP SP+0
        CFI (cfiCond22) CFA_XSP16 add(XSP16, 9)
        CFI Block cfiPicker23 Using cfiCommon1
        CFI (cfiPicker23) NoFunction
        CFI (cfiPicker23) Picker
        LCALL   ?Subroutine39 & 0xFFFF
??CrossCallReturnLabel_148:
        MOVX    A,@DPTR
        RET
        CFI EndBlock cfiCond19
        CFI EndBlock cfiCond20
        CFI EndBlock cfiCond21
        CFI EndBlock cfiCond22
        CFI EndBlock cfiPicker23
//  196 
//  197 /***************************************************************************************************
//  198  * @fn      MT_AfCommandProcessing
//  199  *
//  200  * @brief   Process all the AF commands that are issued by test tool
//  201  *
//  202  * @param   pBuf - pointer to the received buffer
//  203  *
//  204  * @return  status
//  205  ***************************************************************************************************/

        RSEG BANKED_CODE:CODE:NOROOT(0)
//  206 uint8 MT_AfCommandProcessing(uint8 *pBuf)
MT_AfCommandProcessing:
        CFI Block cfiBlock24 Using cfiCommon0
        CFI Function MT_AfCommandProcessing
        CODE
//  207 {
        FUNCALL MT_AfCommandProcessing, MT_AfRegister
        LOCFRAME ISTACK, 0, STACK
        LOCFRAME PSTACK, 0, STACK
        LOCFRAME XSTACK, 12, STACK
        LOCFRAME IOVERLAY, 0, STATIC
        LOCFRAME DOVERLAY, 0, STATIC
        ARGFRAME ISTACK, 0, STACK
        ARGFRAME PSTACK, 0, STACK
        ARGFRAME XSTACK, 12, STACK
        ARGFRAME IOVERLAY, 0, STATIC
        ARGFRAME DOVERLAY, 0, STATIC
        FUNCALL MT_AfCommandProcessing, MT_AfDataRequest
        LOCFRAME ISTACK, 0, STACK
        LOCFRAME PSTACK, 0, STACK
        LOCFRAME XSTACK, 12, STACK
        LOCFRAME IOVERLAY, 0, STATIC
        LOCFRAME DOVERLAY, 0, STATIC
        ARGFRAME ISTACK, 0, STACK
        ARGFRAME PSTACK, 0, STACK
        ARGFRAME XSTACK, 12, STACK
        ARGFRAME IOVERLAY, 0, STATIC
        ARGFRAME DOVERLAY, 0, STATIC
        FUNCALL MT_AfCommandProcessing, MT_AfDataRequestSrcRtg
        LOCFRAME ISTACK, 0, STACK
        LOCFRAME PSTACK, 0, STACK
        LOCFRAME XSTACK, 12, STACK
        LOCFRAME IOVERLAY, 0, STATIC
        LOCFRAME DOVERLAY, 0, STATIC
        ARGFRAME ISTACK, 0, STACK
        ARGFRAME PSTACK, 0, STACK
        ARGFRAME XSTACK, 12, STACK
        ARGFRAME IOVERLAY, 0, STATIC
        ARGFRAME DOVERLAY, 0, STATIC
        FUNCALL MT_AfCommandProcessing, MT_AfInterPanCtl
        LOCFRAME ISTACK, 0, STACK
        LOCFRAME PSTACK, 0, STACK
        LOCFRAME XSTACK, 12, STACK
        LOCFRAME IOVERLAY, 0, STATIC
        LOCFRAME DOVERLAY, 0, STATIC
        ARGFRAME ISTACK, 0, STACK
        ARGFRAME PSTACK, 0, STACK
        ARGFRAME XSTACK, 12, STACK
        ARGFRAME IOVERLAY, 0, STATIC
        ARGFRAME DOVERLAY, 0, STATIC
        FUNCALL MT_AfCommandProcessing, MT_AfDataRetrieve
        LOCFRAME ISTACK, 0, STACK
        LOCFRAME PSTACK, 0, STACK
        LOCFRAME XSTACK, 12, STACK
        LOCFRAME IOVERLAY, 0, STATIC
        LOCFRAME DOVERLAY, 0, STATIC
        ARGFRAME ISTACK, 0, STACK
        ARGFRAME PSTACK, 0, STACK
        ARGFRAME XSTACK, 12, STACK
        ARGFRAME IOVERLAY, 0, STATIC
        ARGFRAME DOVERLAY, 0, STATIC
        FUNCALL MT_AfCommandProcessing, MT_AfDataStore
        LOCFRAME ISTACK, 0, STACK
        LOCFRAME PSTACK, 0, STACK
        LOCFRAME XSTACK, 12, STACK
        LOCFRAME IOVERLAY, 0, STATIC
        LOCFRAME DOVERLAY, 0, STATIC
        ARGFRAME ISTACK, 0, STACK
        ARGFRAME PSTACK, 0, STACK
        ARGFRAME XSTACK, 12, STACK
        ARGFRAME IOVERLAY, 0, STATIC
        ARGFRAME DOVERLAY, 0, STATIC
        FUNCALL MT_AfCommandProcessing, afAPSF_ConfigSet
        LOCFRAME ISTACK, 0, STACK
        LOCFRAME PSTACK, 0, STACK
        LOCFRAME XSTACK, 12, STACK
        LOCFRAME IOVERLAY, 0, STATIC
        LOCFRAME DOVERLAY, 0, STATIC
        ARGFRAME ISTACK, 0, STACK
        ARGFRAME PSTACK, 0, STACK
        ARGFRAME XSTACK, 12, STACK
        ARGFRAME IOVERLAY, 0, STATIC
        ARGFRAME DOVERLAY, 0, STATIC
        FUNCALL MT_AfCommandProcessing, MT_BuildAndSendZToolResponse
        LOCFRAME ISTACK, 0, STACK
        LOCFRAME PSTACK, 0, STACK
        LOCFRAME XSTACK, 12, STACK
        LOCFRAME IOVERLAY, 0, STATIC
        LOCFRAME DOVERLAY, 0, STATIC
        ARGFRAME ISTACK, 0, STACK
        ARGFRAME PSTACK, 0, STACK
        ARGFRAME XSTACK, 12, STACK
        ARGFRAME IOVERLAY, 0, STATIC
        ARGFRAME DOVERLAY, 0, STATIC
        MOV     A,#-0x9
        LCALL   ?BANKED_ENTER_XDATA
        CFI DPH0 load(1, XDATA, add(CFA_XSP16, literal(-1)))
        CFI DPL0 load(1, XDATA, add(CFA_XSP16, literal(-2)))
        CFI ?BRET_EXT load(1, XDATA, add(CFA_XSP16, literal(-3)))
        CFI ?RET_HIGH load(1, XDATA, add(CFA_XSP16, literal(-4)))
        CFI ?RET_LOW load(1, XDATA, add(CFA_XSP16, literal(-5)))
        CFI R7 load(1, XDATA, add(CFA_XSP16, literal(-6)))
        CFI V0 load(1, XDATA, add(CFA_XSP16, literal(-7)))
        CFI VB load(1, XDATA, add(CFA_XSP16, literal(-8)))
        CFI R6 load(1, XDATA, add(CFA_XSP16, literal(-9)))
        CFI CFA_SP SP+0
        CFI CFA_XSP16 add(XSP16, 9)
        ; Saved register size: 9
        ; Auto size: 3
        MOV     A,#-0x3
        LCALL   ?ALLOC_XSTACK8
        CFI CFA_XSP16 add(XSP16, 12)
        MOV     A,R2
        MOV     R0,A
        MOV     A,R3
        MOV     R1,A
//  208   uint8 status = MT_RPC_SUCCESS;
        MOV     R6,#0x0
//  209 
//  210   switch (pBuf[MT_RPC_POS_CMD1])
        MOV     DPL,R0
        MOV     DPH,R1
        INC     DPTR
        INC     DPTR
        MOVX    A,@DPTR
        JZ      ??MT_AfCommandProcessing_0
        DEC     A
        JZ      ??MT_AfCommandProcessing_1
        DEC     A
        JZ      ??MT_AfCommandProcessing_1
        DEC     A
        JZ      ??MT_AfCommandProcessing_2
        ADD     A,#-0xd
        JZ      ??MT_AfCommandProcessing_3
        DEC     A
        JZ      ??MT_AfCommandProcessing_4
        DEC     A
        JZ      ??MT_AfCommandProcessing_5
        DEC     A
        JZ      ??MT_AfCommandProcessing_6
        SJMP    ??MT_AfCommandProcessing_7
//  211   {
//  212     case MT_AF_REGISTER:
//  213       MT_AfRegister(pBuf);
??MT_AfCommandProcessing_0:
        ; Setup parameters for call to function MT_AfRegister
        LCALL   ??MT_AfRegister?relay
//  214       break;
        SJMP    ??MT_AfCommandProcessing_8
//  215 
//  216     case MT_AF_DATA_REQUEST:
//  217     case MT_AF_DATA_REQUEST_EXT:
//  218       MT_AfDataRequest(pBuf);
??MT_AfCommandProcessing_1:
        ; Setup parameters for call to function MT_AfDataRequest
        LCALL   ??MT_AfDataRequest?relay
//  219       break;
        SJMP    ??MT_AfCommandProcessing_8
//  220 
//  221 #if defined ( ZIGBEE_SOURCE_ROUTING )
//  222     case MT_AF_DATA_REQUEST_SRCRTG:
//  223       MT_AfDataRequestSrcRtg(pBuf);
??MT_AfCommandProcessing_2:
        ; Setup parameters for call to function MT_AfDataRequestSrcRtg
        LCALL   ??MT_AfDataRequestSrcRtg?relay
//  224       break;
        SJMP    ??MT_AfCommandProcessing_8
//  225 #endif
//  226 
//  227 #if defined INTER_PAN
//  228     case MT_AF_INTER_PAN_CTL:
//  229       MT_AfInterPanCtl(pBuf);
??MT_AfCommandProcessing_3:
        ; Setup parameters for call to function MT_AfInterPanCtl
        LCALL   ??MT_AfInterPanCtl?relay
//  230       break;
        SJMP    ??MT_AfCommandProcessing_8
//  231 #endif
//  232 
//  233     case MT_AF_DATA_RETRIEVE:
//  234       MT_AfDataRetrieve(pBuf);
??MT_AfCommandProcessing_5:
        ; Setup parameters for call to function MT_AfDataRetrieve
        LCALL   ??MT_AfDataRetrieve?relay
//  235       break;
        SJMP    ??MT_AfCommandProcessing_8
//  236 
//  237     case MT_AF_DATA_STORE:
//  238       MT_AfDataStore(pBuf);
??MT_AfCommandProcessing_4:
        ; Setup parameters for call to function MT_AfDataStore
        LCALL   ??MT_AfDataStore?relay
//  239       break;
        SJMP    ??MT_AfCommandProcessing_8
//  240 
//  241     case MT_AF_APSF_CONFIG_SET:
//  242       MT_AfAPSF_ConfigSet(pBuf);
??MT_AfCommandProcessing_6:
        MOV     DPL,R0
        MOV     DPH,R1
        INC     DPTR
        INC     DPTR
        INC     DPTR
        INC     DPTR
        MOVX    A,@DPTR
        PUSH    A
        CFI CFA_SP SP+-1
        MOV     A,#0x1
        LCALL   ?XSTACK_DISP0_8
        POP     A
        CFI CFA_SP SP+0
        MOVX    @DPTR,A
        MOV     DPL,R0
        MOV     DPH,R1
        INC     DPTR
        INC     DPTR
        INC     DPTR
        INC     DPTR
        INC     DPTR
        MOVX    A,@DPTR
        PUSH    A
        CFI CFA_SP SP+-1
        MOV     A,#0x2
        LCALL   ?XSTACK_DISP0_8
        POP     A
        CFI CFA_SP SP+0
        MOVX    @DPTR,A
        ; Setup parameters for call to function afAPSF_ConfigSet
        MOV     A,#0x1
        LCALL   ?XSTACK_DISP0_8
        MOV     R2,DPL
        MOV     R3,DPH
        MOV     DPL,R0
        MOV     DPH,R1
        INC     DPTR
        INC     DPTR
        INC     DPTR
        MOVX    A,@DPTR
        MOV     R1,A
        LCALL   ??afAPSF_ConfigSet?relay
        MOV     A,R1
        MOV     DPL,?XSP + 0
        MOV     DPH,?XSP + 1
        MOVX    @DPTR,A
        ; Setup parameters for call to function MT_BuildAndSendZToolResponse
        MOV     R4,DPL
        MOV     R5,DPH
        MOV     R3,#0x1
        MOV     R2,#0x13
        MOV     R1,#0x64
        LCALL   ??MT_BuildAndSendZToolResponse?relay
//  243       break;
        SJMP    ??MT_AfCommandProcessing_8
//  244 
//  245     default:
//  246       status = MT_RPC_ERR_COMMAND_ID;
??MT_AfCommandProcessing_7:
        INC     R6
        INC     R6
//  247       break;
//  248   }
//  249 
//  250   return status;
??MT_AfCommandProcessing_8:
        MOV     A,R6
        MOV     R1,A
        MOV     A,#0x3
        LCALL   ?DEALLOC_XSTACK8
        CFI CFA_XSP16 add(XSP16, 9)
        LJMP    ?Subroutine0 & 0xFFFF
        CFI EndBlock cfiBlock24
//  251 }
//  252 
//  253 /***************************************************************************************************
//  254  * @fn      MT_AfRegister
//  255  *
//  256  * @brief   Process AF Register command
//  257  *
//  258  * @param   pBuf - pointer to the received buffer
//  259  *
//  260  * @return  none
//  261  ***************************************************************************************************/

        RSEG BANKED_CODE:CODE:NOROOT(0)
//  262 void MT_AfRegister(uint8 *pBuf)
MT_AfRegister:
        CFI Block cfiBlock25 Using cfiCommon0
        CFI Function MT_AfRegister
        CODE
//  263 {
        FUNCALL MT_AfRegister, osal_mem_alloc
        LOCFRAME ISTACK, 0, STACK
        LOCFRAME PSTACK, 0, STACK
        LOCFRAME XSTACK, 15, STACK
        LOCFRAME IOVERLAY, 0, STATIC
        LOCFRAME DOVERLAY, 0, STATIC
        ARGFRAME ISTACK, 0, STACK
        ARGFRAME PSTACK, 0, STACK
        ARGFRAME XSTACK, 15, STACK
        ARGFRAME IOVERLAY, 0, STATIC
        ARGFRAME DOVERLAY, 0, STATIC
        FUNCALL MT_AfRegister, MT_BuildEndpointDesc
        LOCFRAME ISTACK, 0, STACK
        LOCFRAME PSTACK, 0, STACK
        LOCFRAME XSTACK, 15, STACK
        LOCFRAME IOVERLAY, 0, STATIC
        LOCFRAME DOVERLAY, 0, STATIC
        ARGFRAME ISTACK, 0, STACK
        ARGFRAME PSTACK, 0, STACK
        ARGFRAME XSTACK, 15, STACK
        ARGFRAME IOVERLAY, 0, STATIC
        ARGFRAME DOVERLAY, 0, STATIC
        FUNCALL MT_AfRegister, afRegister
        LOCFRAME ISTACK, 0, STACK
        LOCFRAME PSTACK, 0, STACK
        LOCFRAME XSTACK, 15, STACK
        LOCFRAME IOVERLAY, 0, STATIC
        LOCFRAME DOVERLAY, 0, STATIC
        ARGFRAME ISTACK, 0, STACK
        ARGFRAME PSTACK, 0, STACK
        ARGFRAME XSTACK, 15, STACK
        ARGFRAME IOVERLAY, 0, STATIC
        ARGFRAME DOVERLAY, 0, STATIC
        FUNCALL MT_AfRegister, osal_mem_free
        LOCFRAME ISTACK, 0, STACK
        LOCFRAME PSTACK, 0, STACK
        LOCFRAME XSTACK, 15, STACK
        LOCFRAME IOVERLAY, 0, STATIC
        LOCFRAME DOVERLAY, 0, STATIC
        ARGFRAME ISTACK, 0, STACK
        ARGFRAME PSTACK, 0, STACK
        ARGFRAME XSTACK, 15, STACK
        ARGFRAME IOVERLAY, 0, STATIC
        ARGFRAME DOVERLAY, 0, STATIC
        FUNCALL MT_AfRegister, MT_BuildAndSendZToolResponse
        LOCFRAME ISTACK, 0, STACK
        LOCFRAME PSTACK, 0, STACK
        LOCFRAME XSTACK, 15, STACK
        LOCFRAME IOVERLAY, 0, STATIC
        LOCFRAME DOVERLAY, 0, STATIC
        ARGFRAME ISTACK, 0, STACK
        ARGFRAME PSTACK, 0, STACK
        ARGFRAME XSTACK, 15, STACK
        ARGFRAME IOVERLAY, 0, STATIC
        ARGFRAME DOVERLAY, 0, STATIC
        MOV     A,#-0xe
        LCALL   ?BANKED_ENTER_XDATA
        CFI DPH0 load(1, XDATA, add(CFA_XSP16, literal(-1)))
        CFI DPL0 load(1, XDATA, add(CFA_XSP16, literal(-2)))
        CFI ?BRET_EXT load(1, XDATA, add(CFA_XSP16, literal(-3)))
        CFI ?RET_HIGH load(1, XDATA, add(CFA_XSP16, literal(-4)))
        CFI ?RET_LOW load(1, XDATA, add(CFA_XSP16, literal(-5)))
        CFI R7 load(1, XDATA, add(CFA_XSP16, literal(-6)))
        CFI V5 load(1, XDATA, add(CFA_XSP16, literal(-7)))
        CFI V4 load(1, XDATA, add(CFA_XSP16, literal(-8)))
        CFI V3 load(1, XDATA, add(CFA_XSP16, literal(-9)))
        CFI V2 load(1, XDATA, add(CFA_XSP16, literal(-10)))
        CFI V1 load(1, XDATA, add(CFA_XSP16, literal(-11)))
        CFI V0 load(1, XDATA, add(CFA_XSP16, literal(-12)))
        CFI VB load(1, XDATA, add(CFA_XSP16, literal(-13)))
        CFI R6 load(1, XDATA, add(CFA_XSP16, literal(-14)))
        CFI CFA_SP SP+0
        CFI CFA_XSP16 add(XSP16, 14)
        ; Saved register size: 14
        ; Auto size: 1
        MOV     A,#-0x1
        LCALL   ?ALLOC_XSTACK8
        CFI CFA_XSP16 add(XSP16, 15)
        MOV     ?V0 + 0,R2
        MOV     ?V0 + 1,R3
//  264   uint8 cmdId;
//  265   uint8 retValue = ZMemError;
        MOV     DPL,?XSP + 0
        MOV     DPH,?XSP + 1
        MOV     A,#0x10
        LCALL   ?Subroutine34 & 0xFFFF
//  266   endPointDesc_t *epDesc;
//  267 
//  268   /* parse header */
//  269   cmdId = pBuf[MT_RPC_POS_CMD1];
??CrossCallReturnLabel_59:
        MOV     ?V0 + 2,A
//  270   pBuf += MT_RPC_FRAME_HDR_SZ;
//  271 
//  272   epDesc = (endPointDesc_t *)osal_mem_alloc(sizeof(endPointDesc_t));
        ; Setup parameters for call to function osal_mem_alloc
        MOV     R2,#0x6
        MOV     R3,#0x0
        LCALL   ??osal_mem_alloc?relay
        MOV     ?V0 + 4,R2
        MOV     ?V0 + 5,R3
        MOV     R6,?V0 + 4
        MOV     R7,?V0 + 5
//  273   if ( epDesc )
        MOV     A,R6
        ORL     A,R7
        JZ      ??MT_AfRegister_0
//  274   {
//  275     epDesc->task_id = &MT_TaskID;
        MOV     DPL,R6
        MOV     DPH,R7
        INC     DPTR
        MOV     A,#MT_TaskID & 0xff
        MOVX    @DPTR,A
        INC     DPTR
        MOV     A,#(MT_TaskID >> 8) & 0xff
        MOVX    @DPTR,A
//  276     retValue = MT_BuildEndpointDesc( pBuf, epDesc );
        ; Setup parameters for call to function MT_BuildEndpointDesc
        MOV     A,R6
        MOV     R4,A
        MOV     A,R7
        MOV     R5,A
        MOV     A,?V0 + 0
        ADD     A,#0x3
        MOV     R2,A
        MOV     A,?V0 + 1
        ADDC    A,#0x0
        MOV     R3,A
        LCALL   ??MT_BuildEndpointDesc?relay
        MOV     A,R1
        MOV     DPL,?XSP + 0
        MOV     DPH,?XSP + 1
        MOVX    @DPTR,A
//  277     if ( retValue == ZSuccess )
        JNZ     ??MT_AfRegister_1
//  278     {
//  279       retValue = afRegister( epDesc );
        ; Setup parameters for call to function afRegister
        MOV     A,R6
        MOV     R2,A
        MOV     A,R7
        MOV     R3,A
        LCALL   ??afRegister?relay
        MOV     A,R1
        MOV     DPL,?XSP + 0
        MOV     DPH,?XSP + 1
        MOVX    @DPTR,A
//  280     }
//  281 
//  282     if ( retValue != ZSuccess )
??MT_AfRegister_1:
        MOVX    A,@DPTR
        JZ      ??MT_AfRegister_0
//  283     {
//  284       osal_mem_free( epDesc );
        ; Setup parameters for call to function osal_mem_free
        MOV     A,R6
        MOV     R2,A
        MOV     A,R7
        MOV     R3,A
        LCALL   ??osal_mem_free?relay
//  285     }
//  286   }
//  287 
//  288   /* Build and send back the response */
//  289   MT_BuildAndSendZToolResponse(((uint8)MT_RPC_CMD_SRSP | (uint8)MT_RPC_SYS_AF), cmdId, 1, &retValue);
??MT_AfRegister_0:
        ; Setup parameters for call to function MT_BuildAndSendZToolResponse
        MOV     DPL,?XSP + 0
        MOV     DPH,?XSP + 1
        MOV     R4,DPL
        MOV     R5,DPH
        MOV     R3,#0x1
        MOV     R2,?V0 + 2
        MOV     R1,#0x64
        LCALL   ??MT_BuildAndSendZToolResponse?relay
//  290 }
        MOV     A,#0x1
        LCALL   ?DEALLOC_XSTACK8
        CFI CFA_XSP16 add(XSP16, 14)
        MOV     R7,#0x6
        LJMP    ?BANKED_LEAVE_XDATA
        CFI EndBlock cfiBlock25
//  291 
//  292 /***************************************************************************************************
//  293  * @fn      MT_AfDataRequest
//  294  *
//  295  * @brief   Process AF Register command
//  296  *
//  297  * @param   pBuf - pointer to the received buffer
//  298  *
//  299  * @return  none
//  300  ***************************************************************************************************/

        RSEG BANKED_CODE:CODE:NOROOT(0)
//  301 void MT_AfDataRequest(uint8 *pBuf)
MT_AfDataRequest:
        CFI Block cfiBlock26 Using cfiCommon0
        CFI Function MT_AfDataRequest
        CODE
//  302 {
        FUNCALL MT_AfDataRequest, osal_memcpy
        LOCFRAME ISTACK, 0, STACK
        LOCFRAME PSTACK, 0, STACK
        LOCFRAME XSTACK, 39, STACK
        LOCFRAME IOVERLAY, 0, STATIC
        LOCFRAME DOVERLAY, 0, STATIC
        ARGFRAME ISTACK, 0, STACK
        ARGFRAME PSTACK, 0, STACK
        ARGFRAME XSTACK, 39, STACK
        ARGFRAME IOVERLAY, 0, STATIC
        ARGFRAME DOVERLAY, 0, STATIC
        FUNCALL MT_AfDataRequest, afFindEndPointDesc
        LOCFRAME ISTACK, 0, STACK
        LOCFRAME PSTACK, 0, STACK
        LOCFRAME XSTACK, 36, STACK
        LOCFRAME IOVERLAY, 0, STATIC
        LOCFRAME DOVERLAY, 0, STATIC
        ARGFRAME ISTACK, 0, STACK
        ARGFRAME PSTACK, 0, STACK
        ARGFRAME XSTACK, 36, STACK
        ARGFRAME IOVERLAY, 0, STATIC
        ARGFRAME DOVERLAY, 0, STATIC
        FUNCALL MT_AfDataRequest, osal_mem_alloc
        LOCFRAME ISTACK, 0, STACK
        LOCFRAME PSTACK, 0, STACK
        LOCFRAME XSTACK, 36, STACK
        LOCFRAME IOVERLAY, 0, STATIC
        LOCFRAME DOVERLAY, 0, STATIC
        ARGFRAME ISTACK, 0, STACK
        ARGFRAME PSTACK, 0, STACK
        ARGFRAME XSTACK, 36, STACK
        ARGFRAME IOVERLAY, 0, STATIC
        ARGFRAME DOVERLAY, 0, STATIC
        FUNCALL MT_AfDataRequest, osal_memcpy
        LOCFRAME ISTACK, 0, STACK
        LOCFRAME PSTACK, 0, STACK
        LOCFRAME XSTACK, 39, STACK
        LOCFRAME IOVERLAY, 0, STATIC
        LOCFRAME DOVERLAY, 0, STATIC
        ARGFRAME ISTACK, 0, STACK
        ARGFRAME PSTACK, 0, STACK
        ARGFRAME XSTACK, 39, STACK
        ARGFRAME IOVERLAY, 0, STATIC
        ARGFRAME DOVERLAY, 0, STATIC
        FUNCALL MT_AfDataRequest, osal_start_timerEx
        LOCFRAME ISTACK, 0, STACK
        LOCFRAME PSTACK, 0, STACK
        LOCFRAME XSTACK, 36, STACK
        LOCFRAME IOVERLAY, 0, STATIC
        LOCFRAME DOVERLAY, 0, STATIC
        ARGFRAME ISTACK, 0, STACK
        ARGFRAME PSTACK, 0, STACK
        ARGFRAME XSTACK, 36, STACK
        ARGFRAME IOVERLAY, 0, STATIC
        ARGFRAME DOVERLAY, 0, STATIC
        FUNCALL MT_AfDataRequest, osal_set_event
        LOCFRAME ISTACK, 0, STACK
        LOCFRAME PSTACK, 0, STACK
        LOCFRAME XSTACK, 36, STACK
        LOCFRAME IOVERLAY, 0, STATIC
        LOCFRAME DOVERLAY, 0, STATIC
        ARGFRAME ISTACK, 0, STACK
        ARGFRAME PSTACK, 0, STACK
        ARGFRAME XSTACK, 36, STACK
        ARGFRAME IOVERLAY, 0, STATIC
        ARGFRAME DOVERLAY, 0, STATIC
        FUNCALL MT_AfDataRequest, AF_DataRequest
        LOCFRAME ISTACK, 0, STACK
        LOCFRAME PSTACK, 0, STACK
        LOCFRAME XSTACK, 45, STACK
        LOCFRAME IOVERLAY, 0, STATIC
        LOCFRAME DOVERLAY, 0, STATIC
        ARGFRAME ISTACK, 0, STACK
        ARGFRAME PSTACK, 0, STACK
        ARGFRAME XSTACK, 45, STACK
        ARGFRAME IOVERLAY, 0, STATIC
        ARGFRAME DOVERLAY, 0, STATIC
        FUNCALL MT_AfDataRequest, MT_BuildAndSendZToolResponse
        LOCFRAME ISTACK, 0, STACK
        LOCFRAME PSTACK, 0, STACK
        LOCFRAME XSTACK, 36, STACK
        LOCFRAME IOVERLAY, 0, STATIC
        LOCFRAME DOVERLAY, 0, STATIC
        ARGFRAME ISTACK, 0, STACK
        ARGFRAME PSTACK, 0, STACK
        ARGFRAME XSTACK, 36, STACK
        ARGFRAME IOVERLAY, 0, STATIC
        ARGFRAME DOVERLAY, 0, STATIC
        MOV     A,#-0x16
        LCALL   ?BANKED_ENTER_XDATA
        CFI DPH0 load(1, XDATA, add(CFA_XSP16, literal(-1)))
        CFI DPL0 load(1, XDATA, add(CFA_XSP16, literal(-2)))
        CFI ?BRET_EXT load(1, XDATA, add(CFA_XSP16, literal(-3)))
        CFI ?RET_HIGH load(1, XDATA, add(CFA_XSP16, literal(-4)))
        CFI ?RET_LOW load(1, XDATA, add(CFA_XSP16, literal(-5)))
        CFI R7 load(1, XDATA, add(CFA_XSP16, literal(-6)))
        CFI V13 load(1, XDATA, add(CFA_XSP16, literal(-7)))
        CFI V12 load(1, XDATA, add(CFA_XSP16, literal(-8)))
        CFI V11 load(1, XDATA, add(CFA_XSP16, literal(-9)))
        CFI V10 load(1, XDATA, add(CFA_XSP16, literal(-10)))
        CFI V9 load(1, XDATA, add(CFA_XSP16, literal(-11)))
        CFI V8 load(1, XDATA, add(CFA_XSP16, literal(-12)))
        CFI V7 load(1, XDATA, add(CFA_XSP16, literal(-13)))
        CFI V6 load(1, XDATA, add(CFA_XSP16, literal(-14)))
        CFI V5 load(1, XDATA, add(CFA_XSP16, literal(-15)))
        CFI V4 load(1, XDATA, add(CFA_XSP16, literal(-16)))
        CFI V3 load(1, XDATA, add(CFA_XSP16, literal(-17)))
        CFI V2 load(1, XDATA, add(CFA_XSP16, literal(-18)))
        CFI V1 load(1, XDATA, add(CFA_XSP16, literal(-19)))
        CFI V0 load(1, XDATA, add(CFA_XSP16, literal(-20)))
        CFI VB load(1, XDATA, add(CFA_XSP16, literal(-21)))
        CFI R6 load(1, XDATA, add(CFA_XSP16, literal(-22)))
        CFI CFA_SP SP+0
        CFI CFA_XSP16 add(XSP16, 22)
        ; Saved register size: 22
        ; Auto size: 14
        MOV     A,#-0xe
        LCALL   ?ALLOC_XSTACK8
        CFI CFA_XSP16 add(XSP16, 36)
//  303   #define MT_AF_REQ_MSG_LEN  10
//  304   #define MT_AF_REQ_MSG_EXT  10
//  305 
//  306   endPointDesc_t *epDesc;
//  307   afAddrType_t dstAddr;
//  308   cId_t cId;
//  309   uint8 transId, txOpts, radius;
//  310   uint8 cmd0, cmd1;
//  311   uint8 retValue = ZFailure;
        MOV     DPL,?XSP + 0
        MOV     DPH,?XSP + 1
        MOV     A,#0x1
        LCALL   ?Subroutine40 & 0xFFFF
//  312   uint16 dataLen, tempLen;
//  313 
//  314   /* Parse header */
//  315   cmd0 = pBuf[MT_RPC_POS_CMD0];
??CrossCallReturnLabel_66:
        MOVX    A,@DPTR
        MOV     ?V0 + 10,A
//  316   cmd1 = pBuf[MT_RPC_POS_CMD1];
        MOV     DPL,R2
        MOV     DPH,R3
        INC     DPTR
        INC     DPTR
        MOVX    A,@DPTR
        MOV     ?V0 + 7,A
//  317   pBuf += MT_RPC_FRAME_HDR_SZ;
        MOV     A,R2
        ADD     A,#0x3
        MOV     ?V0 + 4,A
        MOV     A,R3
        ADDC    A,#0x0
        MOV     ?V0 + 5,A
//  318 
//  319   if (cmd1 == MT_AF_DATA_REQUEST_EXT)
        MOV     A,#0x2
        XRL     A,?V0 + 7
        JNZ     ??MT_AfDataRequest_0
//  320   {
//  321     dstAddr.addrMode = (afAddrMode_t)*pBuf++;
        MOV     DPL,?V0 + 4
        MOV     DPH,?V0 + 5
        MOVX    A,@DPTR
        MOV     R0,A
        MOV     A,#0xa
        LCALL   ?XSTACK_DISP0_8
        MOV     A,R0
        LCALL   ?Subroutine27 & 0xFFFF
//  322 
//  323     if (dstAddr.addrMode == afAddr64Bit)
??CrossCallReturnLabel_34:
        MOV     A,#0x3
        XRL     A,R0
        JNZ     ??MT_AfDataRequest_1
//  324     {
//  325       (void)osal_memcpy(dstAddr.addr.extAddr, pBuf, Z_EXTADDR_LEN);
        ; Setup parameters for call to function osal_memcpy
        MOV     ?V0 + 0,?V0 + 4
        MOV     ?V0 + 1,?V0 + 5
        MOV     ?V0 + 2,#0x0
        MOV     R0,#?V0 + 0
        LCALL   ?PUSH_XSTACK_I_THREE
        CFI CFA_XSP16 add(XSP16, 39)
        MOV     R4,#0x8
        MOV     R5,#0x0
        MOV     A,#0x5
        LCALL   ?XSTACK_DISP0_8
        MOV     R2,DPL
        MOV     R3,DPH
        LCALL   ??Subroutine58_0 & 0xFFFF
//  326     }
??CrossCallReturnLabel_130:
        LCALL   ?DEALLOC_XSTACK8
        CFI CFA_XSP16 add(XSP16, 36)
        SJMP    ??CrossCallReturnLabel_52
//  327     else
//  328     {
//  329       dstAddr.addr.shortAddr = BUILD_UINT16(pBuf[0], pBuf[1]);
??MT_AfDataRequest_1:
        LCALL   ?Subroutine7 & 0xFFFF
//  330     }
??CrossCallReturnLabel_4:
        LCALL   ?XSTACK_DISP0_8
        LCALL   ?Subroutine33 & 0xFFFF
//  331     pBuf += Z_EXTADDR_LEN;
??CrossCallReturnLabel_52:
        MOV     A,?V0 + 4
        ADD     A,#0x8
        LCALL   ??Subroutine50_0 & 0xFFFF
//  332 
//  333     dstAddr.endPoint = *pBuf++;
??CrossCallReturnLabel_87:
        PUSH    A
        CFI CFA_SP SP+-1
        MOV     A,#0xb
        LCALL   ?XSTACK_DISP0_8
        POP     A
        CFI CFA_SP SP+0
        LCALL   ?Subroutine27 & 0xFFFF
//  334     dstAddr.panId = BUILD_UINT16(pBuf[0], pBuf[1]);
??CrossCallReturnLabel_35:
        LCALL   ?Subroutine38 & 0xFFFF
??CrossCallReturnLabel_63:
        MOV     R0,A
        MOV     A,#0xc
        LCALL   ?XSTACK_DISP0_8
        LCALL   ?Subroutine33 & 0xFFFF
//  335     pBuf += 2;
??CrossCallReturnLabel_53:
        LCALL   ?Subroutine36 & 0xFFFF
//  336   }
??CrossCallReturnLabel_61:
        SJMP    ??MT_AfDataRequest_2
//  337   else
//  338   {
//  339     /* Destination address */
//  340     dstAddr.addrMode = afAddr16Bit;
??MT_AfDataRequest_0:
        MOV     A,#0xa
        LCALL   ?XSTACK_DISP0_8
        MOV     A,#0x2
        MOVX    @DPTR,A
//  341     dstAddr.addr.shortAddr = BUILD_UINT16(pBuf[0], pBuf[1]);
        MOV     DPL,?V0 + 4
        MOV     DPH,?V0 + 5
        LCALL   ?Subroutine7 & 0xFFFF
??CrossCallReturnLabel_5:
        LCALL   ?XSTACK_DISP0_8
        LCALL   ?Subroutine33 & 0xFFFF
//  342     pBuf += 2;
??CrossCallReturnLabel_54:
        LCALL   ?Subroutine19 & 0xFFFF
//  343 
//  344     /* Destination endpoint */
//  345     dstAddr.endPoint = *pBuf++;
??CrossCallReturnLabel_85:
        PUSH    A
        CFI CFA_SP SP+-1
        MOV     A,#0xb
        LCALL   ?XSTACK_DISP0_8
        POP     A
        CFI CFA_SP SP+0
        LCALL   ?Subroutine27 & 0xFFFF
//  346     dstAddr.panId = 0;
??CrossCallReturnLabel_36:
        MOV     A,#0xc
        LCALL   ?XSTACK_DISP0_8
        CLR     A
        MOVX    @DPTR,A
        INC     DPTR
        MOVX    @DPTR,A
//  347   }
//  348 
//  349   /* Source endpoint */
//  350   epDesc = afFindEndPointDesc(*pBuf++);
??MT_AfDataRequest_2:
        ; Setup parameters for call to function afFindEndPointDesc
        MOV     DPL,?V0 + 4
        MOV     DPH,?V0 + 5
        MOVX    A,@DPTR
        MOV     R1,A
        LCALL   ??afFindEndPointDesc?relay
        MOV     ?V0 + 8,R2
        MOV     ?V0 + 9,R3
        MOV     DPL,?V0 + 4
        MOV     DPH,?V0 + 5
        INC     DPTR
        MOV     ?V0 + 4,DPL
        MOV     ?V0 + 5,DPH
//  351 
//  352   /* ClusterId */
//  353   cId = BUILD_UINT16(pBuf[0], pBuf[1]);
        LCALL   ?Subroutine6 & 0xFFFF
??CrossCallReturnLabel_0:
        MOV     ?V0 + 0,A
        CLR     A
        ADDC    A,R1
        MOV     ?V0 + 1,A
//  354   pBuf +=2;
        LCALL   ?Subroutine19 & 0xFFFF
//  355 
//  356   /* TransId */
//  357   transId = *pBuf++;
??CrossCallReturnLabel_86:
        PUSH    A
        CFI CFA_SP SP+-1
        MOV     A,#0x1
        LCALL   ?XSTACK_DISP0_8
        POP     A
        CFI CFA_SP SP+0
        LCALL   ?Subroutine42 & 0xFFFF
//  358 
//  359   /* TxOption */
//  360   txOpts = *pBuf++;
??CrossCallReturnLabel_69:
        LCALL   ?Subroutine11 & 0xFFFF
//  361 
//  362   /* Radius */
//  363   radius = *pBuf++;
??CrossCallReturnLabel_14:
        INC     DPTR
        MOV     ?V0 + 4,DPL
        MOV     ?V0 + 5,DPH
//  364 
//  365   /* Length */
//  366   if (cmd1 == MT_AF_DATA_REQUEST_EXT)
        MOV     A,#0x2
        XRL     A,?V0 + 7
        JNZ     ??MT_AfDataRequest_3
//  367   {
//  368     dataLen = BUILD_UINT16(pBuf[0], pBuf[1]);
        LCALL   ?Subroutine6 & 0xFFFF
??CrossCallReturnLabel_1:
        MOV     R6,A
        CLR     A
        ADDC    A,R1
        MOV     R7,A
//  369     tempLen = dataLen + MT_AF_REQ_MSG_LEN + MT_AF_REQ_MSG_EXT;
        MOV     A,R6
        ADD     A,#0x14
        MOV     R0,A
        MOV     A,R7
        ADDC    A,#0x0
        MOV     R1,A
//  370     pBuf += 2;
        LCALL   ?Subroutine36 & 0xFFFF
//  371   }
??CrossCallReturnLabel_62:
        SJMP    ??MT_AfDataRequest_4
//  372   else
//  373   {
//  374     dataLen = *pBuf++;
??MT_AfDataRequest_3:
        MOVX    A,@DPTR
        MOV     R6,A
        MOV     R7,#0x0
        INC     DPTR
        MOV     ?V0 + 4,DPL
        MOV     ?V0 + 5,DPH
//  375     tempLen = dataLen + MT_AF_REQ_MSG_LEN;
        ADD     A,#0xa
        MOV     R0,A
        CLR     A
        ADDC    A,#0x0
        MOV     R1,A
//  376   }
//  377 
//  378   if ( epDesc == NULL )
??MT_AfDataRequest_4:
        MOV     A,?V0 + 8
        ORL     A,?V0 + 9
        JNZ     ??MT_AfDataRequest_5
//  379   {
//  380     retValue = afStatus_INVALID_PARAMETER;
??MT_AfDataRequest_6:
        MOV     DPL,?XSP + 0
        MOV     DPH,?XSP + 1
        MOV     A,#0x2
        LJMP    ??MT_AfDataRequest_7 & 0xFFFF
//  381   }
//  382   else if (tempLen > (uint16)MT_RPC_DATA_MAX)
??MT_AfDataRequest_5:
        CLR     C
        MOV     A,R0
        SUBB    A,#-0x5
        MOV     A,R1
        SUBB    A,#0x0
        JNC     $+5
        LJMP    ??MT_AfDataRequest_8 & 0xFFFF
//  383   {
//  384     if (pMtAfDataReq != NULL)
        LCALL   ?Subroutine3 & 0xFFFF
??CrossCallReturnLabel_94:
        JNZ     ??MT_AfDataRequest_6
//  385     {
//  386       retValue = afStatus_INVALID_PARAMETER;
//  387     }
//  388     else if ((pMtAfDataReq = osal_mem_alloc(sizeof(mtAfDataReq_t) + dataLen)) == NULL)
        ; Setup parameters for call to function osal_mem_alloc
        MOV     A,R6
        ADD     A,#0x18
        LCALL   ?Subroutine23 & 0xFFFF
??CrossCallReturnLabel_82:
        MOV     DPTR,#pMtAfDataReq
        MOV     A,R2
        MOVX    @DPTR,A
        INC     DPTR
        MOV     A,R3
        MOVX    @DPTR,A
        LCALL   ?Subroutine3 & 0xFFFF
??CrossCallReturnLabel_95:
        MOV     DPL,?XSP + 0
        MOV     DPH,?XSP + 1
        JNZ     ??MT_AfDataRequest_9
//  389     {
//  390       retValue = afStatus_MEM_FAIL;
        MOV     A,#0x10
        LJMP    ??MT_AfDataRequest_7 & 0xFFFF
//  391     }
//  392     else
//  393     {
//  394       retValue = afStatus_SUCCESS;
??MT_AfDataRequest_9:
        CLR     A
        LCALL   ?Subroutine29 & 0xFFFF
//  395 
//  396       pMtAfDataReq->data = (uint8 *)(pMtAfDataReq+1);
??CrossCallReturnLabel_40:
        ADD     A,#0x18
        MOV     R2,A
        INC     DPTR
        MOVX    A,@DPTR
        ADDC    A,#0x0
        MOV     R3,A
        LCALL   ?Subroutine10 & 0xFFFF
??CrossCallReturnLabel_11:
        MOV     A,R2
        MOVX    @DPTR,A
        INC     DPTR
        MOV     A,R3
        MOVX    @DPTR,A
//  397       (void)osal_memcpy(&(pMtAfDataReq->dstAddr), &dstAddr, sizeof(afAddrType_t));
        ; Setup parameters for call to function osal_memcpy
        MOV     A,#0x2
        LCALL   ?XSTACK_DISP0_8
        MOV     R1,DPL
        MOV     R2,DPH
        MOV     ?V0 + 4,R1
        MOV     ?V0 + 5,R2
        MOV     ?V0 + 6,#0x0
        MOV     R0,#?V0 + 4
        LCALL   ?PUSH_XSTACK_I_THREE
        CFI CFA_XSP16 add(XSP16, 39)
        MOV     R4,#0xc
        MOV     R5,#0x0
        LCALL   ?Subroutine13 & 0xFFFF
??CrossCallReturnLabel_17:
        LCALL   ??Subroutine58_0 & 0xFFFF
??CrossCallReturnLabel_131:
        LCALL   ?DEALLOC_XSTACK8
        CFI CFA_XSP16 add(XSP16, 36)
//  398       pMtAfDataReq->epDesc = epDesc;
        MOV     DPTR,#pMtAfDataReq
        MOVX    A,@DPTR
        ADD     A,#0xe
        LCALL   ??Subroutine60_0 & 0xFFFF
??CrossCallReturnLabel_139:
        MOV     A,?V0 + 8
        MOVX    @DPTR,A
        INC     DPTR
        MOV     A,?V0 + 9
        MOVX    @DPTR,A
//  399       pMtAfDataReq->cId = cId;
        LCALL   ?Subroutine5 & 0xFFFF
??CrossCallReturnLabel_146:
        MOV     A,?V0 + 0
        MOVX    @DPTR,A
        INC     DPTR
        MOV     A,?V0 + 1
        LCALL   ?Subroutine29 & 0xFFFF
//  400       pMtAfDataReq->dataLen = dataLen;
??CrossCallReturnLabel_41:
        ADD     A,#0x12
        LCALL   ??Subroutine60_0 & 0xFFFF
??CrossCallReturnLabel_140:
        MOV     A,R6
        MOVX    @DPTR,A
        INC     DPTR
        MOV     A,R7
        MOVX    @DPTR,A
//  401       pMtAfDataReq->transId = transId;
        MOV     A,#0x1
        LCALL   ?XSTACK_DISP0_8
        MOVX    A,@DPTR
        PUSH    A
        CFI CFA_SP SP+-1
        MOV     DPTR,#pMtAfDataReq
        MOVX    A,@DPTR
        ADD     A,#0x14
        LCALL   ??Subroutine60_0 & 0xFFFF
??CrossCallReturnLabel_141:
        POP     A
        CFI CFA_SP SP+0
        LCALL   ?Subroutine29 & 0xFFFF
//  402       pMtAfDataReq->txOpts = txOpts;
??CrossCallReturnLabel_42:
        ADD     A,#0x15
        LCALL   ??Subroutine60_0 & 0xFFFF
??CrossCallReturnLabel_142:
        MOV     A,?V0 + 2
        LCALL   ?Subroutine29 & 0xFFFF
//  403       pMtAfDataReq->radius = radius;
??CrossCallReturnLabel_43:
        ADD     A,#0x16
        LCALL   ??Subroutine60_0 & 0xFFFF
??CrossCallReturnLabel_143:
        MOV     A,?V0 + 3
        LCALL   ?Subroutine29 & 0xFFFF
//  404 
//  405       // Setup to time-out the huge outgoing item if host does not MT_AF_DATA_STORE it.
//  406       pMtAfDataReq->tick = MT_AF_EXEC_CNT;
??CrossCallReturnLabel_44:
        ADD     A,#0x17
        LCALL   ??Subroutine60_0 & 0xFFFF
??CrossCallReturnLabel_144:
        LCALL   ?Subroutine12 & 0xFFFF
//  407       if (ZSuccess != osal_start_timerEx(MT_TaskID, MT_AF_EXEC_EVT, MT_AF_EXEC_DLY))
??CrossCallReturnLabel_88:
        JZ      ??MT_AfDataRequest_10
//  408       {
//  409         (void)osal_set_event(MT_TaskID, MT_AF_EXEC_EVT);
        ; Setup parameters for call to function osal_set_event
        LCALL   ?Subroutine17 & 0xFFFF
//  410       }
//  411     }
//  412   }
??CrossCallReturnLabel_24:
        SJMP    ??MT_AfDataRequest_10
//  413   else
//  414   {
//  415     retValue = AF_DataRequest(&dstAddr, epDesc, cId, dataLen, pBuf, &transId, txOpts, radius);
??MT_AfDataRequest_8:
        ; Setup parameters for call to function AF_DataRequest
        MOV     R0,#?V0 + 3
        LCALL   ?PUSH_XSTACK_I_ONE
        CFI CFA_XSP16 add(XSP16, 37)
        MOV     A,#0x2
        LCALL   ?XSTACK_DISP0_8
        MOV     ?V0 + 12,DPL
        MOV     ?V0 + 13,DPH
        MOV     R0,#?V0 + 12
        LCALL   ?PUSH_XSTACK_I_TWO
        CFI CFA_XSP16 add(XSP16, 39)
        MOV     R0,#?V0 + 4
        LCALL   ?PUSH_XSTACK_I_TWO
        CFI CFA_XSP16 add(XSP16, 41)
        MOV     ?V0 + 4,R6
        MOV     ?V0 + 5,R7
        MOV     R0,#?V0 + 4
        LCALL   ?PUSH_XSTACK_I_TWO
        CFI CFA_XSP16 add(XSP16, 43)
        MOV     R0,#?V0 + 0
        LCALL   ?PUSH_XSTACK_I_TWO
        CFI CFA_XSP16 add(XSP16, 45)
        MOV     R1,?V0 + 2
        MOV     R4,?V0 + 8
        MOV     R5,?V0 + 9
        MOV     A,#0xb
        LCALL   ?XSTACK_DISP0_8
        MOV     R2,DPL
        MOV     R3,DPH
        LCALL   ??AF_DataRequest?relay
        MOV     A,#0x9
        LCALL   ?DEALLOC_XSTACK8
        CFI CFA_XSP16 add(XSP16, 36)
        MOV     A,R1
        MOV     DPL,?XSP + 0
        MOV     DPH,?XSP + 1
??MT_AfDataRequest_7:
        MOVX    @DPTR,A
//  416   }
//  417 
//  418   if (MT_RPC_CMD_SREQ == (cmd0 & MT_RPC_CMD_TYPE_MASK))
??MT_AfDataRequest_10:
        MOV     A,#-0x20
        ANL     A,?V0 + 10
        XRL     A,#0x20
        JNZ     ??MT_AfDataRequest_11
//  419   {
//  420     MT_BuildAndSendZToolResponse(((uint8)MT_RPC_CMD_SRSP|(uint8)MT_RPC_SYS_AF), cmd1, 1, &retValue);
        ; Setup parameters for call to function MT_BuildAndSendZToolResponse
        MOV     DPL,?XSP + 0
        MOV     DPH,?XSP + 1
        MOV     R4,DPL
        MOV     R5,DPH
        MOV     R3,#0x1
        MOV     R2,?V0 + 7
        MOV     R1,#0x64
        LCALL   ??MT_BuildAndSendZToolResponse?relay
//  421   }
//  422 }
??MT_AfDataRequest_11:
        MOV     A,#0xe
        LCALL   ?DEALLOC_XSTACK8
        CFI CFA_XSP16 add(XSP16, 22)
        MOV     R7,#0xe
        LJMP    ?BANKED_LEAVE_XDATA
        CFI EndBlock cfiBlock26

        RSEG BANKED_CODE:CODE:NOROOT(0)
?Subroutine36:
        CFI Block cfiCond27 Using cfiCommon0
        CFI NoFunction
        CFI Conditional ??CrossCallReturnLabel_61
        CFI R6 load(1, XDATA, add(CFA_XSP16, literal(-22)))
        CFI VB load(1, XDATA, add(CFA_XSP16, literal(-21)))
        CFI V0 load(1, XDATA, add(CFA_XSP16, literal(-20)))
        CFI V1 load(1, XDATA, add(CFA_XSP16, literal(-19)))
        CFI V2 load(1, XDATA, add(CFA_XSP16, literal(-18)))
        CFI V3 load(1, XDATA, add(CFA_XSP16, literal(-17)))
        CFI V4 load(1, XDATA, add(CFA_XSP16, literal(-16)))
        CFI V5 load(1, XDATA, add(CFA_XSP16, literal(-15)))
        CFI V6 load(1, XDATA, add(CFA_XSP16, literal(-14)))
        CFI V7 load(1, XDATA, add(CFA_XSP16, literal(-13)))
        CFI V8 load(1, XDATA, add(CFA_XSP16, literal(-12)))
        CFI V9 load(1, XDATA, add(CFA_XSP16, literal(-11)))
        CFI V10 load(1, XDATA, add(CFA_XSP16, literal(-10)))
        CFI V11 load(1, XDATA, add(CFA_XSP16, literal(-9)))
        CFI V12 load(1, XDATA, add(CFA_XSP16, literal(-8)))
        CFI V13 load(1, XDATA, add(CFA_XSP16, literal(-7)))
        CFI R7 load(1, XDATA, add(CFA_XSP16, literal(-6)))
        CFI ?RET_LOW load(1, XDATA, add(CFA_XSP16, literal(-5)))
        CFI ?RET_HIGH load(1, XDATA, add(CFA_XSP16, literal(-4)))
        CFI ?BRET_EXT load(1, XDATA, add(CFA_XSP16, literal(-3)))
        CFI DPL0 load(1, XDATA, add(CFA_XSP16, literal(-2)))
        CFI DPH0 load(1, XDATA, add(CFA_XSP16, literal(-1)))
        CFI CFA_SP SP+0
        CFI CFA_XSP16 add(XSP16, 36)
        CFI Block cfiCond28 Using cfiCommon0
        CFI (cfiCond28) NoFunction
        CFI (cfiCond28) Conditional ??CrossCallReturnLabel_62
        CFI (cfiCond28) R6 load(1, XDATA, add(CFA_XSP16, literal(-22)))
        CFI (cfiCond28) VB load(1, XDATA, add(CFA_XSP16, literal(-21)))
        CFI (cfiCond28) V0 load(1, XDATA, add(CFA_XSP16, literal(-20)))
        CFI (cfiCond28) V1 load(1, XDATA, add(CFA_XSP16, literal(-19)))
        CFI (cfiCond28) V2 load(1, XDATA, add(CFA_XSP16, literal(-18)))
        CFI (cfiCond28) V3 load(1, XDATA, add(CFA_XSP16, literal(-17)))
        CFI (cfiCond28) V4 load(1, XDATA, add(CFA_XSP16, literal(-16)))
        CFI (cfiCond28) V5 load(1, XDATA, add(CFA_XSP16, literal(-15)))
        CFI (cfiCond28) V6 load(1, XDATA, add(CFA_XSP16, literal(-14)))
        CFI (cfiCond28) V7 load(1, XDATA, add(CFA_XSP16, literal(-13)))
        CFI (cfiCond28) V8 load(1, XDATA, add(CFA_XSP16, literal(-12)))
        CFI (cfiCond28) V9 load(1, XDATA, add(CFA_XSP16, literal(-11)))
        CFI (cfiCond28) V10 load(1, XDATA, add(CFA_XSP16, literal(-10)))
        CFI (cfiCond28) V11 load(1, XDATA, add(CFA_XSP16, literal(-9)))
        CFI (cfiCond28) V12 load(1, XDATA, add(CFA_XSP16, literal(-8)))
        CFI (cfiCond28) V13 load(1, XDATA, add(CFA_XSP16, literal(-7)))
        CFI (cfiCond28) R7 load(1, XDATA, add(CFA_XSP16, literal(-6)))
        CFI (cfiCond28) ?RET_LOW load(1, XDATA, add(CFA_XSP16, literal(-5)))
        CFI (cfiCond28) ?RET_HIGH load(1, XDATA, add(CFA_XSP16, literal(-4)))
        CFI (cfiCond28) ?BRET_EXT load(1, XDATA, add(CFA_XSP16, literal(-3)))
        CFI (cfiCond28) DPL0 load(1, XDATA, add(CFA_XSP16, literal(-2)))
        CFI (cfiCond28) DPH0 load(1, XDATA, add(CFA_XSP16, literal(-1)))
        CFI (cfiCond28) CFA_SP SP+0
        CFI (cfiCond28) CFA_XSP16 add(XSP16, 36)
        CFI Block cfiPicker29 Using cfiCommon1
        CFI (cfiPicker29) NoFunction
        CFI (cfiPicker29) Picker
        MOV     A,?V0 + 4
        ADD     A,#0x2
        MOV     ?V0 + 4,A
        MOV     A,?V0 + 5
        ADDC    A,#0x0
        MOV     ?V0 + 5,A
        RET
        CFI EndBlock cfiCond27
        CFI EndBlock cfiCond28
        CFI EndBlock cfiPicker29

        RSEG BANKED_CODE:CODE:NOROOT(0)
?Subroutine29:
        CFI Block cfiCond30 Using cfiCommon0
        CFI NoFunction
        CFI Conditional ??CrossCallReturnLabel_40
        CFI R6 load(1, XDATA, add(CFA_XSP16, literal(-22)))
        CFI VB load(1, XDATA, add(CFA_XSP16, literal(-21)))
        CFI V0 load(1, XDATA, add(CFA_XSP16, literal(-20)))
        CFI V1 load(1, XDATA, add(CFA_XSP16, literal(-19)))
        CFI V2 load(1, XDATA, add(CFA_XSP16, literal(-18)))
        CFI V3 load(1, XDATA, add(CFA_XSP16, literal(-17)))
        CFI V4 load(1, XDATA, add(CFA_XSP16, literal(-16)))
        CFI V5 load(1, XDATA, add(CFA_XSP16, literal(-15)))
        CFI V6 load(1, XDATA, add(CFA_XSP16, literal(-14)))
        CFI V7 load(1, XDATA, add(CFA_XSP16, literal(-13)))
        CFI V8 load(1, XDATA, add(CFA_XSP16, literal(-12)))
        CFI V9 load(1, XDATA, add(CFA_XSP16, literal(-11)))
        CFI V10 load(1, XDATA, add(CFA_XSP16, literal(-10)))
        CFI V11 load(1, XDATA, add(CFA_XSP16, literal(-9)))
        CFI V12 load(1, XDATA, add(CFA_XSP16, literal(-8)))
        CFI V13 load(1, XDATA, add(CFA_XSP16, literal(-7)))
        CFI R7 load(1, XDATA, add(CFA_XSP16, literal(-6)))
        CFI ?RET_LOW load(1, XDATA, add(CFA_XSP16, literal(-5)))
        CFI ?RET_HIGH load(1, XDATA, add(CFA_XSP16, literal(-4)))
        CFI ?BRET_EXT load(1, XDATA, add(CFA_XSP16, literal(-3)))
        CFI DPL0 load(1, XDATA, add(CFA_XSP16, literal(-2)))
        CFI DPH0 load(1, XDATA, add(CFA_XSP16, literal(-1)))
        CFI CFA_SP SP+0
        CFI CFA_XSP16 add(XSP16, 36)
        CFI Block cfiCond31 Using cfiCommon0
        CFI (cfiCond31) NoFunction
        CFI (cfiCond31) Conditional ??CrossCallReturnLabel_41
        CFI (cfiCond31) R6 load(1, XDATA, add(CFA_XSP16, literal(-22)))
        CFI (cfiCond31) VB load(1, XDATA, add(CFA_XSP16, literal(-21)))
        CFI (cfiCond31) V0 load(1, XDATA, add(CFA_XSP16, literal(-20)))
        CFI (cfiCond31) V1 load(1, XDATA, add(CFA_XSP16, literal(-19)))
        CFI (cfiCond31) V2 load(1, XDATA, add(CFA_XSP16, literal(-18)))
        CFI (cfiCond31) V3 load(1, XDATA, add(CFA_XSP16, literal(-17)))
        CFI (cfiCond31) V4 load(1, XDATA, add(CFA_XSP16, literal(-16)))
        CFI (cfiCond31) V5 load(1, XDATA, add(CFA_XSP16, literal(-15)))
        CFI (cfiCond31) V6 load(1, XDATA, add(CFA_XSP16, literal(-14)))
        CFI (cfiCond31) V7 load(1, XDATA, add(CFA_XSP16, literal(-13)))
        CFI (cfiCond31) V8 load(1, XDATA, add(CFA_XSP16, literal(-12)))
        CFI (cfiCond31) V9 load(1, XDATA, add(CFA_XSP16, literal(-11)))
        CFI (cfiCond31) V10 load(1, XDATA, add(CFA_XSP16, literal(-10)))
        CFI (cfiCond31) V11 load(1, XDATA, add(CFA_XSP16, literal(-9)))
        CFI (cfiCond31) V12 load(1, XDATA, add(CFA_XSP16, literal(-8)))
        CFI (cfiCond31) V13 load(1, XDATA, add(CFA_XSP16, literal(-7)))
        CFI (cfiCond31) R7 load(1, XDATA, add(CFA_XSP16, literal(-6)))
        CFI (cfiCond31) ?RET_LOW load(1, XDATA, add(CFA_XSP16, literal(-5)))
        CFI (cfiCond31) ?RET_HIGH load(1, XDATA, add(CFA_XSP16, literal(-4)))
        CFI (cfiCond31) ?BRET_EXT load(1, XDATA, add(CFA_XSP16, literal(-3)))
        CFI (cfiCond31) DPL0 load(1, XDATA, add(CFA_XSP16, literal(-2)))
        CFI (cfiCond31) DPH0 load(1, XDATA, add(CFA_XSP16, literal(-1)))
        CFI (cfiCond31) CFA_SP SP+0
        CFI (cfiCond31) CFA_XSP16 add(XSP16, 36)
        CFI Block cfiCond32 Using cfiCommon0
        CFI (cfiCond32) NoFunction
        CFI (cfiCond32) Conditional ??CrossCallReturnLabel_42
        CFI (cfiCond32) R6 load(1, XDATA, add(CFA_XSP16, literal(-22)))
        CFI (cfiCond32) VB load(1, XDATA, add(CFA_XSP16, literal(-21)))
        CFI (cfiCond32) V0 load(1, XDATA, add(CFA_XSP16, literal(-20)))
        CFI (cfiCond32) V1 load(1, XDATA, add(CFA_XSP16, literal(-19)))
        CFI (cfiCond32) V2 load(1, XDATA, add(CFA_XSP16, literal(-18)))
        CFI (cfiCond32) V3 load(1, XDATA, add(CFA_XSP16, literal(-17)))
        CFI (cfiCond32) V4 load(1, XDATA, add(CFA_XSP16, literal(-16)))
        CFI (cfiCond32) V5 load(1, XDATA, add(CFA_XSP16, literal(-15)))
        CFI (cfiCond32) V6 load(1, XDATA, add(CFA_XSP16, literal(-14)))
        CFI (cfiCond32) V7 load(1, XDATA, add(CFA_XSP16, literal(-13)))
        CFI (cfiCond32) V8 load(1, XDATA, add(CFA_XSP16, literal(-12)))
        CFI (cfiCond32) V9 load(1, XDATA, add(CFA_XSP16, literal(-11)))
        CFI (cfiCond32) V10 load(1, XDATA, add(CFA_XSP16, literal(-10)))
        CFI (cfiCond32) V11 load(1, XDATA, add(CFA_XSP16, literal(-9)))
        CFI (cfiCond32) V12 load(1, XDATA, add(CFA_XSP16, literal(-8)))
        CFI (cfiCond32) V13 load(1, XDATA, add(CFA_XSP16, literal(-7)))
        CFI (cfiCond32) R7 load(1, XDATA, add(CFA_XSP16, literal(-6)))
        CFI (cfiCond32) ?RET_LOW load(1, XDATA, add(CFA_XSP16, literal(-5)))
        CFI (cfiCond32) ?RET_HIGH load(1, XDATA, add(CFA_XSP16, literal(-4)))
        CFI (cfiCond32) ?BRET_EXT load(1, XDATA, add(CFA_XSP16, literal(-3)))
        CFI (cfiCond32) DPL0 load(1, XDATA, add(CFA_XSP16, literal(-2)))
        CFI (cfiCond32) DPH0 load(1, XDATA, add(CFA_XSP16, literal(-1)))
        CFI (cfiCond32) CFA_SP SP+0
        CFI (cfiCond32) CFA_XSP16 add(XSP16, 36)
        CFI Block cfiCond33 Using cfiCommon0
        CFI (cfiCond33) NoFunction
        CFI (cfiCond33) Conditional ??CrossCallReturnLabel_43
        CFI (cfiCond33) R6 load(1, XDATA, add(CFA_XSP16, literal(-22)))
        CFI (cfiCond33) VB load(1, XDATA, add(CFA_XSP16, literal(-21)))
        CFI (cfiCond33) V0 load(1, XDATA, add(CFA_XSP16, literal(-20)))
        CFI (cfiCond33) V1 load(1, XDATA, add(CFA_XSP16, literal(-19)))
        CFI (cfiCond33) V2 load(1, XDATA, add(CFA_XSP16, literal(-18)))
        CFI (cfiCond33) V3 load(1, XDATA, add(CFA_XSP16, literal(-17)))
        CFI (cfiCond33) V4 load(1, XDATA, add(CFA_XSP16, literal(-16)))
        CFI (cfiCond33) V5 load(1, XDATA, add(CFA_XSP16, literal(-15)))
        CFI (cfiCond33) V6 load(1, XDATA, add(CFA_XSP16, literal(-14)))
        CFI (cfiCond33) V7 load(1, XDATA, add(CFA_XSP16, literal(-13)))
        CFI (cfiCond33) V8 load(1, XDATA, add(CFA_XSP16, literal(-12)))
        CFI (cfiCond33) V9 load(1, XDATA, add(CFA_XSP16, literal(-11)))
        CFI (cfiCond33) V10 load(1, XDATA, add(CFA_XSP16, literal(-10)))
        CFI (cfiCond33) V11 load(1, XDATA, add(CFA_XSP16, literal(-9)))
        CFI (cfiCond33) V12 load(1, XDATA, add(CFA_XSP16, literal(-8)))
        CFI (cfiCond33) V13 load(1, XDATA, add(CFA_XSP16, literal(-7)))
        CFI (cfiCond33) R7 load(1, XDATA, add(CFA_XSP16, literal(-6)))
        CFI (cfiCond33) ?RET_LOW load(1, XDATA, add(CFA_XSP16, literal(-5)))
        CFI (cfiCond33) ?RET_HIGH load(1, XDATA, add(CFA_XSP16, literal(-4)))
        CFI (cfiCond33) ?BRET_EXT load(1, XDATA, add(CFA_XSP16, literal(-3)))
        CFI (cfiCond33) DPL0 load(1, XDATA, add(CFA_XSP16, literal(-2)))
        CFI (cfiCond33) DPH0 load(1, XDATA, add(CFA_XSP16, literal(-1)))
        CFI (cfiCond33) CFA_SP SP+0
        CFI (cfiCond33) CFA_XSP16 add(XSP16, 36)
        CFI Block cfiCond34 Using cfiCommon0
        CFI (cfiCond34) NoFunction
        CFI (cfiCond34) Conditional ??CrossCallReturnLabel_44
        CFI (cfiCond34) R6 load(1, XDATA, add(CFA_XSP16, literal(-22)))
        CFI (cfiCond34) VB load(1, XDATA, add(CFA_XSP16, literal(-21)))
        CFI (cfiCond34) V0 load(1, XDATA, add(CFA_XSP16, literal(-20)))
        CFI (cfiCond34) V1 load(1, XDATA, add(CFA_XSP16, literal(-19)))
        CFI (cfiCond34) V2 load(1, XDATA, add(CFA_XSP16, literal(-18)))
        CFI (cfiCond34) V3 load(1, XDATA, add(CFA_XSP16, literal(-17)))
        CFI (cfiCond34) V4 load(1, XDATA, add(CFA_XSP16, literal(-16)))
        CFI (cfiCond34) V5 load(1, XDATA, add(CFA_XSP16, literal(-15)))
        CFI (cfiCond34) V6 load(1, XDATA, add(CFA_XSP16, literal(-14)))
        CFI (cfiCond34) V7 load(1, XDATA, add(CFA_XSP16, literal(-13)))
        CFI (cfiCond34) V8 load(1, XDATA, add(CFA_XSP16, literal(-12)))
        CFI (cfiCond34) V9 load(1, XDATA, add(CFA_XSP16, literal(-11)))
        CFI (cfiCond34) V10 load(1, XDATA, add(CFA_XSP16, literal(-10)))
        CFI (cfiCond34) V11 load(1, XDATA, add(CFA_XSP16, literal(-9)))
        CFI (cfiCond34) V12 load(1, XDATA, add(CFA_XSP16, literal(-8)))
        CFI (cfiCond34) V13 load(1, XDATA, add(CFA_XSP16, literal(-7)))
        CFI (cfiCond34) R7 load(1, XDATA, add(CFA_XSP16, literal(-6)))
        CFI (cfiCond34) ?RET_LOW load(1, XDATA, add(CFA_XSP16, literal(-5)))
        CFI (cfiCond34) ?RET_HIGH load(1, XDATA, add(CFA_XSP16, literal(-4)))
        CFI (cfiCond34) ?BRET_EXT load(1, XDATA, add(CFA_XSP16, literal(-3)))
        CFI (cfiCond34) DPL0 load(1, XDATA, add(CFA_XSP16, literal(-2)))
        CFI (cfiCond34) DPH0 load(1, XDATA, add(CFA_XSP16, literal(-1)))
        CFI (cfiCond34) CFA_SP SP+0
        CFI (cfiCond34) CFA_XSP16 add(XSP16, 36)
        CFI Block cfiPicker35 Using cfiCommon1
        CFI (cfiPicker35) NoFunction
        CFI (cfiPicker35) Picker
        MOVX    @DPTR,A
        MOV     DPTR,#pMtAfDataReq
        MOVX    A,@DPTR
        RET
        CFI EndBlock cfiCond30
        CFI EndBlock cfiCond31
        CFI EndBlock cfiCond32
        CFI EndBlock cfiCond33
        CFI EndBlock cfiCond34
        CFI EndBlock cfiPicker35

        RSEG BANKED_CODE:CODE:NOROOT(0)
?Subroutine27:
        CFI Block cfiCond36 Using cfiCommon0
        CFI NoFunction
        CFI Conditional ??CrossCallReturnLabel_34
        CFI R6 load(1, XDATA, add(CFA_XSP16, literal(-22)))
        CFI VB load(1, XDATA, add(CFA_XSP16, literal(-21)))
        CFI V0 load(1, XDATA, add(CFA_XSP16, literal(-20)))
        CFI V1 load(1, XDATA, add(CFA_XSP16, literal(-19)))
        CFI V2 load(1, XDATA, add(CFA_XSP16, literal(-18)))
        CFI V3 load(1, XDATA, add(CFA_XSP16, literal(-17)))
        CFI V4 load(1, XDATA, add(CFA_XSP16, literal(-16)))
        CFI V5 load(1, XDATA, add(CFA_XSP16, literal(-15)))
        CFI V6 load(1, XDATA, add(CFA_XSP16, literal(-14)))
        CFI V7 load(1, XDATA, add(CFA_XSP16, literal(-13)))
        CFI V8 load(1, XDATA, add(CFA_XSP16, literal(-12)))
        CFI V9 load(1, XDATA, add(CFA_XSP16, literal(-11)))
        CFI V10 load(1, XDATA, add(CFA_XSP16, literal(-10)))
        CFI V11 load(1, XDATA, add(CFA_XSP16, literal(-9)))
        CFI V12 load(1, XDATA, add(CFA_XSP16, literal(-8)))
        CFI V13 load(1, XDATA, add(CFA_XSP16, literal(-7)))
        CFI R7 load(1, XDATA, add(CFA_XSP16, literal(-6)))
        CFI ?RET_LOW load(1, XDATA, add(CFA_XSP16, literal(-5)))
        CFI ?RET_HIGH load(1, XDATA, add(CFA_XSP16, literal(-4)))
        CFI ?BRET_EXT load(1, XDATA, add(CFA_XSP16, literal(-3)))
        CFI DPL0 load(1, XDATA, add(CFA_XSP16, literal(-2)))
        CFI DPH0 load(1, XDATA, add(CFA_XSP16, literal(-1)))
        CFI CFA_SP SP+0
        CFI CFA_XSP16 add(XSP16, 36)
        CFI Block cfiCond37 Using cfiCommon0
        CFI (cfiCond37) NoFunction
        CFI (cfiCond37) Conditional ??CrossCallReturnLabel_35
        CFI (cfiCond37) R6 load(1, XDATA, add(CFA_XSP16, literal(-22)))
        CFI (cfiCond37) VB load(1, XDATA, add(CFA_XSP16, literal(-21)))
        CFI (cfiCond37) V0 load(1, XDATA, add(CFA_XSP16, literal(-20)))
        CFI (cfiCond37) V1 load(1, XDATA, add(CFA_XSP16, literal(-19)))
        CFI (cfiCond37) V2 load(1, XDATA, add(CFA_XSP16, literal(-18)))
        CFI (cfiCond37) V3 load(1, XDATA, add(CFA_XSP16, literal(-17)))
        CFI (cfiCond37) V4 load(1, XDATA, add(CFA_XSP16, literal(-16)))
        CFI (cfiCond37) V5 load(1, XDATA, add(CFA_XSP16, literal(-15)))
        CFI (cfiCond37) V6 load(1, XDATA, add(CFA_XSP16, literal(-14)))
        CFI (cfiCond37) V7 load(1, XDATA, add(CFA_XSP16, literal(-13)))
        CFI (cfiCond37) V8 load(1, XDATA, add(CFA_XSP16, literal(-12)))
        CFI (cfiCond37) V9 load(1, XDATA, add(CFA_XSP16, literal(-11)))
        CFI (cfiCond37) V10 load(1, XDATA, add(CFA_XSP16, literal(-10)))
        CFI (cfiCond37) V11 load(1, XDATA, add(CFA_XSP16, literal(-9)))
        CFI (cfiCond37) V12 load(1, XDATA, add(CFA_XSP16, literal(-8)))
        CFI (cfiCond37) V13 load(1, XDATA, add(CFA_XSP16, literal(-7)))
        CFI (cfiCond37) R7 load(1, XDATA, add(CFA_XSP16, literal(-6)))
        CFI (cfiCond37) ?RET_LOW load(1, XDATA, add(CFA_XSP16, literal(-5)))
        CFI (cfiCond37) ?RET_HIGH load(1, XDATA, add(CFA_XSP16, literal(-4)))
        CFI (cfiCond37) ?BRET_EXT load(1, XDATA, add(CFA_XSP16, literal(-3)))
        CFI (cfiCond37) DPL0 load(1, XDATA, add(CFA_XSP16, literal(-2)))
        CFI (cfiCond37) DPH0 load(1, XDATA, add(CFA_XSP16, literal(-1)))
        CFI (cfiCond37) CFA_SP SP+0
        CFI (cfiCond37) CFA_XSP16 add(XSP16, 36)
        CFI Block cfiCond38 Using cfiCommon0
        CFI (cfiCond38) NoFunction
        CFI (cfiCond38) Conditional ??CrossCallReturnLabel_36
        CFI (cfiCond38) R6 load(1, XDATA, add(CFA_XSP16, literal(-22)))
        CFI (cfiCond38) VB load(1, XDATA, add(CFA_XSP16, literal(-21)))
        CFI (cfiCond38) V0 load(1, XDATA, add(CFA_XSP16, literal(-20)))
        CFI (cfiCond38) V1 load(1, XDATA, add(CFA_XSP16, literal(-19)))
        CFI (cfiCond38) V2 load(1, XDATA, add(CFA_XSP16, literal(-18)))
        CFI (cfiCond38) V3 load(1, XDATA, add(CFA_XSP16, literal(-17)))
        CFI (cfiCond38) V4 load(1, XDATA, add(CFA_XSP16, literal(-16)))
        CFI (cfiCond38) V5 load(1, XDATA, add(CFA_XSP16, literal(-15)))
        CFI (cfiCond38) V6 load(1, XDATA, add(CFA_XSP16, literal(-14)))
        CFI (cfiCond38) V7 load(1, XDATA, add(CFA_XSP16, literal(-13)))
        CFI (cfiCond38) V8 load(1, XDATA, add(CFA_XSP16, literal(-12)))
        CFI (cfiCond38) V9 load(1, XDATA, add(CFA_XSP16, literal(-11)))
        CFI (cfiCond38) V10 load(1, XDATA, add(CFA_XSP16, literal(-10)))
        CFI (cfiCond38) V11 load(1, XDATA, add(CFA_XSP16, literal(-9)))
        CFI (cfiCond38) V12 load(1, XDATA, add(CFA_XSP16, literal(-8)))
        CFI (cfiCond38) V13 load(1, XDATA, add(CFA_XSP16, literal(-7)))
        CFI (cfiCond38) R7 load(1, XDATA, add(CFA_XSP16, literal(-6)))
        CFI (cfiCond38) ?RET_LOW load(1, XDATA, add(CFA_XSP16, literal(-5)))
        CFI (cfiCond38) ?RET_HIGH load(1, XDATA, add(CFA_XSP16, literal(-4)))
        CFI (cfiCond38) ?BRET_EXT load(1, XDATA, add(CFA_XSP16, literal(-3)))
        CFI (cfiCond38) DPL0 load(1, XDATA, add(CFA_XSP16, literal(-2)))
        CFI (cfiCond38) DPH0 load(1, XDATA, add(CFA_XSP16, literal(-1)))
        CFI (cfiCond38) CFA_SP SP+0
        CFI (cfiCond38) CFA_XSP16 add(XSP16, 36)
        CFI Block cfiPicker39 Using cfiCommon1
        CFI (cfiPicker39) NoFunction
        CFI (cfiPicker39) Picker
        LCALL   ?Subroutine42 & 0xFFFF
??CrossCallReturnLabel_70:
        MOV     ?V0 + 4,DPL
        MOV     ?V0 + 5,DPH
        RET
        CFI EndBlock cfiCond36
        CFI EndBlock cfiCond37
        CFI EndBlock cfiCond38
        CFI EndBlock cfiPicker39

        RSEG BANKED_CODE:CODE:NOROOT(0)
?Subroutine42:
        CFI Block cfiCond40 Using cfiCommon0
        CFI NoFunction
        CFI Conditional ??CrossCallReturnLabel_69
        CFI R6 load(1, XDATA, add(CFA_XSP16, literal(-22)))
        CFI VB load(1, XDATA, add(CFA_XSP16, literal(-21)))
        CFI V0 load(1, XDATA, add(CFA_XSP16, literal(-20)))
        CFI V1 load(1, XDATA, add(CFA_XSP16, literal(-19)))
        CFI V2 load(1, XDATA, add(CFA_XSP16, literal(-18)))
        CFI V3 load(1, XDATA, add(CFA_XSP16, literal(-17)))
        CFI V4 load(1, XDATA, add(CFA_XSP16, literal(-16)))
        CFI V5 load(1, XDATA, add(CFA_XSP16, literal(-15)))
        CFI V6 load(1, XDATA, add(CFA_XSP16, literal(-14)))
        CFI V7 load(1, XDATA, add(CFA_XSP16, literal(-13)))
        CFI V8 load(1, XDATA, add(CFA_XSP16, literal(-12)))
        CFI V9 load(1, XDATA, add(CFA_XSP16, literal(-11)))
        CFI V10 load(1, XDATA, add(CFA_XSP16, literal(-10)))
        CFI V11 load(1, XDATA, add(CFA_XSP16, literal(-9)))
        CFI V12 load(1, XDATA, add(CFA_XSP16, literal(-8)))
        CFI V13 load(1, XDATA, add(CFA_XSP16, literal(-7)))
        CFI R7 load(1, XDATA, add(CFA_XSP16, literal(-6)))
        CFI ?RET_LOW load(1, XDATA, add(CFA_XSP16, literal(-5)))
        CFI ?RET_HIGH load(1, XDATA, add(CFA_XSP16, literal(-4)))
        CFI ?BRET_EXT load(1, XDATA, add(CFA_XSP16, literal(-3)))
        CFI DPL0 load(1, XDATA, add(CFA_XSP16, literal(-2)))
        CFI DPH0 load(1, XDATA, add(CFA_XSP16, literal(-1)))
        CFI CFA_SP SP+0
        CFI CFA_XSP16 add(XSP16, 36)
        CFI Block cfiCond41 Using cfiCommon0
        CFI (cfiCond41) NoFunction
        CFI (cfiCond41) Conditional ??CrossCallReturnLabel_70, ??CrossCallReturnLabel_34
        CFI (cfiCond41) R6 load(1, XDATA, add(CFA_XSP16, literal(-22)))
        CFI (cfiCond41) VB load(1, XDATA, add(CFA_XSP16, literal(-21)))
        CFI (cfiCond41) V0 load(1, XDATA, add(CFA_XSP16, literal(-20)))
        CFI (cfiCond41) V1 load(1, XDATA, add(CFA_XSP16, literal(-19)))
        CFI (cfiCond41) V2 load(1, XDATA, add(CFA_XSP16, literal(-18)))
        CFI (cfiCond41) V3 load(1, XDATA, add(CFA_XSP16, literal(-17)))
        CFI (cfiCond41) V4 load(1, XDATA, add(CFA_XSP16, literal(-16)))
        CFI (cfiCond41) V5 load(1, XDATA, add(CFA_XSP16, literal(-15)))
        CFI (cfiCond41) V6 load(1, XDATA, add(CFA_XSP16, literal(-14)))
        CFI (cfiCond41) V7 load(1, XDATA, add(CFA_XSP16, literal(-13)))
        CFI (cfiCond41) V8 load(1, XDATA, add(CFA_XSP16, literal(-12)))
        CFI (cfiCond41) V9 load(1, XDATA, add(CFA_XSP16, literal(-11)))
        CFI (cfiCond41) V10 load(1, XDATA, add(CFA_XSP16, literal(-10)))
        CFI (cfiCond41) V11 load(1, XDATA, add(CFA_XSP16, literal(-9)))
        CFI (cfiCond41) V12 load(1, XDATA, add(CFA_XSP16, literal(-8)))
        CFI (cfiCond41) V13 load(1, XDATA, add(CFA_XSP16, literal(-7)))
        CFI (cfiCond41) R7 load(1, XDATA, add(CFA_XSP16, literal(-6)))
        CFI (cfiCond41) ?RET_LOW load(1, XDATA, add(CFA_XSP16, literal(-5)))
        CFI (cfiCond41) ?RET_HIGH load(1, XDATA, add(CFA_XSP16, literal(-4)))
        CFI (cfiCond41) ?BRET_EXT load(1, XDATA, add(CFA_XSP16, literal(-3)))
        CFI (cfiCond41) DPL0 load(1, XDATA, add(CFA_XSP16, literal(-2)))
        CFI (cfiCond41) DPH0 load(1, XDATA, add(CFA_XSP16, literal(-1)))
        CFI (cfiCond41) CFA_SP SP+0
        CFI (cfiCond41) CFA_XSP16 add(XSP16, 36)
        CFI Block cfiCond42 Using cfiCommon0
        CFI (cfiCond42) NoFunction
        CFI (cfiCond42) Conditional ??CrossCallReturnLabel_70, ??CrossCallReturnLabel_35
        CFI (cfiCond42) R6 load(1, XDATA, add(CFA_XSP16, literal(-22)))
        CFI (cfiCond42) VB load(1, XDATA, add(CFA_XSP16, literal(-21)))
        CFI (cfiCond42) V0 load(1, XDATA, add(CFA_XSP16, literal(-20)))
        CFI (cfiCond42) V1 load(1, XDATA, add(CFA_XSP16, literal(-19)))
        CFI (cfiCond42) V2 load(1, XDATA, add(CFA_XSP16, literal(-18)))
        CFI (cfiCond42) V3 load(1, XDATA, add(CFA_XSP16, literal(-17)))
        CFI (cfiCond42) V4 load(1, XDATA, add(CFA_XSP16, literal(-16)))
        CFI (cfiCond42) V5 load(1, XDATA, add(CFA_XSP16, literal(-15)))
        CFI (cfiCond42) V6 load(1, XDATA, add(CFA_XSP16, literal(-14)))
        CFI (cfiCond42) V7 load(1, XDATA, add(CFA_XSP16, literal(-13)))
        CFI (cfiCond42) V8 load(1, XDATA, add(CFA_XSP16, literal(-12)))
        CFI (cfiCond42) V9 load(1, XDATA, add(CFA_XSP16, literal(-11)))
        CFI (cfiCond42) V10 load(1, XDATA, add(CFA_XSP16, literal(-10)))
        CFI (cfiCond42) V11 load(1, XDATA, add(CFA_XSP16, literal(-9)))
        CFI (cfiCond42) V12 load(1, XDATA, add(CFA_XSP16, literal(-8)))
        CFI (cfiCond42) V13 load(1, XDATA, add(CFA_XSP16, literal(-7)))
        CFI (cfiCond42) R7 load(1, XDATA, add(CFA_XSP16, literal(-6)))
        CFI (cfiCond42) ?RET_LOW load(1, XDATA, add(CFA_XSP16, literal(-5)))
        CFI (cfiCond42) ?RET_HIGH load(1, XDATA, add(CFA_XSP16, literal(-4)))
        CFI (cfiCond42) ?BRET_EXT load(1, XDATA, add(CFA_XSP16, literal(-3)))
        CFI (cfiCond42) DPL0 load(1, XDATA, add(CFA_XSP16, literal(-2)))
        CFI (cfiCond42) DPH0 load(1, XDATA, add(CFA_XSP16, literal(-1)))
        CFI (cfiCond42) CFA_SP SP+0
        CFI (cfiCond42) CFA_XSP16 add(XSP16, 36)
        CFI Block cfiCond43 Using cfiCommon0
        CFI (cfiCond43) NoFunction
        CFI (cfiCond43) Conditional ??CrossCallReturnLabel_70, ??CrossCallReturnLabel_36
        CFI (cfiCond43) R6 load(1, XDATA, add(CFA_XSP16, literal(-22)))
        CFI (cfiCond43) VB load(1, XDATA, add(CFA_XSP16, literal(-21)))
        CFI (cfiCond43) V0 load(1, XDATA, add(CFA_XSP16, literal(-20)))
        CFI (cfiCond43) V1 load(1, XDATA, add(CFA_XSP16, literal(-19)))
        CFI (cfiCond43) V2 load(1, XDATA, add(CFA_XSP16, literal(-18)))
        CFI (cfiCond43) V3 load(1, XDATA, add(CFA_XSP16, literal(-17)))
        CFI (cfiCond43) V4 load(1, XDATA, add(CFA_XSP16, literal(-16)))
        CFI (cfiCond43) V5 load(1, XDATA, add(CFA_XSP16, literal(-15)))
        CFI (cfiCond43) V6 load(1, XDATA, add(CFA_XSP16, literal(-14)))
        CFI (cfiCond43) V7 load(1, XDATA, add(CFA_XSP16, literal(-13)))
        CFI (cfiCond43) V8 load(1, XDATA, add(CFA_XSP16, literal(-12)))
        CFI (cfiCond43) V9 load(1, XDATA, add(CFA_XSP16, literal(-11)))
        CFI (cfiCond43) V10 load(1, XDATA, add(CFA_XSP16, literal(-10)))
        CFI (cfiCond43) V11 load(1, XDATA, add(CFA_XSP16, literal(-9)))
        CFI (cfiCond43) V12 load(1, XDATA, add(CFA_XSP16, literal(-8)))
        CFI (cfiCond43) V13 load(1, XDATA, add(CFA_XSP16, literal(-7)))
        CFI (cfiCond43) R7 load(1, XDATA, add(CFA_XSP16, literal(-6)))
        CFI (cfiCond43) ?RET_LOW load(1, XDATA, add(CFA_XSP16, literal(-5)))
        CFI (cfiCond43) ?RET_HIGH load(1, XDATA, add(CFA_XSP16, literal(-4)))
        CFI (cfiCond43) ?BRET_EXT load(1, XDATA, add(CFA_XSP16, literal(-3)))
        CFI (cfiCond43) DPL0 load(1, XDATA, add(CFA_XSP16, literal(-2)))
        CFI (cfiCond43) DPH0 load(1, XDATA, add(CFA_XSP16, literal(-1)))
        CFI (cfiCond43) CFA_SP SP+0
        CFI (cfiCond43) CFA_XSP16 add(XSP16, 36)
        CFI Block cfiPicker44 Using cfiCommon1
        CFI (cfiPicker44) NoFunction
        CFI (cfiPicker44) Picker
        MOVX    @DPTR,A
        MOV     DPL,?V0 + 4
        MOV     DPH,?V0 + 5
        INC     DPTR
        RET
        CFI EndBlock cfiCond40
        CFI EndBlock cfiCond41
        CFI EndBlock cfiCond42
        CFI EndBlock cfiCond43
        CFI EndBlock cfiPicker44

        RSEG BANKED_CODE:CODE:NOROOT(0)
?Subroutine23:
        CFI Block cfiCond45 Using cfiCommon0
        CFI NoFunction
        CFI Conditional ??CrossCallReturnLabel_82
        CFI R6 load(1, XDATA, add(CFA_XSP16, literal(-22)))
        CFI VB load(1, XDATA, add(CFA_XSP16, literal(-21)))
        CFI V0 load(1, XDATA, add(CFA_XSP16, literal(-20)))
        CFI V1 load(1, XDATA, add(CFA_XSP16, literal(-19)))
        CFI V2 load(1, XDATA, add(CFA_XSP16, literal(-18)))
        CFI V3 load(1, XDATA, add(CFA_XSP16, literal(-17)))
        CFI V4 load(1, XDATA, add(CFA_XSP16, literal(-16)))
        CFI V5 load(1, XDATA, add(CFA_XSP16, literal(-15)))
        CFI V6 load(1, XDATA, add(CFA_XSP16, literal(-14)))
        CFI V7 load(1, XDATA, add(CFA_XSP16, literal(-13)))
        CFI V8 load(1, XDATA, add(CFA_XSP16, literal(-12)))
        CFI V9 load(1, XDATA, add(CFA_XSP16, literal(-11)))
        CFI V10 load(1, XDATA, add(CFA_XSP16, literal(-10)))
        CFI V11 load(1, XDATA, add(CFA_XSP16, literal(-9)))
        CFI V12 load(1, XDATA, add(CFA_XSP16, literal(-8)))
        CFI V13 load(1, XDATA, add(CFA_XSP16, literal(-7)))
        CFI R7 load(1, XDATA, add(CFA_XSP16, literal(-6)))
        CFI ?RET_LOW load(1, XDATA, add(CFA_XSP16, literal(-5)))
        CFI ?RET_HIGH load(1, XDATA, add(CFA_XSP16, literal(-4)))
        CFI ?BRET_EXT load(1, XDATA, add(CFA_XSP16, literal(-3)))
        CFI DPL0 load(1, XDATA, add(CFA_XSP16, literal(-2)))
        CFI DPH0 load(1, XDATA, add(CFA_XSP16, literal(-1)))
        CFI CFA_SP SP+0
        CFI CFA_XSP16 add(XSP16, 36)
        CFI Block cfiCond46 Using cfiCommon0
        CFI (cfiCond46) NoFunction
        CFI (cfiCond46) Conditional ??CrossCallReturnLabel_83
        CFI (cfiCond46) R6 load(1, XDATA, add(CFA_XSP16, literal(-23)))
        CFI (cfiCond46) VB load(1, XDATA, add(CFA_XSP16, literal(-22)))
        CFI (cfiCond46) V0 load(1, XDATA, add(CFA_XSP16, literal(-21)))
        CFI (cfiCond46) V1 load(1, XDATA, add(CFA_XSP16, literal(-20)))
        CFI (cfiCond46) V2 load(1, XDATA, add(CFA_XSP16, literal(-19)))
        CFI (cfiCond46) V3 load(1, XDATA, add(CFA_XSP16, literal(-18)))
        CFI (cfiCond46) V4 load(1, XDATA, add(CFA_XSP16, literal(-17)))
        CFI (cfiCond46) V5 load(1, XDATA, add(CFA_XSP16, literal(-16)))
        CFI (cfiCond46) V6 load(1, XDATA, add(CFA_XSP16, literal(-15)))
        CFI (cfiCond46) V7 load(1, XDATA, add(CFA_XSP16, literal(-14)))
        CFI (cfiCond46) V8 load(1, XDATA, add(CFA_XSP16, literal(-13)))
        CFI (cfiCond46) V9 load(1, XDATA, add(CFA_XSP16, literal(-12)))
        CFI (cfiCond46) V10 load(1, XDATA, add(CFA_XSP16, literal(-11)))
        CFI (cfiCond46) V11 load(1, XDATA, add(CFA_XSP16, literal(-10)))
        CFI (cfiCond46) V12 load(1, XDATA, add(CFA_XSP16, literal(-9)))
        CFI (cfiCond46) V13 load(1, XDATA, add(CFA_XSP16, literal(-8)))
        CFI (cfiCond46) V14 load(1, XDATA, add(CFA_XSP16, literal(-7)))
        CFI (cfiCond46) R7 load(1, XDATA, add(CFA_XSP16, literal(-6)))
        CFI (cfiCond46) ?RET_LOW load(1, XDATA, add(CFA_XSP16, literal(-5)))
        CFI (cfiCond46) ?RET_HIGH load(1, XDATA, add(CFA_XSP16, literal(-4)))
        CFI (cfiCond46) ?BRET_EXT load(1, XDATA, add(CFA_XSP16, literal(-3)))
        CFI (cfiCond46) DPL0 load(1, XDATA, add(CFA_XSP16, literal(-2)))
        CFI (cfiCond46) DPH0 load(1, XDATA, add(CFA_XSP16, literal(-1)))
        CFI (cfiCond46) CFA_SP SP+0
        CFI (cfiCond46) CFA_XSP16 add(XSP16, 23)
        CFI Block cfiPicker47 Using cfiCommon1
        CFI (cfiPicker47) NoFunction
        CFI (cfiPicker47) Picker
        MOV     R2,A
        MOV     A,R7
        CFI EndBlock cfiCond45
        CFI EndBlock cfiCond46
        CFI EndBlock cfiPicker47
        REQUIRE ??Subroutine49_0
        ; // Fall through to label ??Subroutine49_0

        RSEG BANKED_CODE:CODE:NOROOT(0)
??Subroutine49_0:
        CFI Block cfiCond48 Using cfiCommon0
        CFI NoFunction
        CFI Conditional ??CrossCallReturnLabel_84
        CFI R6 load(1, XDATA, add(CFA_XSP16, literal(-21)))
        CFI VB load(1, XDATA, add(CFA_XSP16, literal(-20)))
        CFI V0 load(1, XDATA, add(CFA_XSP16, literal(-19)))
        CFI V1 load(1, XDATA, add(CFA_XSP16, literal(-18)))
        CFI V2 load(1, XDATA, add(CFA_XSP16, literal(-17)))
        CFI V3 load(1, XDATA, add(CFA_XSP16, literal(-16)))
        CFI V4 load(1, XDATA, add(CFA_XSP16, literal(-15)))
        CFI V5 load(1, XDATA, add(CFA_XSP16, literal(-14)))
        CFI V6 load(1, XDATA, add(CFA_XSP16, literal(-13)))
        CFI V7 load(1, XDATA, add(CFA_XSP16, literal(-12)))
        CFI V8 load(1, XDATA, add(CFA_XSP16, literal(-11)))
        CFI V9 load(1, XDATA, add(CFA_XSP16, literal(-10)))
        CFI V10 load(1, XDATA, add(CFA_XSP16, literal(-9)))
        CFI V11 load(1, XDATA, add(CFA_XSP16, literal(-8)))
        CFI V12 load(1, XDATA, add(CFA_XSP16, literal(-7)))
        CFI R7 load(1, XDATA, add(CFA_XSP16, literal(-6)))
        CFI ?RET_LOW load(1, XDATA, add(CFA_XSP16, literal(-5)))
        CFI ?RET_HIGH load(1, XDATA, add(CFA_XSP16, literal(-4)))
        CFI ?BRET_EXT load(1, XDATA, add(CFA_XSP16, literal(-3)))
        CFI DPL0 load(1, XDATA, add(CFA_XSP16, literal(-2)))
        CFI DPH0 load(1, XDATA, add(CFA_XSP16, literal(-1)))
        CFI CFA_SP SP+0
        CFI CFA_XSP16 add(XSP16, 21)
        CFI Block cfiCond49 Using cfiCommon0
        CFI (cfiCond49) NoFunction
        CFI (cfiCond49) Conditional ??CrossCallReturnLabel_82
        CFI (cfiCond49) R6 load(1, XDATA, add(CFA_XSP16, literal(-22)))
        CFI (cfiCond49) VB load(1, XDATA, add(CFA_XSP16, literal(-21)))
        CFI (cfiCond49) V0 load(1, XDATA, add(CFA_XSP16, literal(-20)))
        CFI (cfiCond49) V1 load(1, XDATA, add(CFA_XSP16, literal(-19)))
        CFI (cfiCond49) V2 load(1, XDATA, add(CFA_XSP16, literal(-18)))
        CFI (cfiCond49) V3 load(1, XDATA, add(CFA_XSP16, literal(-17)))
        CFI (cfiCond49) V4 load(1, XDATA, add(CFA_XSP16, literal(-16)))
        CFI (cfiCond49) V5 load(1, XDATA, add(CFA_XSP16, literal(-15)))
        CFI (cfiCond49) V6 load(1, XDATA, add(CFA_XSP16, literal(-14)))
        CFI (cfiCond49) V7 load(1, XDATA, add(CFA_XSP16, literal(-13)))
        CFI (cfiCond49) V8 load(1, XDATA, add(CFA_XSP16, literal(-12)))
        CFI (cfiCond49) V9 load(1, XDATA, add(CFA_XSP16, literal(-11)))
        CFI (cfiCond49) V10 load(1, XDATA, add(CFA_XSP16, literal(-10)))
        CFI (cfiCond49) V11 load(1, XDATA, add(CFA_XSP16, literal(-9)))
        CFI (cfiCond49) V12 load(1, XDATA, add(CFA_XSP16, literal(-8)))
        CFI (cfiCond49) V13 load(1, XDATA, add(CFA_XSP16, literal(-7)))
        CFI (cfiCond49) R7 load(1, XDATA, add(CFA_XSP16, literal(-6)))
        CFI (cfiCond49) ?RET_LOW load(1, XDATA, add(CFA_XSP16, literal(-5)))
        CFI (cfiCond49) ?RET_HIGH load(1, XDATA, add(CFA_XSP16, literal(-4)))
        CFI (cfiCond49) ?BRET_EXT load(1, XDATA, add(CFA_XSP16, literal(-3)))
        CFI (cfiCond49) DPL0 load(1, XDATA, add(CFA_XSP16, literal(-2)))
        CFI (cfiCond49) DPH0 load(1, XDATA, add(CFA_XSP16, literal(-1)))
        CFI (cfiCond49) CFA_SP SP+0
        CFI (cfiCond49) CFA_XSP16 add(XSP16, 36)
        CFI Block cfiCond50 Using cfiCommon0
        CFI (cfiCond50) NoFunction
        CFI (cfiCond50) Conditional ??CrossCallReturnLabel_83
        CFI (cfiCond50) R6 load(1, XDATA, add(CFA_XSP16, literal(-23)))
        CFI (cfiCond50) VB load(1, XDATA, add(CFA_XSP16, literal(-22)))
        CFI (cfiCond50) V0 load(1, XDATA, add(CFA_XSP16, literal(-21)))
        CFI (cfiCond50) V1 load(1, XDATA, add(CFA_XSP16, literal(-20)))
        CFI (cfiCond50) V2 load(1, XDATA, add(CFA_XSP16, literal(-19)))
        CFI (cfiCond50) V3 load(1, XDATA, add(CFA_XSP16, literal(-18)))
        CFI (cfiCond50) V4 load(1, XDATA, add(CFA_XSP16, literal(-17)))
        CFI (cfiCond50) V5 load(1, XDATA, add(CFA_XSP16, literal(-16)))
        CFI (cfiCond50) V6 load(1, XDATA, add(CFA_XSP16, literal(-15)))
        CFI (cfiCond50) V7 load(1, XDATA, add(CFA_XSP16, literal(-14)))
        CFI (cfiCond50) V8 load(1, XDATA, add(CFA_XSP16, literal(-13)))
        CFI (cfiCond50) V9 load(1, XDATA, add(CFA_XSP16, literal(-12)))
        CFI (cfiCond50) V10 load(1, XDATA, add(CFA_XSP16, literal(-11)))
        CFI (cfiCond50) V11 load(1, XDATA, add(CFA_XSP16, literal(-10)))
        CFI (cfiCond50) V12 load(1, XDATA, add(CFA_XSP16, literal(-9)))
        CFI (cfiCond50) V13 load(1, XDATA, add(CFA_XSP16, literal(-8)))
        CFI (cfiCond50) V14 load(1, XDATA, add(CFA_XSP16, literal(-7)))
        CFI (cfiCond50) R7 load(1, XDATA, add(CFA_XSP16, literal(-6)))
        CFI (cfiCond50) ?RET_LOW load(1, XDATA, add(CFA_XSP16, literal(-5)))
        CFI (cfiCond50) ?RET_HIGH load(1, XDATA, add(CFA_XSP16, literal(-4)))
        CFI (cfiCond50) ?BRET_EXT load(1, XDATA, add(CFA_XSP16, literal(-3)))
        CFI (cfiCond50) DPL0 load(1, XDATA, add(CFA_XSP16, literal(-2)))
        CFI (cfiCond50) DPH0 load(1, XDATA, add(CFA_XSP16, literal(-1)))
        CFI (cfiCond50) CFA_SP SP+0
        CFI (cfiCond50) CFA_XSP16 add(XSP16, 23)
        CFI Block cfiPicker51 Using cfiCommon1
        CFI (cfiPicker51) NoFunction
        CFI (cfiPicker51) Picker
        ADDC    A,#0x0
        MOV     R3,A
        LCALL   ??osal_mem_alloc?relay
        RET
        CFI EndBlock cfiCond48
        CFI EndBlock cfiCond49
        CFI EndBlock cfiCond50
        CFI EndBlock cfiPicker51

        RSEG BANKED_CODE:CODE:NOROOT(0)
?Subroutine19:
        CFI Block cfiCond52 Using cfiCommon0
        CFI NoFunction
        CFI Conditional ??CrossCallReturnLabel_85
        CFI R6 load(1, XDATA, add(CFA_XSP16, literal(-22)))
        CFI VB load(1, XDATA, add(CFA_XSP16, literal(-21)))
        CFI V0 load(1, XDATA, add(CFA_XSP16, literal(-20)))
        CFI V1 load(1, XDATA, add(CFA_XSP16, literal(-19)))
        CFI V2 load(1, XDATA, add(CFA_XSP16, literal(-18)))
        CFI V3 load(1, XDATA, add(CFA_XSP16, literal(-17)))
        CFI V4 load(1, XDATA, add(CFA_XSP16, literal(-16)))
        CFI V5 load(1, XDATA, add(CFA_XSP16, literal(-15)))
        CFI V6 load(1, XDATA, add(CFA_XSP16, literal(-14)))
        CFI V7 load(1, XDATA, add(CFA_XSP16, literal(-13)))
        CFI V8 load(1, XDATA, add(CFA_XSP16, literal(-12)))
        CFI V9 load(1, XDATA, add(CFA_XSP16, literal(-11)))
        CFI V10 load(1, XDATA, add(CFA_XSP16, literal(-10)))
        CFI V11 load(1, XDATA, add(CFA_XSP16, literal(-9)))
        CFI V12 load(1, XDATA, add(CFA_XSP16, literal(-8)))
        CFI V13 load(1, XDATA, add(CFA_XSP16, literal(-7)))
        CFI R7 load(1, XDATA, add(CFA_XSP16, literal(-6)))
        CFI ?RET_LOW load(1, XDATA, add(CFA_XSP16, literal(-5)))
        CFI ?RET_HIGH load(1, XDATA, add(CFA_XSP16, literal(-4)))
        CFI ?BRET_EXT load(1, XDATA, add(CFA_XSP16, literal(-3)))
        CFI DPL0 load(1, XDATA, add(CFA_XSP16, literal(-2)))
        CFI DPH0 load(1, XDATA, add(CFA_XSP16, literal(-1)))
        CFI CFA_SP SP+0
        CFI CFA_XSP16 add(XSP16, 36)
        CFI Block cfiCond53 Using cfiCommon0
        CFI (cfiCond53) NoFunction
        CFI (cfiCond53) Conditional ??CrossCallReturnLabel_86
        CFI (cfiCond53) R6 load(1, XDATA, add(CFA_XSP16, literal(-22)))
        CFI (cfiCond53) VB load(1, XDATA, add(CFA_XSP16, literal(-21)))
        CFI (cfiCond53) V0 load(1, XDATA, add(CFA_XSP16, literal(-20)))
        CFI (cfiCond53) V1 load(1, XDATA, add(CFA_XSP16, literal(-19)))
        CFI (cfiCond53) V2 load(1, XDATA, add(CFA_XSP16, literal(-18)))
        CFI (cfiCond53) V3 load(1, XDATA, add(CFA_XSP16, literal(-17)))
        CFI (cfiCond53) V4 load(1, XDATA, add(CFA_XSP16, literal(-16)))
        CFI (cfiCond53) V5 load(1, XDATA, add(CFA_XSP16, literal(-15)))
        CFI (cfiCond53) V6 load(1, XDATA, add(CFA_XSP16, literal(-14)))
        CFI (cfiCond53) V7 load(1, XDATA, add(CFA_XSP16, literal(-13)))
        CFI (cfiCond53) V8 load(1, XDATA, add(CFA_XSP16, literal(-12)))
        CFI (cfiCond53) V9 load(1, XDATA, add(CFA_XSP16, literal(-11)))
        CFI (cfiCond53) V10 load(1, XDATA, add(CFA_XSP16, literal(-10)))
        CFI (cfiCond53) V11 load(1, XDATA, add(CFA_XSP16, literal(-9)))
        CFI (cfiCond53) V12 load(1, XDATA, add(CFA_XSP16, literal(-8)))
        CFI (cfiCond53) V13 load(1, XDATA, add(CFA_XSP16, literal(-7)))
        CFI (cfiCond53) R7 load(1, XDATA, add(CFA_XSP16, literal(-6)))
        CFI (cfiCond53) ?RET_LOW load(1, XDATA, add(CFA_XSP16, literal(-5)))
        CFI (cfiCond53) ?RET_HIGH load(1, XDATA, add(CFA_XSP16, literal(-4)))
        CFI (cfiCond53) ?BRET_EXT load(1, XDATA, add(CFA_XSP16, literal(-3)))
        CFI (cfiCond53) DPL0 load(1, XDATA, add(CFA_XSP16, literal(-2)))
        CFI (cfiCond53) DPH0 load(1, XDATA, add(CFA_XSP16, literal(-1)))
        CFI (cfiCond53) CFA_SP SP+0
        CFI (cfiCond53) CFA_XSP16 add(XSP16, 36)
        CFI Block cfiPicker54 Using cfiCommon1
        CFI (cfiPicker54) NoFunction
        CFI (cfiPicker54) Picker
        MOV     A,?V0 + 4
        ADD     A,#0x2
        CFI EndBlock cfiCond52
        CFI EndBlock cfiCond53
        CFI EndBlock cfiPicker54
        REQUIRE ??Subroutine50_0
        ; // Fall through to label ??Subroutine50_0

        RSEG BANKED_CODE:CODE:NOROOT(0)
??Subroutine50_0:
        CFI Block cfiCond55 Using cfiCommon0
        CFI NoFunction
        CFI Conditional ??CrossCallReturnLabel_87
        CFI R6 load(1, XDATA, add(CFA_XSP16, literal(-22)))
        CFI VB load(1, XDATA, add(CFA_XSP16, literal(-21)))
        CFI V0 load(1, XDATA, add(CFA_XSP16, literal(-20)))
        CFI V1 load(1, XDATA, add(CFA_XSP16, literal(-19)))
        CFI V2 load(1, XDATA, add(CFA_XSP16, literal(-18)))
        CFI V3 load(1, XDATA, add(CFA_XSP16, literal(-17)))
        CFI V4 load(1, XDATA, add(CFA_XSP16, literal(-16)))
        CFI V5 load(1, XDATA, add(CFA_XSP16, literal(-15)))
        CFI V6 load(1, XDATA, add(CFA_XSP16, literal(-14)))
        CFI V7 load(1, XDATA, add(CFA_XSP16, literal(-13)))
        CFI V8 load(1, XDATA, add(CFA_XSP16, literal(-12)))
        CFI V9 load(1, XDATA, add(CFA_XSP16, literal(-11)))
        CFI V10 load(1, XDATA, add(CFA_XSP16, literal(-10)))
        CFI V11 load(1, XDATA, add(CFA_XSP16, literal(-9)))
        CFI V12 load(1, XDATA, add(CFA_XSP16, literal(-8)))
        CFI V13 load(1, XDATA, add(CFA_XSP16, literal(-7)))
        CFI R7 load(1, XDATA, add(CFA_XSP16, literal(-6)))
        CFI ?RET_LOW load(1, XDATA, add(CFA_XSP16, literal(-5)))
        CFI ?RET_HIGH load(1, XDATA, add(CFA_XSP16, literal(-4)))
        CFI ?BRET_EXT load(1, XDATA, add(CFA_XSP16, literal(-3)))
        CFI DPL0 load(1, XDATA, add(CFA_XSP16, literal(-2)))
        CFI DPH0 load(1, XDATA, add(CFA_XSP16, literal(-1)))
        CFI CFA_SP SP+0
        CFI CFA_XSP16 add(XSP16, 36)
        CFI Block cfiCond56 Using cfiCommon0
        CFI (cfiCond56) NoFunction
        CFI (cfiCond56) Conditional ??CrossCallReturnLabel_85
        CFI (cfiCond56) R6 load(1, XDATA, add(CFA_XSP16, literal(-22)))
        CFI (cfiCond56) VB load(1, XDATA, add(CFA_XSP16, literal(-21)))
        CFI (cfiCond56) V0 load(1, XDATA, add(CFA_XSP16, literal(-20)))
        CFI (cfiCond56) V1 load(1, XDATA, add(CFA_XSP16, literal(-19)))
        CFI (cfiCond56) V2 load(1, XDATA, add(CFA_XSP16, literal(-18)))
        CFI (cfiCond56) V3 load(1, XDATA, add(CFA_XSP16, literal(-17)))
        CFI (cfiCond56) V4 load(1, XDATA, add(CFA_XSP16, literal(-16)))
        CFI (cfiCond56) V5 load(1, XDATA, add(CFA_XSP16, literal(-15)))
        CFI (cfiCond56) V6 load(1, XDATA, add(CFA_XSP16, literal(-14)))
        CFI (cfiCond56) V7 load(1, XDATA, add(CFA_XSP16, literal(-13)))
        CFI (cfiCond56) V8 load(1, XDATA, add(CFA_XSP16, literal(-12)))
        CFI (cfiCond56) V9 load(1, XDATA, add(CFA_XSP16, literal(-11)))
        CFI (cfiCond56) V10 load(1, XDATA, add(CFA_XSP16, literal(-10)))
        CFI (cfiCond56) V11 load(1, XDATA, add(CFA_XSP16, literal(-9)))
        CFI (cfiCond56) V12 load(1, XDATA, add(CFA_XSP16, literal(-8)))
        CFI (cfiCond56) V13 load(1, XDATA, add(CFA_XSP16, literal(-7)))
        CFI (cfiCond56) R7 load(1, XDATA, add(CFA_XSP16, literal(-6)))
        CFI (cfiCond56) ?RET_LOW load(1, XDATA, add(CFA_XSP16, literal(-5)))
        CFI (cfiCond56) ?RET_HIGH load(1, XDATA, add(CFA_XSP16, literal(-4)))
        CFI (cfiCond56) ?BRET_EXT load(1, XDATA, add(CFA_XSP16, literal(-3)))
        CFI (cfiCond56) DPL0 load(1, XDATA, add(CFA_XSP16, literal(-2)))
        CFI (cfiCond56) DPH0 load(1, XDATA, add(CFA_XSP16, literal(-1)))
        CFI (cfiCond56) CFA_SP SP+0
        CFI (cfiCond56) CFA_XSP16 add(XSP16, 36)
        CFI Block cfiCond57 Using cfiCommon0
        CFI (cfiCond57) NoFunction
        CFI (cfiCond57) Conditional ??CrossCallReturnLabel_86
        CFI (cfiCond57) R6 load(1, XDATA, add(CFA_XSP16, literal(-22)))
        CFI (cfiCond57) VB load(1, XDATA, add(CFA_XSP16, literal(-21)))
        CFI (cfiCond57) V0 load(1, XDATA, add(CFA_XSP16, literal(-20)))
        CFI (cfiCond57) V1 load(1, XDATA, add(CFA_XSP16, literal(-19)))
        CFI (cfiCond57) V2 load(1, XDATA, add(CFA_XSP16, literal(-18)))
        CFI (cfiCond57) V3 load(1, XDATA, add(CFA_XSP16, literal(-17)))
        CFI (cfiCond57) V4 load(1, XDATA, add(CFA_XSP16, literal(-16)))
        CFI (cfiCond57) V5 load(1, XDATA, add(CFA_XSP16, literal(-15)))
        CFI (cfiCond57) V6 load(1, XDATA, add(CFA_XSP16, literal(-14)))
        CFI (cfiCond57) V7 load(1, XDATA, add(CFA_XSP16, literal(-13)))
        CFI (cfiCond57) V8 load(1, XDATA, add(CFA_XSP16, literal(-12)))
        CFI (cfiCond57) V9 load(1, XDATA, add(CFA_XSP16, literal(-11)))
        CFI (cfiCond57) V10 load(1, XDATA, add(CFA_XSP16, literal(-10)))
        CFI (cfiCond57) V11 load(1, XDATA, add(CFA_XSP16, literal(-9)))
        CFI (cfiCond57) V12 load(1, XDATA, add(CFA_XSP16, literal(-8)))
        CFI (cfiCond57) V13 load(1, XDATA, add(CFA_XSP16, literal(-7)))
        CFI (cfiCond57) R7 load(1, XDATA, add(CFA_XSP16, literal(-6)))
        CFI (cfiCond57) ?RET_LOW load(1, XDATA, add(CFA_XSP16, literal(-5)))
        CFI (cfiCond57) ?RET_HIGH load(1, XDATA, add(CFA_XSP16, literal(-4)))
        CFI (cfiCond57) ?BRET_EXT load(1, XDATA, add(CFA_XSP16, literal(-3)))
        CFI (cfiCond57) DPL0 load(1, XDATA, add(CFA_XSP16, literal(-2)))
        CFI (cfiCond57) DPH0 load(1, XDATA, add(CFA_XSP16, literal(-1)))
        CFI (cfiCond57) CFA_SP SP+0
        CFI (cfiCond57) CFA_XSP16 add(XSP16, 36)
        CFI Block cfiPicker58 Using cfiCommon1
        CFI (cfiPicker58) NoFunction
        CFI (cfiPicker58) Picker
        MOV     ?V0 + 4,A
        MOV     A,?V0 + 5
        ADDC    A,#0x0
        MOV     ?V0 + 5,A
        MOV     DPL,?V0 + 4
        MOV     DPH,A
        MOVX    A,@DPTR
        RET
        CFI EndBlock cfiCond55
        CFI EndBlock cfiCond56
        CFI EndBlock cfiCond57
        CFI EndBlock cfiPicker58

        RSEG BANKED_CODE:CODE:NOROOT(0)
?Subroutine17:
        CFI Block cfiCond59 Using cfiCommon0
        CFI NoFunction
        CFI Conditional ??CrossCallReturnLabel_23
        CFI R6 load(1, XDATA, add(CFA_XSP16, literal(-9)))
        CFI VB load(1, XDATA, add(CFA_XSP16, literal(-8)))
        CFI V0 load(1, XDATA, add(CFA_XSP16, literal(-7)))
        CFI R7 load(1, XDATA, add(CFA_XSP16, literal(-6)))
        CFI ?RET_LOW load(1, XDATA, add(CFA_XSP16, literal(-5)))
        CFI ?RET_HIGH load(1, XDATA, add(CFA_XSP16, literal(-4)))
        CFI ?BRET_EXT load(1, XDATA, add(CFA_XSP16, literal(-3)))
        CFI DPL0 load(1, XDATA, add(CFA_XSP16, literal(-2)))
        CFI DPH0 load(1, XDATA, add(CFA_XSP16, literal(-1)))
        CFI CFA_SP SP+0
        CFI CFA_XSP16 add(XSP16, 9)
        CFI Block cfiCond60 Using cfiCommon0
        CFI (cfiCond60) NoFunction
        CFI (cfiCond60) Conditional ??CrossCallReturnLabel_24
        CFI (cfiCond60) R6 load(1, XDATA, add(CFA_XSP16, literal(-22)))
        CFI (cfiCond60) VB load(1, XDATA, add(CFA_XSP16, literal(-21)))
        CFI (cfiCond60) V0 load(1, XDATA, add(CFA_XSP16, literal(-20)))
        CFI (cfiCond60) V1 load(1, XDATA, add(CFA_XSP16, literal(-19)))
        CFI (cfiCond60) V2 load(1, XDATA, add(CFA_XSP16, literal(-18)))
        CFI (cfiCond60) V3 load(1, XDATA, add(CFA_XSP16, literal(-17)))
        CFI (cfiCond60) V4 load(1, XDATA, add(CFA_XSP16, literal(-16)))
        CFI (cfiCond60) V5 load(1, XDATA, add(CFA_XSP16, literal(-15)))
        CFI (cfiCond60) V6 load(1, XDATA, add(CFA_XSP16, literal(-14)))
        CFI (cfiCond60) V7 load(1, XDATA, add(CFA_XSP16, literal(-13)))
        CFI (cfiCond60) V8 load(1, XDATA, add(CFA_XSP16, literal(-12)))
        CFI (cfiCond60) V9 load(1, XDATA, add(CFA_XSP16, literal(-11)))
        CFI (cfiCond60) V10 load(1, XDATA, add(CFA_XSP16, literal(-10)))
        CFI (cfiCond60) V11 load(1, XDATA, add(CFA_XSP16, literal(-9)))
        CFI (cfiCond60) V12 load(1, XDATA, add(CFA_XSP16, literal(-8)))
        CFI (cfiCond60) V13 load(1, XDATA, add(CFA_XSP16, literal(-7)))
        CFI (cfiCond60) R7 load(1, XDATA, add(CFA_XSP16, literal(-6)))
        CFI (cfiCond60) ?RET_LOW load(1, XDATA, add(CFA_XSP16, literal(-5)))
        CFI (cfiCond60) ?RET_HIGH load(1, XDATA, add(CFA_XSP16, literal(-4)))
        CFI (cfiCond60) ?BRET_EXT load(1, XDATA, add(CFA_XSP16, literal(-3)))
        CFI (cfiCond60) DPL0 load(1, XDATA, add(CFA_XSP16, literal(-2)))
        CFI (cfiCond60) DPH0 load(1, XDATA, add(CFA_XSP16, literal(-1)))
        CFI (cfiCond60) CFA_SP SP+0
        CFI (cfiCond60) CFA_XSP16 add(XSP16, 36)
        CFI Block cfiCond61 Using cfiCommon0
        CFI (cfiCond61) NoFunction
        CFI (cfiCond61) Conditional ??CrossCallReturnLabel_25
        CFI (cfiCond61) R6 load(1, XDATA, add(CFA_XSP16, literal(-23)))
        CFI (cfiCond61) VB load(1, XDATA, add(CFA_XSP16, literal(-22)))
        CFI (cfiCond61) V0 load(1, XDATA, add(CFA_XSP16, literal(-21)))
        CFI (cfiCond61) V1 load(1, XDATA, add(CFA_XSP16, literal(-20)))
        CFI (cfiCond61) V2 load(1, XDATA, add(CFA_XSP16, literal(-19)))
        CFI (cfiCond61) V3 load(1, XDATA, add(CFA_XSP16, literal(-18)))
        CFI (cfiCond61) V4 load(1, XDATA, add(CFA_XSP16, literal(-17)))
        CFI (cfiCond61) V5 load(1, XDATA, add(CFA_XSP16, literal(-16)))
        CFI (cfiCond61) V6 load(1, XDATA, add(CFA_XSP16, literal(-15)))
        CFI (cfiCond61) V7 load(1, XDATA, add(CFA_XSP16, literal(-14)))
        CFI (cfiCond61) V8 load(1, XDATA, add(CFA_XSP16, literal(-13)))
        CFI (cfiCond61) V9 load(1, XDATA, add(CFA_XSP16, literal(-12)))
        CFI (cfiCond61) V10 load(1, XDATA, add(CFA_XSP16, literal(-11)))
        CFI (cfiCond61) V11 load(1, XDATA, add(CFA_XSP16, literal(-10)))
        CFI (cfiCond61) V12 load(1, XDATA, add(CFA_XSP16, literal(-9)))
        CFI (cfiCond61) V13 load(1, XDATA, add(CFA_XSP16, literal(-8)))
        CFI (cfiCond61) V14 load(1, XDATA, add(CFA_XSP16, literal(-7)))
        CFI (cfiCond61) R7 load(1, XDATA, add(CFA_XSP16, literal(-6)))
        CFI (cfiCond61) ?RET_LOW load(1, XDATA, add(CFA_XSP16, literal(-5)))
        CFI (cfiCond61) ?RET_HIGH load(1, XDATA, add(CFA_XSP16, literal(-4)))
        CFI (cfiCond61) ?BRET_EXT load(1, XDATA, add(CFA_XSP16, literal(-3)))
        CFI (cfiCond61) DPL0 load(1, XDATA, add(CFA_XSP16, literal(-2)))
        CFI (cfiCond61) DPH0 load(1, XDATA, add(CFA_XSP16, literal(-1)))
        CFI (cfiCond61) CFA_SP SP+0
        CFI (cfiCond61) CFA_XSP16 add(XSP16, 23)
        CFI Block cfiPicker62 Using cfiCommon1
        CFI (cfiPicker62) NoFunction
        CFI (cfiPicker62) Picker
        MOV     R2,#0x8
        MOV     R3,#0x0
        MOV     DPTR,#MT_TaskID
        MOVX    A,@DPTR
        MOV     R1,A
        LCALL   ??osal_set_event?relay
        RET
        CFI EndBlock cfiCond59
        CFI EndBlock cfiCond60
        CFI EndBlock cfiCond61
        CFI EndBlock cfiPicker62

        RSEG BANKED_CODE:CODE:NOROOT(0)
?Subroutine12:
        CFI Block cfiCond63 Using cfiCommon0
        CFI NoFunction
        CFI Conditional ??CrossCallReturnLabel_88
        CFI R6 load(1, XDATA, add(CFA_XSP16, literal(-22)))
        CFI VB load(1, XDATA, add(CFA_XSP16, literal(-21)))
        CFI V0 load(1, XDATA, add(CFA_XSP16, literal(-20)))
        CFI V1 load(1, XDATA, add(CFA_XSP16, literal(-19)))
        CFI V2 load(1, XDATA, add(CFA_XSP16, literal(-18)))
        CFI V3 load(1, XDATA, add(CFA_XSP16, literal(-17)))
        CFI V4 load(1, XDATA, add(CFA_XSP16, literal(-16)))
        CFI V5 load(1, XDATA, add(CFA_XSP16, literal(-15)))
        CFI V6 load(1, XDATA, add(CFA_XSP16, literal(-14)))
        CFI V7 load(1, XDATA, add(CFA_XSP16, literal(-13)))
        CFI V8 load(1, XDATA, add(CFA_XSP16, literal(-12)))
        CFI V9 load(1, XDATA, add(CFA_XSP16, literal(-11)))
        CFI V10 load(1, XDATA, add(CFA_XSP16, literal(-10)))
        CFI V11 load(1, XDATA, add(CFA_XSP16, literal(-9)))
        CFI V12 load(1, XDATA, add(CFA_XSP16, literal(-8)))
        CFI V13 load(1, XDATA, add(CFA_XSP16, literal(-7)))
        CFI R7 load(1, XDATA, add(CFA_XSP16, literal(-6)))
        CFI ?RET_LOW load(1, XDATA, add(CFA_XSP16, literal(-5)))
        CFI ?RET_HIGH load(1, XDATA, add(CFA_XSP16, literal(-4)))
        CFI ?BRET_EXT load(1, XDATA, add(CFA_XSP16, literal(-3)))
        CFI DPL0 load(1, XDATA, add(CFA_XSP16, literal(-2)))
        CFI DPH0 load(1, XDATA, add(CFA_XSP16, literal(-1)))
        CFI CFA_SP SP+0
        CFI CFA_XSP16 add(XSP16, 36)
        CFI Block cfiCond64 Using cfiCommon0
        CFI (cfiCond64) NoFunction
        CFI (cfiCond64) Conditional ??CrossCallReturnLabel_89
        CFI (cfiCond64) R6 load(1, XDATA, add(CFA_XSP16, literal(-23)))
        CFI (cfiCond64) VB load(1, XDATA, add(CFA_XSP16, literal(-22)))
        CFI (cfiCond64) V0 load(1, XDATA, add(CFA_XSP16, literal(-21)))
        CFI (cfiCond64) V1 load(1, XDATA, add(CFA_XSP16, literal(-20)))
        CFI (cfiCond64) V2 load(1, XDATA, add(CFA_XSP16, literal(-19)))
        CFI (cfiCond64) V3 load(1, XDATA, add(CFA_XSP16, literal(-18)))
        CFI (cfiCond64) V4 load(1, XDATA, add(CFA_XSP16, literal(-17)))
        CFI (cfiCond64) V5 load(1, XDATA, add(CFA_XSP16, literal(-16)))
        CFI (cfiCond64) V6 load(1, XDATA, add(CFA_XSP16, literal(-15)))
        CFI (cfiCond64) V7 load(1, XDATA, add(CFA_XSP16, literal(-14)))
        CFI (cfiCond64) V8 load(1, XDATA, add(CFA_XSP16, literal(-13)))
        CFI (cfiCond64) V9 load(1, XDATA, add(CFA_XSP16, literal(-12)))
        CFI (cfiCond64) V10 load(1, XDATA, add(CFA_XSP16, literal(-11)))
        CFI (cfiCond64) V11 load(1, XDATA, add(CFA_XSP16, literal(-10)))
        CFI (cfiCond64) V12 load(1, XDATA, add(CFA_XSP16, literal(-9)))
        CFI (cfiCond64) V13 load(1, XDATA, add(CFA_XSP16, literal(-8)))
        CFI (cfiCond64) V14 load(1, XDATA, add(CFA_XSP16, literal(-7)))
        CFI (cfiCond64) R7 load(1, XDATA, add(CFA_XSP16, literal(-6)))
        CFI (cfiCond64) ?RET_LOW load(1, XDATA, add(CFA_XSP16, literal(-5)))
        CFI (cfiCond64) ?RET_HIGH load(1, XDATA, add(CFA_XSP16, literal(-4)))
        CFI (cfiCond64) ?BRET_EXT load(1, XDATA, add(CFA_XSP16, literal(-3)))
        CFI (cfiCond64) DPL0 load(1, XDATA, add(CFA_XSP16, literal(-2)))
        CFI (cfiCond64) DPH0 load(1, XDATA, add(CFA_XSP16, literal(-1)))
        CFI (cfiCond64) CFA_SP SP+0
        CFI (cfiCond64) CFA_XSP16 add(XSP16, 23)
        CFI Block cfiPicker65 Using cfiCommon1
        CFI (cfiPicker65) NoFunction
        CFI (cfiPicker65) Picker
        MOV     A,#0xf
        MOVX    @DPTR,A
        CFI EndBlock cfiCond63
        CFI EndBlock cfiCond64
        CFI EndBlock cfiPicker65
        ; Setup parameters for call to function osal_start_timerEx
        ; Setup parameters for call to function osal_start_timerEx
        REQUIRE ??Subroutine51_0
        ; // Fall through to label ??Subroutine51_0

        RSEG BANKED_CODE:CODE:NOROOT(0)
??Subroutine51_0:
        CFI Block cfiCond66 Using cfiCommon0
        CFI NoFunction
        CFI Conditional ??CrossCallReturnLabel_90
        CFI R6 load(1, XDATA, add(CFA_XSP16, literal(-9)))
        CFI VB load(1, XDATA, add(CFA_XSP16, literal(-8)))
        CFI V0 load(1, XDATA, add(CFA_XSP16, literal(-7)))
        CFI R7 load(1, XDATA, add(CFA_XSP16, literal(-6)))
        CFI ?RET_LOW load(1, XDATA, add(CFA_XSP16, literal(-5)))
        CFI ?RET_HIGH load(1, XDATA, add(CFA_XSP16, literal(-4)))
        CFI ?BRET_EXT load(1, XDATA, add(CFA_XSP16, literal(-3)))
        CFI DPL0 load(1, XDATA, add(CFA_XSP16, literal(-2)))
        CFI DPH0 load(1, XDATA, add(CFA_XSP16, literal(-1)))
        CFI CFA_SP SP+0
        CFI CFA_XSP16 add(XSP16, 9)
        CFI Block cfiCond67 Using cfiCommon0
        CFI (cfiCond67) NoFunction
        CFI (cfiCond67) Conditional ??CrossCallReturnLabel_88
        CFI (cfiCond67) R6 load(1, XDATA, add(CFA_XSP16, literal(-22)))
        CFI (cfiCond67) VB load(1, XDATA, add(CFA_XSP16, literal(-21)))
        CFI (cfiCond67) V0 load(1, XDATA, add(CFA_XSP16, literal(-20)))
        CFI (cfiCond67) V1 load(1, XDATA, add(CFA_XSP16, literal(-19)))
        CFI (cfiCond67) V2 load(1, XDATA, add(CFA_XSP16, literal(-18)))
        CFI (cfiCond67) V3 load(1, XDATA, add(CFA_XSP16, literal(-17)))
        CFI (cfiCond67) V4 load(1, XDATA, add(CFA_XSP16, literal(-16)))
        CFI (cfiCond67) V5 load(1, XDATA, add(CFA_XSP16, literal(-15)))
        CFI (cfiCond67) V6 load(1, XDATA, add(CFA_XSP16, literal(-14)))
        CFI (cfiCond67) V7 load(1, XDATA, add(CFA_XSP16, literal(-13)))
        CFI (cfiCond67) V8 load(1, XDATA, add(CFA_XSP16, literal(-12)))
        CFI (cfiCond67) V9 load(1, XDATA, add(CFA_XSP16, literal(-11)))
        CFI (cfiCond67) V10 load(1, XDATA, add(CFA_XSP16, literal(-10)))
        CFI (cfiCond67) V11 load(1, XDATA, add(CFA_XSP16, literal(-9)))
        CFI (cfiCond67) V12 load(1, XDATA, add(CFA_XSP16, literal(-8)))
        CFI (cfiCond67) V13 load(1, XDATA, add(CFA_XSP16, literal(-7)))
        CFI (cfiCond67) R7 load(1, XDATA, add(CFA_XSP16, literal(-6)))
        CFI (cfiCond67) ?RET_LOW load(1, XDATA, add(CFA_XSP16, literal(-5)))
        CFI (cfiCond67) ?RET_HIGH load(1, XDATA, add(CFA_XSP16, literal(-4)))
        CFI (cfiCond67) ?BRET_EXT load(1, XDATA, add(CFA_XSP16, literal(-3)))
        CFI (cfiCond67) DPL0 load(1, XDATA, add(CFA_XSP16, literal(-2)))
        CFI (cfiCond67) DPH0 load(1, XDATA, add(CFA_XSP16, literal(-1)))
        CFI (cfiCond67) CFA_SP SP+0
        CFI (cfiCond67) CFA_XSP16 add(XSP16, 36)
        CFI Block cfiCond68 Using cfiCommon0
        CFI (cfiCond68) NoFunction
        CFI (cfiCond68) Conditional ??CrossCallReturnLabel_89
        CFI (cfiCond68) R6 load(1, XDATA, add(CFA_XSP16, literal(-23)))
        CFI (cfiCond68) VB load(1, XDATA, add(CFA_XSP16, literal(-22)))
        CFI (cfiCond68) V0 load(1, XDATA, add(CFA_XSP16, literal(-21)))
        CFI (cfiCond68) V1 load(1, XDATA, add(CFA_XSP16, literal(-20)))
        CFI (cfiCond68) V2 load(1, XDATA, add(CFA_XSP16, literal(-19)))
        CFI (cfiCond68) V3 load(1, XDATA, add(CFA_XSP16, literal(-18)))
        CFI (cfiCond68) V4 load(1, XDATA, add(CFA_XSP16, literal(-17)))
        CFI (cfiCond68) V5 load(1, XDATA, add(CFA_XSP16, literal(-16)))
        CFI (cfiCond68) V6 load(1, XDATA, add(CFA_XSP16, literal(-15)))
        CFI (cfiCond68) V7 load(1, XDATA, add(CFA_XSP16, literal(-14)))
        CFI (cfiCond68) V8 load(1, XDATA, add(CFA_XSP16, literal(-13)))
        CFI (cfiCond68) V9 load(1, XDATA, add(CFA_XSP16, literal(-12)))
        CFI (cfiCond68) V10 load(1, XDATA, add(CFA_XSP16, literal(-11)))
        CFI (cfiCond68) V11 load(1, XDATA, add(CFA_XSP16, literal(-10)))
        CFI (cfiCond68) V12 load(1, XDATA, add(CFA_XSP16, literal(-9)))
        CFI (cfiCond68) V13 load(1, XDATA, add(CFA_XSP16, literal(-8)))
        CFI (cfiCond68) V14 load(1, XDATA, add(CFA_XSP16, literal(-7)))
        CFI (cfiCond68) R7 load(1, XDATA, add(CFA_XSP16, literal(-6)))
        CFI (cfiCond68) ?RET_LOW load(1, XDATA, add(CFA_XSP16, literal(-5)))
        CFI (cfiCond68) ?RET_HIGH load(1, XDATA, add(CFA_XSP16, literal(-4)))
        CFI (cfiCond68) ?BRET_EXT load(1, XDATA, add(CFA_XSP16, literal(-3)))
        CFI (cfiCond68) DPL0 load(1, XDATA, add(CFA_XSP16, literal(-2)))
        CFI (cfiCond68) DPH0 load(1, XDATA, add(CFA_XSP16, literal(-1)))
        CFI (cfiCond68) CFA_SP SP+0
        CFI (cfiCond68) CFA_XSP16 add(XSP16, 23)
        CFI Block cfiPicker69 Using cfiCommon1
        CFI (cfiPicker69) NoFunction
        CFI (cfiPicker69) Picker
        MOV     R4,#-0x18
        MOV     R5,#0x3
        MOV     R2,#0x8
        MOV     R3,#0x0
        MOV     DPTR,#MT_TaskID
        MOVX    A,@DPTR
        MOV     R1,A
        LCALL   ??osal_start_timerEx?relay
        MOV     A,R1
        RET
        CFI EndBlock cfiCond66
        CFI EndBlock cfiCond67
        CFI EndBlock cfiCond68
        CFI EndBlock cfiPicker69

        RSEG BANKED_CODE:CODE:NOROOT(0)
?Subroutine3:
        CFI Block cfiCond70 Using cfiCommon0
        CFI NoFunction
        CFI Conditional ??CrossCallReturnLabel_92
        CFI R6 load(1, XDATA, add(CFA_XSP16, literal(-9)))
        CFI VB load(1, XDATA, add(CFA_XSP16, literal(-8)))
        CFI V0 load(1, XDATA, add(CFA_XSP16, literal(-7)))
        CFI R7 load(1, XDATA, add(CFA_XSP16, literal(-6)))
        CFI ?RET_LOW load(1, XDATA, add(CFA_XSP16, literal(-5)))
        CFI ?RET_HIGH load(1, XDATA, add(CFA_XSP16, literal(-4)))
        CFI ?BRET_EXT load(1, XDATA, add(CFA_XSP16, literal(-3)))
        CFI DPL0 load(1, XDATA, add(CFA_XSP16, literal(-2)))
        CFI DPH0 load(1, XDATA, add(CFA_XSP16, literal(-1)))
        CFI CFA_SP SP+0
        CFI CFA_XSP16 add(XSP16, 9)
        CFI Block cfiCond71 Using cfiCommon0
        CFI (cfiCond71) NoFunction
        CFI (cfiCond71) Conditional ??CrossCallReturnLabel_93
        CFI (cfiCond71) R6 load(1, XDATA, add(CFA_XSP16, literal(-9)))
        CFI (cfiCond71) VB load(1, XDATA, add(CFA_XSP16, literal(-8)))
        CFI (cfiCond71) V0 load(1, XDATA, add(CFA_XSP16, literal(-7)))
        CFI (cfiCond71) R7 load(1, XDATA, add(CFA_XSP16, literal(-6)))
        CFI (cfiCond71) ?RET_LOW load(1, XDATA, add(CFA_XSP16, literal(-5)))
        CFI (cfiCond71) ?RET_HIGH load(1, XDATA, add(CFA_XSP16, literal(-4)))
        CFI (cfiCond71) ?BRET_EXT load(1, XDATA, add(CFA_XSP16, literal(-3)))
        CFI (cfiCond71) DPL0 load(1, XDATA, add(CFA_XSP16, literal(-2)))
        CFI (cfiCond71) DPH0 load(1, XDATA, add(CFA_XSP16, literal(-1)))
        CFI (cfiCond71) CFA_SP SP+0
        CFI (cfiCond71) CFA_XSP16 add(XSP16, 9)
        CFI Block cfiCond72 Using cfiCommon0
        CFI (cfiCond72) NoFunction
        CFI (cfiCond72) Conditional ??CrossCallReturnLabel_94
        CFI (cfiCond72) R6 load(1, XDATA, add(CFA_XSP16, literal(-22)))
        CFI (cfiCond72) VB load(1, XDATA, add(CFA_XSP16, literal(-21)))
        CFI (cfiCond72) V0 load(1, XDATA, add(CFA_XSP16, literal(-20)))
        CFI (cfiCond72) V1 load(1, XDATA, add(CFA_XSP16, literal(-19)))
        CFI (cfiCond72) V2 load(1, XDATA, add(CFA_XSP16, literal(-18)))
        CFI (cfiCond72) V3 load(1, XDATA, add(CFA_XSP16, literal(-17)))
        CFI (cfiCond72) V4 load(1, XDATA, add(CFA_XSP16, literal(-16)))
        CFI (cfiCond72) V5 load(1, XDATA, add(CFA_XSP16, literal(-15)))
        CFI (cfiCond72) V6 load(1, XDATA, add(CFA_XSP16, literal(-14)))
        CFI (cfiCond72) V7 load(1, XDATA, add(CFA_XSP16, literal(-13)))
        CFI (cfiCond72) V8 load(1, XDATA, add(CFA_XSP16, literal(-12)))
        CFI (cfiCond72) V9 load(1, XDATA, add(CFA_XSP16, literal(-11)))
        CFI (cfiCond72) V10 load(1, XDATA, add(CFA_XSP16, literal(-10)))
        CFI (cfiCond72) V11 load(1, XDATA, add(CFA_XSP16, literal(-9)))
        CFI (cfiCond72) V12 load(1, XDATA, add(CFA_XSP16, literal(-8)))
        CFI (cfiCond72) V13 load(1, XDATA, add(CFA_XSP16, literal(-7)))
        CFI (cfiCond72) R7 load(1, XDATA, add(CFA_XSP16, literal(-6)))
        CFI (cfiCond72) ?RET_LOW load(1, XDATA, add(CFA_XSP16, literal(-5)))
        CFI (cfiCond72) ?RET_HIGH load(1, XDATA, add(CFA_XSP16, literal(-4)))
        CFI (cfiCond72) ?BRET_EXT load(1, XDATA, add(CFA_XSP16, literal(-3)))
        CFI (cfiCond72) DPL0 load(1, XDATA, add(CFA_XSP16, literal(-2)))
        CFI (cfiCond72) DPH0 load(1, XDATA, add(CFA_XSP16, literal(-1)))
        CFI (cfiCond72) CFA_SP SP+0
        CFI (cfiCond72) CFA_XSP16 add(XSP16, 36)
        CFI Block cfiCond73 Using cfiCommon0
        CFI (cfiCond73) NoFunction
        CFI (cfiCond73) Conditional ??CrossCallReturnLabel_95
        CFI (cfiCond73) R6 load(1, XDATA, add(CFA_XSP16, literal(-22)))
        CFI (cfiCond73) VB load(1, XDATA, add(CFA_XSP16, literal(-21)))
        CFI (cfiCond73) V0 load(1, XDATA, add(CFA_XSP16, literal(-20)))
        CFI (cfiCond73) V1 load(1, XDATA, add(CFA_XSP16, literal(-19)))
        CFI (cfiCond73) V2 load(1, XDATA, add(CFA_XSP16, literal(-18)))
        CFI (cfiCond73) V3 load(1, XDATA, add(CFA_XSP16, literal(-17)))
        CFI (cfiCond73) V4 load(1, XDATA, add(CFA_XSP16, literal(-16)))
        CFI (cfiCond73) V5 load(1, XDATA, add(CFA_XSP16, literal(-15)))
        CFI (cfiCond73) V6 load(1, XDATA, add(CFA_XSP16, literal(-14)))
        CFI (cfiCond73) V7 load(1, XDATA, add(CFA_XSP16, literal(-13)))
        CFI (cfiCond73) V8 load(1, XDATA, add(CFA_XSP16, literal(-12)))
        CFI (cfiCond73) V9 load(1, XDATA, add(CFA_XSP16, literal(-11)))
        CFI (cfiCond73) V10 load(1, XDATA, add(CFA_XSP16, literal(-10)))
        CFI (cfiCond73) V11 load(1, XDATA, add(CFA_XSP16, literal(-9)))
        CFI (cfiCond73) V12 load(1, XDATA, add(CFA_XSP16, literal(-8)))
        CFI (cfiCond73) V13 load(1, XDATA, add(CFA_XSP16, literal(-7)))
        CFI (cfiCond73) R7 load(1, XDATA, add(CFA_XSP16, literal(-6)))
        CFI (cfiCond73) ?RET_LOW load(1, XDATA, add(CFA_XSP16, literal(-5)))
        CFI (cfiCond73) ?RET_HIGH load(1, XDATA, add(CFA_XSP16, literal(-4)))
        CFI (cfiCond73) ?BRET_EXT load(1, XDATA, add(CFA_XSP16, literal(-3)))
        CFI (cfiCond73) DPL0 load(1, XDATA, add(CFA_XSP16, literal(-2)))
        CFI (cfiCond73) DPH0 load(1, XDATA, add(CFA_XSP16, literal(-1)))
        CFI (cfiCond73) CFA_SP SP+0
        CFI (cfiCond73) CFA_XSP16 add(XSP16, 36)
        CFI Block cfiCond74 Using cfiCommon0
        CFI (cfiCond74) NoFunction
        CFI (cfiCond74) Conditional ??CrossCallReturnLabel_96
        CFI (cfiCond74) R6 load(1, XDATA, add(CFA_XSP16, literal(-11)))
        CFI (cfiCond74) VB load(1, XDATA, add(CFA_XSP16, literal(-10)))
        CFI (cfiCond74) V0 load(1, XDATA, add(CFA_XSP16, literal(-9)))
        CFI (cfiCond74) V1 load(1, XDATA, add(CFA_XSP16, literal(-8)))
        CFI (cfiCond74) V2 load(1, XDATA, add(CFA_XSP16, literal(-7)))
        CFI (cfiCond74) R7 load(1, XDATA, add(CFA_XSP16, literal(-6)))
        CFI (cfiCond74) ?RET_LOW load(1, XDATA, add(CFA_XSP16, literal(-5)))
        CFI (cfiCond74) ?RET_HIGH load(1, XDATA, add(CFA_XSP16, literal(-4)))
        CFI (cfiCond74) ?BRET_EXT load(1, XDATA, add(CFA_XSP16, literal(-3)))
        CFI (cfiCond74) DPL0 load(1, XDATA, add(CFA_XSP16, literal(-2)))
        CFI (cfiCond74) DPH0 load(1, XDATA, add(CFA_XSP16, literal(-1)))
        CFI (cfiCond74) CFA_SP SP+0
        CFI (cfiCond74) CFA_XSP16 add(XSP16, 12)
        CFI Block cfiPicker75 Using cfiCommon1
        CFI (cfiPicker75) NoFunction
        CFI (cfiPicker75) Picker
        MOV     DPTR,#pMtAfDataReq
        CFI EndBlock cfiCond70
        CFI EndBlock cfiCond71
        CFI EndBlock cfiCond72
        CFI EndBlock cfiCond73
        CFI EndBlock cfiCond74
        CFI EndBlock cfiPicker75
        REQUIRE ??Subroutine52_0
        ; // Fall through to label ??Subroutine52_0

        RSEG BANKED_CODE:CODE:NOROOT(0)
??Subroutine52_0:
        CFI Block cfiCond76 Using cfiCommon0
        CFI NoFunction
        CFI Conditional ??CrossCallReturnLabel_91
        CFI R6 load(1, XDATA, add(CFA_XSP16, literal(-9)))
        CFI VB load(1, XDATA, add(CFA_XSP16, literal(-8)))
        CFI V0 load(1, XDATA, add(CFA_XSP16, literal(-7)))
        CFI R7 load(1, XDATA, add(CFA_XSP16, literal(-6)))
        CFI ?RET_LOW load(1, XDATA, add(CFA_XSP16, literal(-5)))
        CFI ?RET_HIGH load(1, XDATA, add(CFA_XSP16, literal(-4)))
        CFI ?BRET_EXT load(1, XDATA, add(CFA_XSP16, literal(-3)))
        CFI DPL0 load(1, XDATA, add(CFA_XSP16, literal(-2)))
        CFI DPH0 load(1, XDATA, add(CFA_XSP16, literal(-1)))
        CFI CFA_SP SP+0
        CFI CFA_XSP16 add(XSP16, 9)
        CFI Block cfiCond77 Using cfiCommon0
        CFI (cfiCond77) NoFunction
        CFI (cfiCond77) Conditional ??CrossCallReturnLabel_92
        CFI (cfiCond77) R6 load(1, XDATA, add(CFA_XSP16, literal(-9)))
        CFI (cfiCond77) VB load(1, XDATA, add(CFA_XSP16, literal(-8)))
        CFI (cfiCond77) V0 load(1, XDATA, add(CFA_XSP16, literal(-7)))
        CFI (cfiCond77) R7 load(1, XDATA, add(CFA_XSP16, literal(-6)))
        CFI (cfiCond77) ?RET_LOW load(1, XDATA, add(CFA_XSP16, literal(-5)))
        CFI (cfiCond77) ?RET_HIGH load(1, XDATA, add(CFA_XSP16, literal(-4)))
        CFI (cfiCond77) ?BRET_EXT load(1, XDATA, add(CFA_XSP16, literal(-3)))
        CFI (cfiCond77) DPL0 load(1, XDATA, add(CFA_XSP16, literal(-2)))
        CFI (cfiCond77) DPH0 load(1, XDATA, add(CFA_XSP16, literal(-1)))
        CFI (cfiCond77) CFA_SP SP+0
        CFI (cfiCond77) CFA_XSP16 add(XSP16, 9)
        CFI Block cfiCond78 Using cfiCommon0
        CFI (cfiCond78) NoFunction
        CFI (cfiCond78) Conditional ??CrossCallReturnLabel_93
        CFI (cfiCond78) R6 load(1, XDATA, add(CFA_XSP16, literal(-9)))
        CFI (cfiCond78) VB load(1, XDATA, add(CFA_XSP16, literal(-8)))
        CFI (cfiCond78) V0 load(1, XDATA, add(CFA_XSP16, literal(-7)))
        CFI (cfiCond78) R7 load(1, XDATA, add(CFA_XSP16, literal(-6)))
        CFI (cfiCond78) ?RET_LOW load(1, XDATA, add(CFA_XSP16, literal(-5)))
        CFI (cfiCond78) ?RET_HIGH load(1, XDATA, add(CFA_XSP16, literal(-4)))
        CFI (cfiCond78) ?BRET_EXT load(1, XDATA, add(CFA_XSP16, literal(-3)))
        CFI (cfiCond78) DPL0 load(1, XDATA, add(CFA_XSP16, literal(-2)))
        CFI (cfiCond78) DPH0 load(1, XDATA, add(CFA_XSP16, literal(-1)))
        CFI (cfiCond78) CFA_SP SP+0
        CFI (cfiCond78) CFA_XSP16 add(XSP16, 9)
        CFI Block cfiCond79 Using cfiCommon0
        CFI (cfiCond79) NoFunction
        CFI (cfiCond79) Conditional ??CrossCallReturnLabel_94
        CFI (cfiCond79) R6 load(1, XDATA, add(CFA_XSP16, literal(-22)))
        CFI (cfiCond79) VB load(1, XDATA, add(CFA_XSP16, literal(-21)))
        CFI (cfiCond79) V0 load(1, XDATA, add(CFA_XSP16, literal(-20)))
        CFI (cfiCond79) V1 load(1, XDATA, add(CFA_XSP16, literal(-19)))
        CFI (cfiCond79) V2 load(1, XDATA, add(CFA_XSP16, literal(-18)))
        CFI (cfiCond79) V3 load(1, XDATA, add(CFA_XSP16, literal(-17)))
        CFI (cfiCond79) V4 load(1, XDATA, add(CFA_XSP16, literal(-16)))
        CFI (cfiCond79) V5 load(1, XDATA, add(CFA_XSP16, literal(-15)))
        CFI (cfiCond79) V6 load(1, XDATA, add(CFA_XSP16, literal(-14)))
        CFI (cfiCond79) V7 load(1, XDATA, add(CFA_XSP16, literal(-13)))
        CFI (cfiCond79) V8 load(1, XDATA, add(CFA_XSP16, literal(-12)))
        CFI (cfiCond79) V9 load(1, XDATA, add(CFA_XSP16, literal(-11)))
        CFI (cfiCond79) V10 load(1, XDATA, add(CFA_XSP16, literal(-10)))
        CFI (cfiCond79) V11 load(1, XDATA, add(CFA_XSP16, literal(-9)))
        CFI (cfiCond79) V12 load(1, XDATA, add(CFA_XSP16, literal(-8)))
        CFI (cfiCond79) V13 load(1, XDATA, add(CFA_XSP16, literal(-7)))
        CFI (cfiCond79) R7 load(1, XDATA, add(CFA_XSP16, literal(-6)))
        CFI (cfiCond79) ?RET_LOW load(1, XDATA, add(CFA_XSP16, literal(-5)))
        CFI (cfiCond79) ?RET_HIGH load(1, XDATA, add(CFA_XSP16, literal(-4)))
        CFI (cfiCond79) ?BRET_EXT load(1, XDATA, add(CFA_XSP16, literal(-3)))
        CFI (cfiCond79) DPL0 load(1, XDATA, add(CFA_XSP16, literal(-2)))
        CFI (cfiCond79) DPH0 load(1, XDATA, add(CFA_XSP16, literal(-1)))
        CFI (cfiCond79) CFA_SP SP+0
        CFI (cfiCond79) CFA_XSP16 add(XSP16, 36)
        CFI Block cfiCond80 Using cfiCommon0
        CFI (cfiCond80) NoFunction
        CFI (cfiCond80) Conditional ??CrossCallReturnLabel_95
        CFI (cfiCond80) R6 load(1, XDATA, add(CFA_XSP16, literal(-22)))
        CFI (cfiCond80) VB load(1, XDATA, add(CFA_XSP16, literal(-21)))
        CFI (cfiCond80) V0 load(1, XDATA, add(CFA_XSP16, literal(-20)))
        CFI (cfiCond80) V1 load(1, XDATA, add(CFA_XSP16, literal(-19)))
        CFI (cfiCond80) V2 load(1, XDATA, add(CFA_XSP16, literal(-18)))
        CFI (cfiCond80) V3 load(1, XDATA, add(CFA_XSP16, literal(-17)))
        CFI (cfiCond80) V4 load(1, XDATA, add(CFA_XSP16, literal(-16)))
        CFI (cfiCond80) V5 load(1, XDATA, add(CFA_XSP16, literal(-15)))
        CFI (cfiCond80) V6 load(1, XDATA, add(CFA_XSP16, literal(-14)))
        CFI (cfiCond80) V7 load(1, XDATA, add(CFA_XSP16, literal(-13)))
        CFI (cfiCond80) V8 load(1, XDATA, add(CFA_XSP16, literal(-12)))
        CFI (cfiCond80) V9 load(1, XDATA, add(CFA_XSP16, literal(-11)))
        CFI (cfiCond80) V10 load(1, XDATA, add(CFA_XSP16, literal(-10)))
        CFI (cfiCond80) V11 load(1, XDATA, add(CFA_XSP16, literal(-9)))
        CFI (cfiCond80) V12 load(1, XDATA, add(CFA_XSP16, literal(-8)))
        CFI (cfiCond80) V13 load(1, XDATA, add(CFA_XSP16, literal(-7)))
        CFI (cfiCond80) R7 load(1, XDATA, add(CFA_XSP16, literal(-6)))
        CFI (cfiCond80) ?RET_LOW load(1, XDATA, add(CFA_XSP16, literal(-5)))
        CFI (cfiCond80) ?RET_HIGH load(1, XDATA, add(CFA_XSP16, literal(-4)))
        CFI (cfiCond80) ?BRET_EXT load(1, XDATA, add(CFA_XSP16, literal(-3)))
        CFI (cfiCond80) DPL0 load(1, XDATA, add(CFA_XSP16, literal(-2)))
        CFI (cfiCond80) DPH0 load(1, XDATA, add(CFA_XSP16, literal(-1)))
        CFI (cfiCond80) CFA_SP SP+0
        CFI (cfiCond80) CFA_XSP16 add(XSP16, 36)
        CFI Block cfiCond81 Using cfiCommon0
        CFI (cfiCond81) NoFunction
        CFI (cfiCond81) Conditional ??CrossCallReturnLabel_96
        CFI (cfiCond81) R6 load(1, XDATA, add(CFA_XSP16, literal(-11)))
        CFI (cfiCond81) VB load(1, XDATA, add(CFA_XSP16, literal(-10)))
        CFI (cfiCond81) V0 load(1, XDATA, add(CFA_XSP16, literal(-9)))
        CFI (cfiCond81) V1 load(1, XDATA, add(CFA_XSP16, literal(-8)))
        CFI (cfiCond81) V2 load(1, XDATA, add(CFA_XSP16, literal(-7)))
        CFI (cfiCond81) R7 load(1, XDATA, add(CFA_XSP16, literal(-6)))
        CFI (cfiCond81) ?RET_LOW load(1, XDATA, add(CFA_XSP16, literal(-5)))
        CFI (cfiCond81) ?RET_HIGH load(1, XDATA, add(CFA_XSP16, literal(-4)))
        CFI (cfiCond81) ?BRET_EXT load(1, XDATA, add(CFA_XSP16, literal(-3)))
        CFI (cfiCond81) DPL0 load(1, XDATA, add(CFA_XSP16, literal(-2)))
        CFI (cfiCond81) DPH0 load(1, XDATA, add(CFA_XSP16, literal(-1)))
        CFI (cfiCond81) CFA_SP SP+0
        CFI (cfiCond81) CFA_XSP16 add(XSP16, 12)
        CFI Block cfiPicker82 Using cfiCommon1
        CFI (cfiPicker82) NoFunction
        CFI (cfiPicker82) Picker
        MOVX    A,@DPTR
        MOV     R0,A
        INC     DPTR
        MOVX    A,@DPTR
        MOV     R1,A
        MOV     A,R0
        ORL     A,R1
        RET
        CFI EndBlock cfiCond76
        CFI EndBlock cfiCond77
        CFI EndBlock cfiCond78
        CFI EndBlock cfiCond79
        CFI EndBlock cfiCond80
        CFI EndBlock cfiCond81
        CFI EndBlock cfiPicker82
//  423 
//  424 #if defined ( ZIGBEE_SOURCE_ROUTING )
//  425 
//  426 /***************************************************************************************************
//  427  * @fn      MT_AfDataRequestSrcRtg
//  428  *
//  429  * @brief   Process AF Register command
//  430  *
//  431  * @param   pBuf - pointer to the received buffer
//  432  *
//  433  * @return  none
//  434  ***************************************************************************************************/

        RSEG BANKED_CODE:CODE:NOROOT(0)
//  435 void MT_AfDataRequestSrcRtg(uint8 *pBuf)
MT_AfDataRequestSrcRtg:
        CFI Block cfiBlock83 Using cfiCommon0
        CFI Function MT_AfDataRequestSrcRtg
        CODE
//  436 {
        FUNCALL MT_AfDataRequestSrcRtg, osal_memset
        LOCFRAME ISTACK, 0, STACK
        LOCFRAME PSTACK, 0, STACK
        LOCFRAME XSTACK, 34, STACK
        LOCFRAME IOVERLAY, 0, STATIC
        LOCFRAME DOVERLAY, 0, STATIC
        ARGFRAME ISTACK, 0, STACK
        ARGFRAME PSTACK, 0, STACK
        ARGFRAME XSTACK, 34, STACK
        ARGFRAME IOVERLAY, 0, STATIC
        ARGFRAME DOVERLAY, 0, STATIC
        FUNCALL MT_AfDataRequestSrcRtg, afFindEndPointDesc
        LOCFRAME ISTACK, 0, STACK
        LOCFRAME PSTACK, 0, STACK
        LOCFRAME XSTACK, 34, STACK
        LOCFRAME IOVERLAY, 0, STATIC
        LOCFRAME DOVERLAY, 0, STATIC
        ARGFRAME ISTACK, 0, STACK
        ARGFRAME PSTACK, 0, STACK
        ARGFRAME XSTACK, 34, STACK
        ARGFRAME IOVERLAY, 0, STATIC
        ARGFRAME DOVERLAY, 0, STATIC
        FUNCALL MT_AfDataRequestSrcRtg, osal_mem_alloc
        LOCFRAME ISTACK, 0, STACK
        LOCFRAME PSTACK, 0, STACK
        LOCFRAME XSTACK, 34, STACK
        LOCFRAME IOVERLAY, 0, STATIC
        LOCFRAME DOVERLAY, 0, STATIC
        ARGFRAME ISTACK, 0, STACK
        ARGFRAME PSTACK, 0, STACK
        ARGFRAME XSTACK, 34, STACK
        ARGFRAME IOVERLAY, 0, STATIC
        ARGFRAME DOVERLAY, 0, STATIC
        FUNCALL MT_AfDataRequestSrcRtg, AF_DataRequestSrcRtg
        LOCFRAME ISTACK, 0, STACK
        LOCFRAME PSTACK, 0, STACK
        LOCFRAME XSTACK, 46, STACK
        LOCFRAME IOVERLAY, 0, STATIC
        LOCFRAME DOVERLAY, 0, STATIC
        ARGFRAME ISTACK, 0, STACK
        ARGFRAME PSTACK, 0, STACK
        ARGFRAME XSTACK, 46, STACK
        ARGFRAME IOVERLAY, 0, STATIC
        ARGFRAME DOVERLAY, 0, STATIC
        FUNCALL MT_AfDataRequestSrcRtg, osal_mem_free
        LOCFRAME ISTACK, 0, STACK
        LOCFRAME PSTACK, 0, STACK
        LOCFRAME XSTACK, 34, STACK
        LOCFRAME IOVERLAY, 0, STATIC
        LOCFRAME DOVERLAY, 0, STATIC
        ARGFRAME ISTACK, 0, STACK
        ARGFRAME PSTACK, 0, STACK
        ARGFRAME XSTACK, 34, STACK
        ARGFRAME IOVERLAY, 0, STATIC
        ARGFRAME DOVERLAY, 0, STATIC
        FUNCALL MT_AfDataRequestSrcRtg, MT_BuildAndSendZToolResponse
        LOCFRAME ISTACK, 0, STACK
        LOCFRAME PSTACK, 0, STACK
        LOCFRAME XSTACK, 34, STACK
        LOCFRAME IOVERLAY, 0, STATIC
        LOCFRAME DOVERLAY, 0, STATIC
        ARGFRAME ISTACK, 0, STACK
        ARGFRAME PSTACK, 0, STACK
        ARGFRAME XSTACK, 34, STACK
        ARGFRAME IOVERLAY, 0, STATIC
        ARGFRAME DOVERLAY, 0, STATIC
        MOV     A,#-0x14
        LCALL   ?BANKED_ENTER_XDATA
        CFI DPH0 load(1, XDATA, add(CFA_XSP16, literal(-1)))
        CFI DPL0 load(1, XDATA, add(CFA_XSP16, literal(-2)))
        CFI ?BRET_EXT load(1, XDATA, add(CFA_XSP16, literal(-3)))
        CFI ?RET_HIGH load(1, XDATA, add(CFA_XSP16, literal(-4)))
        CFI ?RET_LOW load(1, XDATA, add(CFA_XSP16, literal(-5)))
        CFI R7 load(1, XDATA, add(CFA_XSP16, literal(-6)))
        CFI V11 load(1, XDATA, add(CFA_XSP16, literal(-7)))
        CFI V10 load(1, XDATA, add(CFA_XSP16, literal(-8)))
        CFI V9 load(1, XDATA, add(CFA_XSP16, literal(-9)))
        CFI V8 load(1, XDATA, add(CFA_XSP16, literal(-10)))
        CFI V7 load(1, XDATA, add(CFA_XSP16, literal(-11)))
        CFI V6 load(1, XDATA, add(CFA_XSP16, literal(-12)))
        CFI V5 load(1, XDATA, add(CFA_XSP16, literal(-13)))
        CFI V4 load(1, XDATA, add(CFA_XSP16, literal(-14)))
        CFI V3 load(1, XDATA, add(CFA_XSP16, literal(-15)))
        CFI V2 load(1, XDATA, add(CFA_XSP16, literal(-16)))
        CFI V1 load(1, XDATA, add(CFA_XSP16, literal(-17)))
        CFI V0 load(1, XDATA, add(CFA_XSP16, literal(-18)))
        CFI VB load(1, XDATA, add(CFA_XSP16, literal(-19)))
        CFI R6 load(1, XDATA, add(CFA_XSP16, literal(-20)))
        CFI CFA_SP SP+0
        CFI CFA_XSP16 add(XSP16, 20)
        ; Saved register size: 20
        ; Auto size: 14
        MOV     A,#-0xe
        LCALL   ?ALLOC_XSTACK8
        CFI CFA_XSP16 add(XSP16, 34)
        MOV     A,R2
        MOV     R6,A
        MOV     A,R3
        MOV     R7,A
//  437   uint8 cmdId, dataLen = 0;
//  438   uint8 retValue = ZFailure;
        MOV     DPL,?XSP + 0
        MOV     DPH,?XSP + 1
        MOV     A,#0x1
        LCALL   ?Subroutine31 & 0xFFFF
//  439   endPointDesc_t *epDesc;
//  440   byte transId;
//  441   afAddrType_t dstAddr;
//  442   cId_t cId;
//  443   byte txOpts, radius, srcEP, relayCnt;
//  444   uint16 *pRelayList;
//  445   uint8 i;
//  446 
//  447   /* parse header */
//  448   cmdId = pBuf[MT_RPC_POS_CMD1];
??CrossCallReturnLabel_47:
        INC     DPTR
        MOVX    A,@DPTR
        MOV     ?V0 + 4,A
//  449   pBuf += MT_RPC_FRAME_HDR_SZ;
        MOV     A,R6
        ADD     A,#0x3
        INC     R6
        INC     R6
        INC     R6
        MOV     A,R7
        ADDC    A,#0x0
        MOV     R7,A
//  450 
//  451   /* Destination address */
//  452   /* Initialize the panID field to zero to avoid inter-pan */
//  453   osal_memset( &dstAddr, 0, sizeof(afAddrType_t) );
        ; Setup parameters for call to function osal_memset
        MOV     R4,#0xc
        MOV     R5,#0x0
        MOV     R1,#0x0
        MOV     A,#0x2
        LCALL   ?XSTACK_DISP0_8
        MOV     R2,DPL
        MOV     R3,DPH
        LCALL   ??osal_memset?relay
//  454   dstAddr.addrMode = afAddr16Bit;
        MOV     A,#0xa
        LCALL   ?XSTACK_DISP0_8
        MOV     A,#0x2
        MOVX    @DPTR,A
//  455   dstAddr.addr.shortAddr = BUILD_UINT16(pBuf[0], pBuf[1]);
        MOV     DPL,R6
        MOV     DPH,R7
        LCALL   ?Subroutine7 & 0xFFFF
??CrossCallReturnLabel_6:
        LCALL   ?XSTACK_DISP0_8
        LCALL   ?Subroutine33 & 0xFFFF
//  456   pBuf += 2;
??CrossCallReturnLabel_55:
        LCALL   ?Subroutine25 & 0xFFFF
//  457 
//  458   /* Destination endpoint */
//  459   dstAddr.endPoint = *pBuf++;
??CrossCallReturnLabel_32:
        PUSH    A
        CFI CFA_SP SP+-1
        MOV     A,#0xb
        LCALL   ?XSTACK_DISP0_8
        POP     A
        CFI CFA_SP SP+0
        LCALL   ?Subroutine31 & 0xFFFF
//  460 
//  461   /* Source endpoint */
//  462   srcEP = *pBuf++;
??CrossCallReturnLabel_48:
        MOVX    A,@DPTR
        MOV     R1,A
        INC     DPTR
        MOV     R6,DPL
        MOV     R7,DPH
//  463   epDesc = afFindEndPointDesc( srcEP );
        ; Setup parameters for call to function afFindEndPointDesc
        LCALL   ??afFindEndPointDesc?relay
        MOV     ?V0 + 2,R2
        MOV     ?V0 + 3,R3
//  464 
//  465   /* ClusterId */
//  466   cId = BUILD_UINT16(pBuf[0], pBuf[1]);
        MOV     DPL,R6
        MOV     DPH,R7
        LCALL   ?Subroutine6 & 0xFFFF
??CrossCallReturnLabel_2:
        MOV     ?V0 + 6,A
        CLR     A
        ADDC    A,R1
        MOV     ?V0 + 7,A
//  467   pBuf +=2;
        LCALL   ?Subroutine25 & 0xFFFF
//  468 
//  469   /* TransId */
//  470   transId = *pBuf++;
??CrossCallReturnLabel_33:
        PUSH    A
        CFI CFA_SP SP+-1
        MOV     A,#0x1
        LCALL   ?XSTACK_DISP0_8
        POP     A
        CFI CFA_SP SP+0
        LCALL   ?Subroutine31 & 0xFFFF
//  471 
//  472   /* TxOption */
//  473   txOpts = *pBuf++;
??CrossCallReturnLabel_49:
        MOVX    A,@DPTR
        MOV     ?V0 + 5,A
        INC     DPTR
//  474 
//  475   /* Radius */
//  476   radius = *pBuf++;
        MOVX    A,@DPTR
        MOV     ?V0 + 10,A
        INC     DPTR
//  477 
//  478   /* Source route relay count */
//  479   relayCnt = *pBuf++;
        MOVX    A,@DPTR
        MOV     ?V0 + 11,A
        INC     DPTR
        MOV     R6,DPL
        MOV     R7,DPH
//  480 
//  481   /* Convert the source route relay list */
//  482   if( (pRelayList = osal_mem_alloc( relayCnt * sizeof( uint16 ))) != NULL )
        ; Setup parameters for call to function osal_mem_alloc
        CLR     C
        RLC     A
        MOV     R2,A
        CLR     A
        RLC     A
        MOV     R3,A
        LCALL   ??osal_mem_alloc?relay
        MOV     ?V0 + 0,R2
        MOV     ?V0 + 1,R3
        MOV     A,R2
        ORL     A,?V0 + 1
        JNZ     $+5
        LJMP    ??MT_AfDataRequestSrcRtg_0 & 0xFFFF
//  483   {
//  484     for( i = 0; i < relayCnt; i++ )
        MOV     R4,#0x0
        SJMP    ??MT_AfDataRequestSrcRtg_1
//  485     {
//  486       pRelayList[i]  = BUILD_UINT16( pBuf[0], pBuf[1] );
??MT_AfDataRequestSrcRtg_2:
        MOV     R2,A
        INC     DPTR
        MOVX    A,@DPTR
        MOV     R1,A
        MOV     A,R2
        ADD     A,#0x0
        CLR     A
        ADDC    A,R1
        MOV     R3,A
        MOV     A,R4
        RLC     A
        MOV     R0,A
        CLR     A
        RLC     A
        MOV     R1,A
        MOV     A,?V0 + 0
        ADD     A,R0
        MOV     DPL,A
        MOV     A,?V0 + 1
        ADDC    A,R1
        MOV     DPH,A
        MOV     A,R2
        MOVX    @DPTR,A
        INC     DPTR
        MOV     A,R3
        MOVX    @DPTR,A
//  487       pBuf += 2;
        LCALL   ?Subroutine44 & 0xFFFF
//  488     }
??CrossCallReturnLabel_71:
        INC     R4
??MT_AfDataRequestSrcRtg_1:
        MOV     A,R4
        CLR     C
        SUBB    A,?V0 + 11
        MOV     DPL,R6
        MOV     DPH,R7
        MOVX    A,@DPTR
        JC      ??MT_AfDataRequestSrcRtg_2
//  489 
//  490     /* Data payload Length */
//  491     dataLen = *pBuf++;
        MOV     R1,A
        INC     DPTR
        MOV     R6,DPL
        MOV     R7,DPH
//  492 
//  493     if ( epDesc == NULL )
        MOV     A,?V0 + 2
        ORL     A,?V0 + 3
        JNZ     ??MT_AfDataRequestSrcRtg_3
//  494     {
//  495       retValue = afStatus_INVALID_PARAMETER;
        MOV     DPL,?XSP + 0
        MOV     DPH,?XSP + 1
        MOV     A,#0x2
        SJMP    ??MT_AfDataRequestSrcRtg_4
//  496     }
//  497     else
//  498     {
//  499       retValue = AF_DataRequestSrcRtg( &dstAddr, epDesc, cId, dataLen, pBuf,
//  500                                      &transId, txOpts, radius, relayCnt, pRelayList );
??MT_AfDataRequestSrcRtg_3:
        ; Setup parameters for call to function AF_DataRequestSrcRtg
        MOV     R0,#?V0 + 0
        LCALL   ?PUSH_XSTACK_I_TWO
        CFI CFA_XSP16 add(XSP16, 36)
        MOV     A,?V0 + 11
        MOV     ?V0 + 8,A
        MOV     R0,#?V0 + 8
        LCALL   ?PUSH_XSTACK_I_ONE
        CFI CFA_XSP16 add(XSP16, 37)
        MOV     A,?V0 + 10
        MOV     ?V0 + 8,A
        MOV     R0,#?V0 + 8
        LCALL   ?PUSH_XSTACK_I_ONE
        CFI CFA_XSP16 add(XSP16, 38)
        MOV     A,#0x5
        LCALL   ?XSTACK_DISP0_8
        MOV     ?V0 + 8,DPL
        MOV     ?V0 + 9,DPH
        MOV     R0,#?V0 + 8
        LCALL   ?PUSH_XSTACK_I_TWO
        CFI CFA_XSP16 add(XSP16, 40)
        MOV     ?V0 + 8,R6
        MOV     ?V0 + 9,R7
        MOV     R0,#?V0 + 8
        LCALL   ?PUSH_XSTACK_I_TWO
        CFI CFA_XSP16 add(XSP16, 42)
        MOV     ?V0 + 8,R1
        MOV     ?V0 + 9,#0x0
        MOV     R0,#?V0 + 8
        LCALL   ?PUSH_XSTACK_I_TWO
        CFI CFA_XSP16 add(XSP16, 44)
        MOV     R0,#?V0 + 6
        LCALL   ?PUSH_XSTACK_I_TWO
        CFI CFA_XSP16 add(XSP16, 46)
        MOV     R1,?V0 + 5
        MOV     R4,?V0 + 2
        MOV     R5,?V0 + 3
        MOV     A,#0xe
        LCALL   ?XSTACK_DISP0_8
        MOV     R2,DPL
        MOV     R3,DPH
        LCALL   ??AF_DataRequestSrcRtg?relay
        MOV     A,#0xc
        LCALL   ?DEALLOC_XSTACK8
        CFI CFA_XSP16 add(XSP16, 34)
        MOV     A,R1
        MOV     DPL,?XSP + 0
        MOV     DPH,?XSP + 1
??MT_AfDataRequestSrcRtg_4:
        MOVX    @DPTR,A
//  501     }
//  502 
//  503     /* Free the memory allocated */
//  504     osal_mem_free( pRelayList );
        ; Setup parameters for call to function osal_mem_free
        MOV     R2,?V0 + 0
        MOV     R3,?V0 + 1
        LCALL   ??osal_mem_free?relay
        SJMP    ??MT_AfDataRequestSrcRtg_5
//  505   }
//  506   else
//  507   {
//  508     retValue = afStatus_MEM_FAIL;
??MT_AfDataRequestSrcRtg_0:
        MOV     DPL,?XSP + 0
        MOV     DPH,?XSP + 1
        MOV     A,#0x10
        MOVX    @DPTR,A
//  509   }
//  510 
//  511 
//  512   /* Build and send back the response */
//  513   MT_BuildAndSendZToolResponse(((uint8)MT_RPC_CMD_SRSP | (uint8)MT_RPC_SYS_AF), cmdId, 1, &retValue);
??MT_AfDataRequestSrcRtg_5:
        ; Setup parameters for call to function MT_BuildAndSendZToolResponse
        MOV     DPL,?XSP + 0
        MOV     DPH,?XSP + 1
        MOV     R4,DPL
        MOV     R5,DPH
        MOV     R3,#0x1
        MOV     R2,?V0 + 4
        MOV     R1,#0x64
        LCALL   ??MT_BuildAndSendZToolResponse?relay
//  514 }
        MOV     A,#0xe
        LCALL   ?DEALLOC_XSTACK8
        CFI CFA_XSP16 add(XSP16, 20)
        MOV     R7,#0xc
        LJMP    ?BANKED_LEAVE_XDATA
        CFI EndBlock cfiBlock83

        RSEG BANKED_CODE:CODE:NOROOT(0)
?Subroutine31:
        CFI Block cfiCond84 Using cfiCommon0
        CFI NoFunction
        CFI Conditional ??CrossCallReturnLabel_47
        CFI R6 load(1, XDATA, add(CFA_XSP16, literal(-20)))
        CFI VB load(1, XDATA, add(CFA_XSP16, literal(-19)))
        CFI V0 load(1, XDATA, add(CFA_XSP16, literal(-18)))
        CFI V1 load(1, XDATA, add(CFA_XSP16, literal(-17)))
        CFI V2 load(1, XDATA, add(CFA_XSP16, literal(-16)))
        CFI V3 load(1, XDATA, add(CFA_XSP16, literal(-15)))
        CFI V4 load(1, XDATA, add(CFA_XSP16, literal(-14)))
        CFI V5 load(1, XDATA, add(CFA_XSP16, literal(-13)))
        CFI V6 load(1, XDATA, add(CFA_XSP16, literal(-12)))
        CFI V7 load(1, XDATA, add(CFA_XSP16, literal(-11)))
        CFI V8 load(1, XDATA, add(CFA_XSP16, literal(-10)))
        CFI V9 load(1, XDATA, add(CFA_XSP16, literal(-9)))
        CFI V10 load(1, XDATA, add(CFA_XSP16, literal(-8)))
        CFI V11 load(1, XDATA, add(CFA_XSP16, literal(-7)))
        CFI R7 load(1, XDATA, add(CFA_XSP16, literal(-6)))
        CFI ?RET_LOW load(1, XDATA, add(CFA_XSP16, literal(-5)))
        CFI ?RET_HIGH load(1, XDATA, add(CFA_XSP16, literal(-4)))
        CFI ?BRET_EXT load(1, XDATA, add(CFA_XSP16, literal(-3)))
        CFI DPL0 load(1, XDATA, add(CFA_XSP16, literal(-2)))
        CFI DPH0 load(1, XDATA, add(CFA_XSP16, literal(-1)))
        CFI CFA_SP SP+0
        CFI CFA_XSP16 add(XSP16, 34)
        CFI Block cfiCond85 Using cfiCommon0
        CFI (cfiCond85) NoFunction
        CFI (cfiCond85) Conditional ??CrossCallReturnLabel_48
        CFI (cfiCond85) R6 load(1, XDATA, add(CFA_XSP16, literal(-20)))
        CFI (cfiCond85) VB load(1, XDATA, add(CFA_XSP16, literal(-19)))
        CFI (cfiCond85) V0 load(1, XDATA, add(CFA_XSP16, literal(-18)))
        CFI (cfiCond85) V1 load(1, XDATA, add(CFA_XSP16, literal(-17)))
        CFI (cfiCond85) V2 load(1, XDATA, add(CFA_XSP16, literal(-16)))
        CFI (cfiCond85) V3 load(1, XDATA, add(CFA_XSP16, literal(-15)))
        CFI (cfiCond85) V4 load(1, XDATA, add(CFA_XSP16, literal(-14)))
        CFI (cfiCond85) V5 load(1, XDATA, add(CFA_XSP16, literal(-13)))
        CFI (cfiCond85) V6 load(1, XDATA, add(CFA_XSP16, literal(-12)))
        CFI (cfiCond85) V7 load(1, XDATA, add(CFA_XSP16, literal(-11)))
        CFI (cfiCond85) V8 load(1, XDATA, add(CFA_XSP16, literal(-10)))
        CFI (cfiCond85) V9 load(1, XDATA, add(CFA_XSP16, literal(-9)))
        CFI (cfiCond85) V10 load(1, XDATA, add(CFA_XSP16, literal(-8)))
        CFI (cfiCond85) V11 load(1, XDATA, add(CFA_XSP16, literal(-7)))
        CFI (cfiCond85) R7 load(1, XDATA, add(CFA_XSP16, literal(-6)))
        CFI (cfiCond85) ?RET_LOW load(1, XDATA, add(CFA_XSP16, literal(-5)))
        CFI (cfiCond85) ?RET_HIGH load(1, XDATA, add(CFA_XSP16, literal(-4)))
        CFI (cfiCond85) ?BRET_EXT load(1, XDATA, add(CFA_XSP16, literal(-3)))
        CFI (cfiCond85) DPL0 load(1, XDATA, add(CFA_XSP16, literal(-2)))
        CFI (cfiCond85) DPH0 load(1, XDATA, add(CFA_XSP16, literal(-1)))
        CFI (cfiCond85) CFA_SP SP+0
        CFI (cfiCond85) CFA_XSP16 add(XSP16, 34)
        CFI Block cfiCond86 Using cfiCommon0
        CFI (cfiCond86) NoFunction
        CFI (cfiCond86) Conditional ??CrossCallReturnLabel_49
        CFI (cfiCond86) R6 load(1, XDATA, add(CFA_XSP16, literal(-20)))
        CFI (cfiCond86) VB load(1, XDATA, add(CFA_XSP16, literal(-19)))
        CFI (cfiCond86) V0 load(1, XDATA, add(CFA_XSP16, literal(-18)))
        CFI (cfiCond86) V1 load(1, XDATA, add(CFA_XSP16, literal(-17)))
        CFI (cfiCond86) V2 load(1, XDATA, add(CFA_XSP16, literal(-16)))
        CFI (cfiCond86) V3 load(1, XDATA, add(CFA_XSP16, literal(-15)))
        CFI (cfiCond86) V4 load(1, XDATA, add(CFA_XSP16, literal(-14)))
        CFI (cfiCond86) V5 load(1, XDATA, add(CFA_XSP16, literal(-13)))
        CFI (cfiCond86) V6 load(1, XDATA, add(CFA_XSP16, literal(-12)))
        CFI (cfiCond86) V7 load(1, XDATA, add(CFA_XSP16, literal(-11)))
        CFI (cfiCond86) V8 load(1, XDATA, add(CFA_XSP16, literal(-10)))
        CFI (cfiCond86) V9 load(1, XDATA, add(CFA_XSP16, literal(-9)))
        CFI (cfiCond86) V10 load(1, XDATA, add(CFA_XSP16, literal(-8)))
        CFI (cfiCond86) V11 load(1, XDATA, add(CFA_XSP16, literal(-7)))
        CFI (cfiCond86) R7 load(1, XDATA, add(CFA_XSP16, literal(-6)))
        CFI (cfiCond86) ?RET_LOW load(1, XDATA, add(CFA_XSP16, literal(-5)))
        CFI (cfiCond86) ?RET_HIGH load(1, XDATA, add(CFA_XSP16, literal(-4)))
        CFI (cfiCond86) ?BRET_EXT load(1, XDATA, add(CFA_XSP16, literal(-3)))
        CFI (cfiCond86) DPL0 load(1, XDATA, add(CFA_XSP16, literal(-2)))
        CFI (cfiCond86) DPH0 load(1, XDATA, add(CFA_XSP16, literal(-1)))
        CFI (cfiCond86) CFA_SP SP+0
        CFI (cfiCond86) CFA_XSP16 add(XSP16, 34)
        CFI Block cfiPicker87 Using cfiCommon1
        CFI (cfiPicker87) NoFunction
        CFI (cfiPicker87) Picker
        MOVX    @DPTR,A
        MOV     DPL,R6
        MOV     DPH,R7
        INC     DPTR
        RET
        CFI EndBlock cfiCond84
        CFI EndBlock cfiCond85
        CFI EndBlock cfiCond86
        CFI EndBlock cfiPicker87

        RSEG BANKED_CODE:CODE:NOROOT(0)
?Subroutine25:
        CFI Block cfiCond88 Using cfiCommon0
        CFI NoFunction
        CFI Conditional ??CrossCallReturnLabel_32
        CFI R6 load(1, XDATA, add(CFA_XSP16, literal(-20)))
        CFI VB load(1, XDATA, add(CFA_XSP16, literal(-19)))
        CFI V0 load(1, XDATA, add(CFA_XSP16, literal(-18)))
        CFI V1 load(1, XDATA, add(CFA_XSP16, literal(-17)))
        CFI V2 load(1, XDATA, add(CFA_XSP16, literal(-16)))
        CFI V3 load(1, XDATA, add(CFA_XSP16, literal(-15)))
        CFI V4 load(1, XDATA, add(CFA_XSP16, literal(-14)))
        CFI V5 load(1, XDATA, add(CFA_XSP16, literal(-13)))
        CFI V6 load(1, XDATA, add(CFA_XSP16, literal(-12)))
        CFI V7 load(1, XDATA, add(CFA_XSP16, literal(-11)))
        CFI V8 load(1, XDATA, add(CFA_XSP16, literal(-10)))
        CFI V9 load(1, XDATA, add(CFA_XSP16, literal(-9)))
        CFI V10 load(1, XDATA, add(CFA_XSP16, literal(-8)))
        CFI V11 load(1, XDATA, add(CFA_XSP16, literal(-7)))
        CFI R7 load(1, XDATA, add(CFA_XSP16, literal(-6)))
        CFI ?RET_LOW load(1, XDATA, add(CFA_XSP16, literal(-5)))
        CFI ?RET_HIGH load(1, XDATA, add(CFA_XSP16, literal(-4)))
        CFI ?BRET_EXT load(1, XDATA, add(CFA_XSP16, literal(-3)))
        CFI DPL0 load(1, XDATA, add(CFA_XSP16, literal(-2)))
        CFI DPH0 load(1, XDATA, add(CFA_XSP16, literal(-1)))
        CFI CFA_SP SP+0
        CFI CFA_XSP16 add(XSP16, 34)
        CFI Block cfiCond89 Using cfiCommon0
        CFI (cfiCond89) NoFunction
        CFI (cfiCond89) Conditional ??CrossCallReturnLabel_33
        CFI (cfiCond89) R6 load(1, XDATA, add(CFA_XSP16, literal(-20)))
        CFI (cfiCond89) VB load(1, XDATA, add(CFA_XSP16, literal(-19)))
        CFI (cfiCond89) V0 load(1, XDATA, add(CFA_XSP16, literal(-18)))
        CFI (cfiCond89) V1 load(1, XDATA, add(CFA_XSP16, literal(-17)))
        CFI (cfiCond89) V2 load(1, XDATA, add(CFA_XSP16, literal(-16)))
        CFI (cfiCond89) V3 load(1, XDATA, add(CFA_XSP16, literal(-15)))
        CFI (cfiCond89) V4 load(1, XDATA, add(CFA_XSP16, literal(-14)))
        CFI (cfiCond89) V5 load(1, XDATA, add(CFA_XSP16, literal(-13)))
        CFI (cfiCond89) V6 load(1, XDATA, add(CFA_XSP16, literal(-12)))
        CFI (cfiCond89) V7 load(1, XDATA, add(CFA_XSP16, literal(-11)))
        CFI (cfiCond89) V8 load(1, XDATA, add(CFA_XSP16, literal(-10)))
        CFI (cfiCond89) V9 load(1, XDATA, add(CFA_XSP16, literal(-9)))
        CFI (cfiCond89) V10 load(1, XDATA, add(CFA_XSP16, literal(-8)))
        CFI (cfiCond89) V11 load(1, XDATA, add(CFA_XSP16, literal(-7)))
        CFI (cfiCond89) R7 load(1, XDATA, add(CFA_XSP16, literal(-6)))
        CFI (cfiCond89) ?RET_LOW load(1, XDATA, add(CFA_XSP16, literal(-5)))
        CFI (cfiCond89) ?RET_HIGH load(1, XDATA, add(CFA_XSP16, literal(-4)))
        CFI (cfiCond89) ?BRET_EXT load(1, XDATA, add(CFA_XSP16, literal(-3)))
        CFI (cfiCond89) DPL0 load(1, XDATA, add(CFA_XSP16, literal(-2)))
        CFI (cfiCond89) DPH0 load(1, XDATA, add(CFA_XSP16, literal(-1)))
        CFI (cfiCond89) CFA_SP SP+0
        CFI (cfiCond89) CFA_XSP16 add(XSP16, 34)
        CFI Block cfiPicker90 Using cfiCommon1
        CFI (cfiPicker90) NoFunction
        CFI (cfiPicker90) Picker
        LCALL   ?Subroutine44 & 0xFFFF
??CrossCallReturnLabel_72:
        MOV     DPL,R6
        MOV     DPH,R7
        MOVX    A,@DPTR
        RET
        CFI EndBlock cfiCond88
        CFI EndBlock cfiCond89
        CFI EndBlock cfiPicker90

        RSEG BANKED_CODE:CODE:NOROOT(0)
?Subroutine44:
        CFI Block cfiCond91 Using cfiCommon0
        CFI NoFunction
        CFI Conditional ??CrossCallReturnLabel_71
        CFI R6 load(1, XDATA, add(CFA_XSP16, literal(-20)))
        CFI VB load(1, XDATA, add(CFA_XSP16, literal(-19)))
        CFI V0 load(1, XDATA, add(CFA_XSP16, literal(-18)))
        CFI V1 load(1, XDATA, add(CFA_XSP16, literal(-17)))
        CFI V2 load(1, XDATA, add(CFA_XSP16, literal(-16)))
        CFI V3 load(1, XDATA, add(CFA_XSP16, literal(-15)))
        CFI V4 load(1, XDATA, add(CFA_XSP16, literal(-14)))
        CFI V5 load(1, XDATA, add(CFA_XSP16, literal(-13)))
        CFI V6 load(1, XDATA, add(CFA_XSP16, literal(-12)))
        CFI V7 load(1, XDATA, add(CFA_XSP16, literal(-11)))
        CFI V8 load(1, XDATA, add(CFA_XSP16, literal(-10)))
        CFI V9 load(1, XDATA, add(CFA_XSP16, literal(-9)))
        CFI V10 load(1, XDATA, add(CFA_XSP16, literal(-8)))
        CFI V11 load(1, XDATA, add(CFA_XSP16, literal(-7)))
        CFI R7 load(1, XDATA, add(CFA_XSP16, literal(-6)))
        CFI ?RET_LOW load(1, XDATA, add(CFA_XSP16, literal(-5)))
        CFI ?RET_HIGH load(1, XDATA, add(CFA_XSP16, literal(-4)))
        CFI ?BRET_EXT load(1, XDATA, add(CFA_XSP16, literal(-3)))
        CFI DPL0 load(1, XDATA, add(CFA_XSP16, literal(-2)))
        CFI DPH0 load(1, XDATA, add(CFA_XSP16, literal(-1)))
        CFI CFA_SP SP+0
        CFI CFA_XSP16 add(XSP16, 34)
        CFI Block cfiCond92 Using cfiCommon0
        CFI (cfiCond92) NoFunction
        CFI (cfiCond92) Conditional ??CrossCallReturnLabel_72, ??CrossCallReturnLabel_32
        CFI (cfiCond92) R6 load(1, XDATA, add(CFA_XSP16, literal(-20)))
        CFI (cfiCond92) VB load(1, XDATA, add(CFA_XSP16, literal(-19)))
        CFI (cfiCond92) V0 load(1, XDATA, add(CFA_XSP16, literal(-18)))
        CFI (cfiCond92) V1 load(1, XDATA, add(CFA_XSP16, literal(-17)))
        CFI (cfiCond92) V2 load(1, XDATA, add(CFA_XSP16, literal(-16)))
        CFI (cfiCond92) V3 load(1, XDATA, add(CFA_XSP16, literal(-15)))
        CFI (cfiCond92) V4 load(1, XDATA, add(CFA_XSP16, literal(-14)))
        CFI (cfiCond92) V5 load(1, XDATA, add(CFA_XSP16, literal(-13)))
        CFI (cfiCond92) V6 load(1, XDATA, add(CFA_XSP16, literal(-12)))
        CFI (cfiCond92) V7 load(1, XDATA, add(CFA_XSP16, literal(-11)))
        CFI (cfiCond92) V8 load(1, XDATA, add(CFA_XSP16, literal(-10)))
        CFI (cfiCond92) V9 load(1, XDATA, add(CFA_XSP16, literal(-9)))
        CFI (cfiCond92) V10 load(1, XDATA, add(CFA_XSP16, literal(-8)))
        CFI (cfiCond92) V11 load(1, XDATA, add(CFA_XSP16, literal(-7)))
        CFI (cfiCond92) R7 load(1, XDATA, add(CFA_XSP16, literal(-6)))
        CFI (cfiCond92) ?RET_LOW load(1, XDATA, add(CFA_XSP16, literal(-5)))
        CFI (cfiCond92) ?RET_HIGH load(1, XDATA, add(CFA_XSP16, literal(-4)))
        CFI (cfiCond92) ?BRET_EXT load(1, XDATA, add(CFA_XSP16, literal(-3)))
        CFI (cfiCond92) DPL0 load(1, XDATA, add(CFA_XSP16, literal(-2)))
        CFI (cfiCond92) DPH0 load(1, XDATA, add(CFA_XSP16, literal(-1)))
        CFI (cfiCond92) CFA_SP SP+0
        CFI (cfiCond92) CFA_XSP16 add(XSP16, 34)
        CFI Block cfiCond93 Using cfiCommon0
        CFI (cfiCond93) NoFunction
        CFI (cfiCond93) Conditional ??CrossCallReturnLabel_72, ??CrossCallReturnLabel_33
        CFI (cfiCond93) R6 load(1, XDATA, add(CFA_XSP16, literal(-20)))
        CFI (cfiCond93) VB load(1, XDATA, add(CFA_XSP16, literal(-19)))
        CFI (cfiCond93) V0 load(1, XDATA, add(CFA_XSP16, literal(-18)))
        CFI (cfiCond93) V1 load(1, XDATA, add(CFA_XSP16, literal(-17)))
        CFI (cfiCond93) V2 load(1, XDATA, add(CFA_XSP16, literal(-16)))
        CFI (cfiCond93) V3 load(1, XDATA, add(CFA_XSP16, literal(-15)))
        CFI (cfiCond93) V4 load(1, XDATA, add(CFA_XSP16, literal(-14)))
        CFI (cfiCond93) V5 load(1, XDATA, add(CFA_XSP16, literal(-13)))
        CFI (cfiCond93) V6 load(1, XDATA, add(CFA_XSP16, literal(-12)))
        CFI (cfiCond93) V7 load(1, XDATA, add(CFA_XSP16, literal(-11)))
        CFI (cfiCond93) V8 load(1, XDATA, add(CFA_XSP16, literal(-10)))
        CFI (cfiCond93) V9 load(1, XDATA, add(CFA_XSP16, literal(-9)))
        CFI (cfiCond93) V10 load(1, XDATA, add(CFA_XSP16, literal(-8)))
        CFI (cfiCond93) V11 load(1, XDATA, add(CFA_XSP16, literal(-7)))
        CFI (cfiCond93) R7 load(1, XDATA, add(CFA_XSP16, literal(-6)))
        CFI (cfiCond93) ?RET_LOW load(1, XDATA, add(CFA_XSP16, literal(-5)))
        CFI (cfiCond93) ?RET_HIGH load(1, XDATA, add(CFA_XSP16, literal(-4)))
        CFI (cfiCond93) ?BRET_EXT load(1, XDATA, add(CFA_XSP16, literal(-3)))
        CFI (cfiCond93) DPL0 load(1, XDATA, add(CFA_XSP16, literal(-2)))
        CFI (cfiCond93) DPH0 load(1, XDATA, add(CFA_XSP16, literal(-1)))
        CFI (cfiCond93) CFA_SP SP+0
        CFI (cfiCond93) CFA_XSP16 add(XSP16, 34)
        CFI Block cfiPicker94 Using cfiCommon1
        CFI (cfiPicker94) NoFunction
        CFI (cfiPicker94) Picker
        MOV     A,R6
        ADD     A,#0x2
        INC     R6
        INC     R6
        MOV     A,R7
        ADDC    A,#0x0
        MOV     R7,A
        RET
        CFI EndBlock cfiCond91
        CFI EndBlock cfiCond92
        CFI EndBlock cfiCond93
        CFI EndBlock cfiPicker94

        RSEG BANKED_CODE:CODE:NOROOT(0)
?Subroutine7:
        CFI Block cfiCond95 Using cfiCommon0
        CFI NoFunction
        CFI Conditional ??CrossCallReturnLabel_4
        CFI R6 load(1, XDATA, add(CFA_XSP16, literal(-22)))
        CFI VB load(1, XDATA, add(CFA_XSP16, literal(-21)))
        CFI V0 load(1, XDATA, add(CFA_XSP16, literal(-20)))
        CFI V1 load(1, XDATA, add(CFA_XSP16, literal(-19)))
        CFI V2 load(1, XDATA, add(CFA_XSP16, literal(-18)))
        CFI V3 load(1, XDATA, add(CFA_XSP16, literal(-17)))
        CFI V4 load(1, XDATA, add(CFA_XSP16, literal(-16)))
        CFI V5 load(1, XDATA, add(CFA_XSP16, literal(-15)))
        CFI V6 load(1, XDATA, add(CFA_XSP16, literal(-14)))
        CFI V7 load(1, XDATA, add(CFA_XSP16, literal(-13)))
        CFI V8 load(1, XDATA, add(CFA_XSP16, literal(-12)))
        CFI V9 load(1, XDATA, add(CFA_XSP16, literal(-11)))
        CFI V10 load(1, XDATA, add(CFA_XSP16, literal(-10)))
        CFI V11 load(1, XDATA, add(CFA_XSP16, literal(-9)))
        CFI V12 load(1, XDATA, add(CFA_XSP16, literal(-8)))
        CFI V13 load(1, XDATA, add(CFA_XSP16, literal(-7)))
        CFI R7 load(1, XDATA, add(CFA_XSP16, literal(-6)))
        CFI ?RET_LOW load(1, XDATA, add(CFA_XSP16, literal(-5)))
        CFI ?RET_HIGH load(1, XDATA, add(CFA_XSP16, literal(-4)))
        CFI ?BRET_EXT load(1, XDATA, add(CFA_XSP16, literal(-3)))
        CFI DPL0 load(1, XDATA, add(CFA_XSP16, literal(-2)))
        CFI DPH0 load(1, XDATA, add(CFA_XSP16, literal(-1)))
        CFI CFA_SP SP+0
        CFI CFA_XSP16 add(XSP16, 36)
        CFI Block cfiCond96 Using cfiCommon0
        CFI (cfiCond96) NoFunction
        CFI (cfiCond96) Conditional ??CrossCallReturnLabel_5
        CFI (cfiCond96) R6 load(1, XDATA, add(CFA_XSP16, literal(-22)))
        CFI (cfiCond96) VB load(1, XDATA, add(CFA_XSP16, literal(-21)))
        CFI (cfiCond96) V0 load(1, XDATA, add(CFA_XSP16, literal(-20)))
        CFI (cfiCond96) V1 load(1, XDATA, add(CFA_XSP16, literal(-19)))
        CFI (cfiCond96) V2 load(1, XDATA, add(CFA_XSP16, literal(-18)))
        CFI (cfiCond96) V3 load(1, XDATA, add(CFA_XSP16, literal(-17)))
        CFI (cfiCond96) V4 load(1, XDATA, add(CFA_XSP16, literal(-16)))
        CFI (cfiCond96) V5 load(1, XDATA, add(CFA_XSP16, literal(-15)))
        CFI (cfiCond96) V6 load(1, XDATA, add(CFA_XSP16, literal(-14)))
        CFI (cfiCond96) V7 load(1, XDATA, add(CFA_XSP16, literal(-13)))
        CFI (cfiCond96) V8 load(1, XDATA, add(CFA_XSP16, literal(-12)))
        CFI (cfiCond96) V9 load(1, XDATA, add(CFA_XSP16, literal(-11)))
        CFI (cfiCond96) V10 load(1, XDATA, add(CFA_XSP16, literal(-10)))
        CFI (cfiCond96) V11 load(1, XDATA, add(CFA_XSP16, literal(-9)))
        CFI (cfiCond96) V12 load(1, XDATA, add(CFA_XSP16, literal(-8)))
        CFI (cfiCond96) V13 load(1, XDATA, add(CFA_XSP16, literal(-7)))
        CFI (cfiCond96) R7 load(1, XDATA, add(CFA_XSP16, literal(-6)))
        CFI (cfiCond96) ?RET_LOW load(1, XDATA, add(CFA_XSP16, literal(-5)))
        CFI (cfiCond96) ?RET_HIGH load(1, XDATA, add(CFA_XSP16, literal(-4)))
        CFI (cfiCond96) ?BRET_EXT load(1, XDATA, add(CFA_XSP16, literal(-3)))
        CFI (cfiCond96) DPL0 load(1, XDATA, add(CFA_XSP16, literal(-2)))
        CFI (cfiCond96) DPH0 load(1, XDATA, add(CFA_XSP16, literal(-1)))
        CFI (cfiCond96) CFA_SP SP+0
        CFI (cfiCond96) CFA_XSP16 add(XSP16, 36)
        CFI Block cfiCond97 Using cfiCommon0
        CFI (cfiCond97) NoFunction
        CFI (cfiCond97) Conditional ??CrossCallReturnLabel_6
        CFI (cfiCond97) R6 load(1, XDATA, add(CFA_XSP16, literal(-20)))
        CFI (cfiCond97) VB load(1, XDATA, add(CFA_XSP16, literal(-19)))
        CFI (cfiCond97) V0 load(1, XDATA, add(CFA_XSP16, literal(-18)))
        CFI (cfiCond97) V1 load(1, XDATA, add(CFA_XSP16, literal(-17)))
        CFI (cfiCond97) V2 load(1, XDATA, add(CFA_XSP16, literal(-16)))
        CFI (cfiCond97) V3 load(1, XDATA, add(CFA_XSP16, literal(-15)))
        CFI (cfiCond97) V4 load(1, XDATA, add(CFA_XSP16, literal(-14)))
        CFI (cfiCond97) V5 load(1, XDATA, add(CFA_XSP16, literal(-13)))
        CFI (cfiCond97) V6 load(1, XDATA, add(CFA_XSP16, literal(-12)))
        CFI (cfiCond97) V7 load(1, XDATA, add(CFA_XSP16, literal(-11)))
        CFI (cfiCond97) V8 load(1, XDATA, add(CFA_XSP16, literal(-10)))
        CFI (cfiCond97) V9 load(1, XDATA, add(CFA_XSP16, literal(-9)))
        CFI (cfiCond97) V10 load(1, XDATA, add(CFA_XSP16, literal(-8)))
        CFI (cfiCond97) V11 load(1, XDATA, add(CFA_XSP16, literal(-7)))
        CFI (cfiCond97) R7 load(1, XDATA, add(CFA_XSP16, literal(-6)))
        CFI (cfiCond97) ?RET_LOW load(1, XDATA, add(CFA_XSP16, literal(-5)))
        CFI (cfiCond97) ?RET_HIGH load(1, XDATA, add(CFA_XSP16, literal(-4)))
        CFI (cfiCond97) ?BRET_EXT load(1, XDATA, add(CFA_XSP16, literal(-3)))
        CFI (cfiCond97) DPL0 load(1, XDATA, add(CFA_XSP16, literal(-2)))
        CFI (cfiCond97) DPH0 load(1, XDATA, add(CFA_XSP16, literal(-1)))
        CFI (cfiCond97) CFA_SP SP+0
        CFI (cfiCond97) CFA_XSP16 add(XSP16, 34)
        CFI Block cfiPicker98 Using cfiCommon1
        CFI (cfiPicker98) NoFunction
        CFI (cfiPicker98) Picker
        LCALL   ?Subroutine38 & 0xFFFF
??CrossCallReturnLabel_65:
        MOV     R0,A
        MOV     A,#0x2
        RET
        CFI EndBlock cfiCond95
        CFI EndBlock cfiCond96
        CFI EndBlock cfiCond97
        CFI EndBlock cfiPicker98

        RSEG BANKED_CODE:CODE:NOROOT(0)
?Subroutine38:
        CFI Block cfiCond99 Using cfiCommon0
        CFI NoFunction
        CFI Conditional ??CrossCallReturnLabel_63
        CFI R6 load(1, XDATA, add(CFA_XSP16, literal(-22)))
        CFI VB load(1, XDATA, add(CFA_XSP16, literal(-21)))
        CFI V0 load(1, XDATA, add(CFA_XSP16, literal(-20)))
        CFI V1 load(1, XDATA, add(CFA_XSP16, literal(-19)))
        CFI V2 load(1, XDATA, add(CFA_XSP16, literal(-18)))
        CFI V3 load(1, XDATA, add(CFA_XSP16, literal(-17)))
        CFI V4 load(1, XDATA, add(CFA_XSP16, literal(-16)))
        CFI V5 load(1, XDATA, add(CFA_XSP16, literal(-15)))
        CFI V6 load(1, XDATA, add(CFA_XSP16, literal(-14)))
        CFI V7 load(1, XDATA, add(CFA_XSP16, literal(-13)))
        CFI V8 load(1, XDATA, add(CFA_XSP16, literal(-12)))
        CFI V9 load(1, XDATA, add(CFA_XSP16, literal(-11)))
        CFI V10 load(1, XDATA, add(CFA_XSP16, literal(-10)))
        CFI V11 load(1, XDATA, add(CFA_XSP16, literal(-9)))
        CFI V12 load(1, XDATA, add(CFA_XSP16, literal(-8)))
        CFI V13 load(1, XDATA, add(CFA_XSP16, literal(-7)))
        CFI R7 load(1, XDATA, add(CFA_XSP16, literal(-6)))
        CFI ?RET_LOW load(1, XDATA, add(CFA_XSP16, literal(-5)))
        CFI ?RET_HIGH load(1, XDATA, add(CFA_XSP16, literal(-4)))
        CFI ?BRET_EXT load(1, XDATA, add(CFA_XSP16, literal(-3)))
        CFI DPL0 load(1, XDATA, add(CFA_XSP16, literal(-2)))
        CFI DPH0 load(1, XDATA, add(CFA_XSP16, literal(-1)))
        CFI CFA_SP SP+0
        CFI CFA_XSP16 add(XSP16, 36)
        CFI Block cfiCond100 Using cfiCommon0
        CFI (cfiCond100) NoFunction
        CFI (cfiCond100) Conditional ??CrossCallReturnLabel_65, ??CrossCallReturnLabel_4
        CFI (cfiCond100) R6 load(1, XDATA, add(CFA_XSP16, literal(-22)))
        CFI (cfiCond100) VB load(1, XDATA, add(CFA_XSP16, literal(-21)))
        CFI (cfiCond100) V0 load(1, XDATA, add(CFA_XSP16, literal(-20)))
        CFI (cfiCond100) V1 load(1, XDATA, add(CFA_XSP16, literal(-19)))
        CFI (cfiCond100) V2 load(1, XDATA, add(CFA_XSP16, literal(-18)))
        CFI (cfiCond100) V3 load(1, XDATA, add(CFA_XSP16, literal(-17)))
        CFI (cfiCond100) V4 load(1, XDATA, add(CFA_XSP16, literal(-16)))
        CFI (cfiCond100) V5 load(1, XDATA, add(CFA_XSP16, literal(-15)))
        CFI (cfiCond100) V6 load(1, XDATA, add(CFA_XSP16, literal(-14)))
        CFI (cfiCond100) V7 load(1, XDATA, add(CFA_XSP16, literal(-13)))
        CFI (cfiCond100) V8 load(1, XDATA, add(CFA_XSP16, literal(-12)))
        CFI (cfiCond100) V9 load(1, XDATA, add(CFA_XSP16, literal(-11)))
        CFI (cfiCond100) V10 load(1, XDATA, add(CFA_XSP16, literal(-10)))
        CFI (cfiCond100) V11 load(1, XDATA, add(CFA_XSP16, literal(-9)))
        CFI (cfiCond100) V12 load(1, XDATA, add(CFA_XSP16, literal(-8)))
        CFI (cfiCond100) V13 load(1, XDATA, add(CFA_XSP16, literal(-7)))
        CFI (cfiCond100) R7 load(1, XDATA, add(CFA_XSP16, literal(-6)))
        CFI (cfiCond100) ?RET_LOW load(1, XDATA, add(CFA_XSP16, literal(-5)))
        CFI (cfiCond100) ?RET_HIGH load(1, XDATA, add(CFA_XSP16, literal(-4)))
        CFI (cfiCond100) ?BRET_EXT load(1, XDATA, add(CFA_XSP16, literal(-3)))
        CFI (cfiCond100) DPL0 load(1, XDATA, add(CFA_XSP16, literal(-2)))
        CFI (cfiCond100) DPH0 load(1, XDATA, add(CFA_XSP16, literal(-1)))
        CFI (cfiCond100) CFA_SP SP+0
        CFI (cfiCond100) CFA_XSP16 add(XSP16, 36)
        CFI Block cfiCond101 Using cfiCommon0
        CFI (cfiCond101) NoFunction
        CFI (cfiCond101) Conditional ??CrossCallReturnLabel_65, ??CrossCallReturnLabel_5
        CFI (cfiCond101) R6 load(1, XDATA, add(CFA_XSP16, literal(-22)))
        CFI (cfiCond101) VB load(1, XDATA, add(CFA_XSP16, literal(-21)))
        CFI (cfiCond101) V0 load(1, XDATA, add(CFA_XSP16, literal(-20)))
        CFI (cfiCond101) V1 load(1, XDATA, add(CFA_XSP16, literal(-19)))
        CFI (cfiCond101) V2 load(1, XDATA, add(CFA_XSP16, literal(-18)))
        CFI (cfiCond101) V3 load(1, XDATA, add(CFA_XSP16, literal(-17)))
        CFI (cfiCond101) V4 load(1, XDATA, add(CFA_XSP16, literal(-16)))
        CFI (cfiCond101) V5 load(1, XDATA, add(CFA_XSP16, literal(-15)))
        CFI (cfiCond101) V6 load(1, XDATA, add(CFA_XSP16, literal(-14)))
        CFI (cfiCond101) V7 load(1, XDATA, add(CFA_XSP16, literal(-13)))
        CFI (cfiCond101) V8 load(1, XDATA, add(CFA_XSP16, literal(-12)))
        CFI (cfiCond101) V9 load(1, XDATA, add(CFA_XSP16, literal(-11)))
        CFI (cfiCond101) V10 load(1, XDATA, add(CFA_XSP16, literal(-10)))
        CFI (cfiCond101) V11 load(1, XDATA, add(CFA_XSP16, literal(-9)))
        CFI (cfiCond101) V12 load(1, XDATA, add(CFA_XSP16, literal(-8)))
        CFI (cfiCond101) V13 load(1, XDATA, add(CFA_XSP16, literal(-7)))
        CFI (cfiCond101) R7 load(1, XDATA, add(CFA_XSP16, literal(-6)))
        CFI (cfiCond101) ?RET_LOW load(1, XDATA, add(CFA_XSP16, literal(-5)))
        CFI (cfiCond101) ?RET_HIGH load(1, XDATA, add(CFA_XSP16, literal(-4)))
        CFI (cfiCond101) ?BRET_EXT load(1, XDATA, add(CFA_XSP16, literal(-3)))
        CFI (cfiCond101) DPL0 load(1, XDATA, add(CFA_XSP16, literal(-2)))
        CFI (cfiCond101) DPH0 load(1, XDATA, add(CFA_XSP16, literal(-1)))
        CFI (cfiCond101) CFA_SP SP+0
        CFI (cfiCond101) CFA_XSP16 add(XSP16, 36)
        CFI Block cfiCond102 Using cfiCommon0
        CFI (cfiCond102) NoFunction
        CFI (cfiCond102) Conditional ??CrossCallReturnLabel_65, ??CrossCallReturnLabel_6
        CFI (cfiCond102) R6 load(1, XDATA, add(CFA_XSP16, literal(-20)))
        CFI (cfiCond102) VB load(1, XDATA, add(CFA_XSP16, literal(-19)))
        CFI (cfiCond102) V0 load(1, XDATA, add(CFA_XSP16, literal(-18)))
        CFI (cfiCond102) V1 load(1, XDATA, add(CFA_XSP16, literal(-17)))
        CFI (cfiCond102) V2 load(1, XDATA, add(CFA_XSP16, literal(-16)))
        CFI (cfiCond102) V3 load(1, XDATA, add(CFA_XSP16, literal(-15)))
        CFI (cfiCond102) V4 load(1, XDATA, add(CFA_XSP16, literal(-14)))
        CFI (cfiCond102) V5 load(1, XDATA, add(CFA_XSP16, literal(-13)))
        CFI (cfiCond102) V6 load(1, XDATA, add(CFA_XSP16, literal(-12)))
        CFI (cfiCond102) V7 load(1, XDATA, add(CFA_XSP16, literal(-11)))
        CFI (cfiCond102) V8 load(1, XDATA, add(CFA_XSP16, literal(-10)))
        CFI (cfiCond102) V9 load(1, XDATA, add(CFA_XSP16, literal(-9)))
        CFI (cfiCond102) V10 load(1, XDATA, add(CFA_XSP16, literal(-8)))
        CFI (cfiCond102) V11 load(1, XDATA, add(CFA_XSP16, literal(-7)))
        CFI (cfiCond102) R7 load(1, XDATA, add(CFA_XSP16, literal(-6)))
        CFI (cfiCond102) ?RET_LOW load(1, XDATA, add(CFA_XSP16, literal(-5)))
        CFI (cfiCond102) ?RET_HIGH load(1, XDATA, add(CFA_XSP16, literal(-4)))
        CFI (cfiCond102) ?BRET_EXT load(1, XDATA, add(CFA_XSP16, literal(-3)))
        CFI (cfiCond102) DPL0 load(1, XDATA, add(CFA_XSP16, literal(-2)))
        CFI (cfiCond102) DPH0 load(1, XDATA, add(CFA_XSP16, literal(-1)))
        CFI (cfiCond102) CFA_SP SP+0
        CFI (cfiCond102) CFA_XSP16 add(XSP16, 34)
        CFI Block cfiCond103 Using cfiCommon0
        CFI (cfiCond103) NoFunction
        CFI (cfiCond103) Conditional ??CrossCallReturnLabel_64, ??CrossCallReturnLabel_0
        CFI (cfiCond103) R6 load(1, XDATA, add(CFA_XSP16, literal(-22)))
        CFI (cfiCond103) VB load(1, XDATA, add(CFA_XSP16, literal(-21)))
        CFI (cfiCond103) V0 load(1, XDATA, add(CFA_XSP16, literal(-20)))
        CFI (cfiCond103) V1 load(1, XDATA, add(CFA_XSP16, literal(-19)))
        CFI (cfiCond103) V2 load(1, XDATA, add(CFA_XSP16, literal(-18)))
        CFI (cfiCond103) V3 load(1, XDATA, add(CFA_XSP16, literal(-17)))
        CFI (cfiCond103) V4 load(1, XDATA, add(CFA_XSP16, literal(-16)))
        CFI (cfiCond103) V5 load(1, XDATA, add(CFA_XSP16, literal(-15)))
        CFI (cfiCond103) V6 load(1, XDATA, add(CFA_XSP16, literal(-14)))
        CFI (cfiCond103) V7 load(1, XDATA, add(CFA_XSP16, literal(-13)))
        CFI (cfiCond103) V8 load(1, XDATA, add(CFA_XSP16, literal(-12)))
        CFI (cfiCond103) V9 load(1, XDATA, add(CFA_XSP16, literal(-11)))
        CFI (cfiCond103) V10 load(1, XDATA, add(CFA_XSP16, literal(-10)))
        CFI (cfiCond103) V11 load(1, XDATA, add(CFA_XSP16, literal(-9)))
        CFI (cfiCond103) V12 load(1, XDATA, add(CFA_XSP16, literal(-8)))
        CFI (cfiCond103) V13 load(1, XDATA, add(CFA_XSP16, literal(-7)))
        CFI (cfiCond103) R7 load(1, XDATA, add(CFA_XSP16, literal(-6)))
        CFI (cfiCond103) ?RET_LOW load(1, XDATA, add(CFA_XSP16, literal(-5)))
        CFI (cfiCond103) ?RET_HIGH load(1, XDATA, add(CFA_XSP16, literal(-4)))
        CFI (cfiCond103) ?BRET_EXT load(1, XDATA, add(CFA_XSP16, literal(-3)))
        CFI (cfiCond103) DPL0 load(1, XDATA, add(CFA_XSP16, literal(-2)))
        CFI (cfiCond103) DPH0 load(1, XDATA, add(CFA_XSP16, literal(-1)))
        CFI (cfiCond103) CFA_SP SP+0
        CFI (cfiCond103) CFA_XSP16 add(XSP16, 36)
        CFI Block cfiCond104 Using cfiCommon0
        CFI (cfiCond104) NoFunction
        CFI (cfiCond104) Conditional ??CrossCallReturnLabel_64, ??CrossCallReturnLabel_1
        CFI (cfiCond104) R6 load(1, XDATA, add(CFA_XSP16, literal(-22)))
        CFI (cfiCond104) VB load(1, XDATA, add(CFA_XSP16, literal(-21)))
        CFI (cfiCond104) V0 load(1, XDATA, add(CFA_XSP16, literal(-20)))
        CFI (cfiCond104) V1 load(1, XDATA, add(CFA_XSP16, literal(-19)))
        CFI (cfiCond104) V2 load(1, XDATA, add(CFA_XSP16, literal(-18)))
        CFI (cfiCond104) V3 load(1, XDATA, add(CFA_XSP16, literal(-17)))
        CFI (cfiCond104) V4 load(1, XDATA, add(CFA_XSP16, literal(-16)))
        CFI (cfiCond104) V5 load(1, XDATA, add(CFA_XSP16, literal(-15)))
        CFI (cfiCond104) V6 load(1, XDATA, add(CFA_XSP16, literal(-14)))
        CFI (cfiCond104) V7 load(1, XDATA, add(CFA_XSP16, literal(-13)))
        CFI (cfiCond104) V8 load(1, XDATA, add(CFA_XSP16, literal(-12)))
        CFI (cfiCond104) V9 load(1, XDATA, add(CFA_XSP16, literal(-11)))
        CFI (cfiCond104) V10 load(1, XDATA, add(CFA_XSP16, literal(-10)))
        CFI (cfiCond104) V11 load(1, XDATA, add(CFA_XSP16, literal(-9)))
        CFI (cfiCond104) V12 load(1, XDATA, add(CFA_XSP16, literal(-8)))
        CFI (cfiCond104) V13 load(1, XDATA, add(CFA_XSP16, literal(-7)))
        CFI (cfiCond104) R7 load(1, XDATA, add(CFA_XSP16, literal(-6)))
        CFI (cfiCond104) ?RET_LOW load(1, XDATA, add(CFA_XSP16, literal(-5)))
        CFI (cfiCond104) ?RET_HIGH load(1, XDATA, add(CFA_XSP16, literal(-4)))
        CFI (cfiCond104) ?BRET_EXT load(1, XDATA, add(CFA_XSP16, literal(-3)))
        CFI (cfiCond104) DPL0 load(1, XDATA, add(CFA_XSP16, literal(-2)))
        CFI (cfiCond104) DPH0 load(1, XDATA, add(CFA_XSP16, literal(-1)))
        CFI (cfiCond104) CFA_SP SP+0
        CFI (cfiCond104) CFA_XSP16 add(XSP16, 36)
        CFI Block cfiCond105 Using cfiCommon0
        CFI (cfiCond105) NoFunction
        CFI (cfiCond105) Conditional ??CrossCallReturnLabel_64, ??CrossCallReturnLabel_2
        CFI (cfiCond105) R6 load(1, XDATA, add(CFA_XSP16, literal(-20)))
        CFI (cfiCond105) VB load(1, XDATA, add(CFA_XSP16, literal(-19)))
        CFI (cfiCond105) V0 load(1, XDATA, add(CFA_XSP16, literal(-18)))
        CFI (cfiCond105) V1 load(1, XDATA, add(CFA_XSP16, literal(-17)))
        CFI (cfiCond105) V2 load(1, XDATA, add(CFA_XSP16, literal(-16)))
        CFI (cfiCond105) V3 load(1, XDATA, add(CFA_XSP16, literal(-15)))
        CFI (cfiCond105) V4 load(1, XDATA, add(CFA_XSP16, literal(-14)))
        CFI (cfiCond105) V5 load(1, XDATA, add(CFA_XSP16, literal(-13)))
        CFI (cfiCond105) V6 load(1, XDATA, add(CFA_XSP16, literal(-12)))
        CFI (cfiCond105) V7 load(1, XDATA, add(CFA_XSP16, literal(-11)))
        CFI (cfiCond105) V8 load(1, XDATA, add(CFA_XSP16, literal(-10)))
        CFI (cfiCond105) V9 load(1, XDATA, add(CFA_XSP16, literal(-9)))
        CFI (cfiCond105) V10 load(1, XDATA, add(CFA_XSP16, literal(-8)))
        CFI (cfiCond105) V11 load(1, XDATA, add(CFA_XSP16, literal(-7)))
        CFI (cfiCond105) R7 load(1, XDATA, add(CFA_XSP16, literal(-6)))
        CFI (cfiCond105) ?RET_LOW load(1, XDATA, add(CFA_XSP16, literal(-5)))
        CFI (cfiCond105) ?RET_HIGH load(1, XDATA, add(CFA_XSP16, literal(-4)))
        CFI (cfiCond105) ?BRET_EXT load(1, XDATA, add(CFA_XSP16, literal(-3)))
        CFI (cfiCond105) DPL0 load(1, XDATA, add(CFA_XSP16, literal(-2)))
        CFI (cfiCond105) DPH0 load(1, XDATA, add(CFA_XSP16, literal(-1)))
        CFI (cfiCond105) CFA_SP SP+0
        CFI (cfiCond105) CFA_XSP16 add(XSP16, 34)
        CFI Block cfiCond106 Using cfiCommon0
        CFI (cfiCond106) NoFunction
        CFI (cfiCond106) Conditional ??CrossCallReturnLabel_64, ??CrossCallReturnLabel_3
        CFI (cfiCond106) R6 load(1, XDATA, add(CFA_XSP16, literal(-21)))
        CFI (cfiCond106) VB load(1, XDATA, add(CFA_XSP16, literal(-20)))
        CFI (cfiCond106) V0 load(1, XDATA, add(CFA_XSP16, literal(-19)))
        CFI (cfiCond106) V1 load(1, XDATA, add(CFA_XSP16, literal(-18)))
        CFI (cfiCond106) V2 load(1, XDATA, add(CFA_XSP16, literal(-17)))
        CFI (cfiCond106) V3 load(1, XDATA, add(CFA_XSP16, literal(-16)))
        CFI (cfiCond106) V4 load(1, XDATA, add(CFA_XSP16, literal(-15)))
        CFI (cfiCond106) V5 load(1, XDATA, add(CFA_XSP16, literal(-14)))
        CFI (cfiCond106) V6 load(1, XDATA, add(CFA_XSP16, literal(-13)))
        CFI (cfiCond106) V7 load(1, XDATA, add(CFA_XSP16, literal(-12)))
        CFI (cfiCond106) V8 load(1, XDATA, add(CFA_XSP16, literal(-11)))
        CFI (cfiCond106) V9 load(1, XDATA, add(CFA_XSP16, literal(-10)))
        CFI (cfiCond106) V10 load(1, XDATA, add(CFA_XSP16, literal(-9)))
        CFI (cfiCond106) V11 load(1, XDATA, add(CFA_XSP16, literal(-8)))
        CFI (cfiCond106) V12 load(1, XDATA, add(CFA_XSP16, literal(-7)))
        CFI (cfiCond106) R7 load(1, XDATA, add(CFA_XSP16, literal(-6)))
        CFI (cfiCond106) ?RET_LOW load(1, XDATA, add(CFA_XSP16, literal(-5)))
        CFI (cfiCond106) ?RET_HIGH load(1, XDATA, add(CFA_XSP16, literal(-4)))
        CFI (cfiCond106) ?BRET_EXT load(1, XDATA, add(CFA_XSP16, literal(-3)))
        CFI (cfiCond106) DPL0 load(1, XDATA, add(CFA_XSP16, literal(-2)))
        CFI (cfiCond106) DPH0 load(1, XDATA, add(CFA_XSP16, literal(-1)))
        CFI (cfiCond106) CFA_SP SP+0
        CFI (cfiCond106) CFA_XSP16 add(XSP16, 21)
        CFI Block cfiPicker107 Using cfiCommon1
        CFI (cfiPicker107) NoFunction
        CFI (cfiPicker107) Picker
        MOVX    A,@DPTR
        MOV     R2,A
        INC     DPTR
        MOVX    A,@DPTR
        MOV     R1,A
        MOV     A,R2
        RET
        CFI EndBlock cfiCond99
        CFI EndBlock cfiCond100
        CFI EndBlock cfiCond101
        CFI EndBlock cfiCond102
        CFI EndBlock cfiCond103
        CFI EndBlock cfiCond104
        CFI EndBlock cfiCond105
        CFI EndBlock cfiCond106
        CFI EndBlock cfiPicker107

        RSEG BANKED_CODE:CODE:NOROOT(0)
?Subroutine6:
        CFI Block cfiCond108 Using cfiCommon0
        CFI NoFunction
        CFI Conditional ??CrossCallReturnLabel_0
        CFI R6 load(1, XDATA, add(CFA_XSP16, literal(-22)))
        CFI VB load(1, XDATA, add(CFA_XSP16, literal(-21)))
        CFI V0 load(1, XDATA, add(CFA_XSP16, literal(-20)))
        CFI V1 load(1, XDATA, add(CFA_XSP16, literal(-19)))
        CFI V2 load(1, XDATA, add(CFA_XSP16, literal(-18)))
        CFI V3 load(1, XDATA, add(CFA_XSP16, literal(-17)))
        CFI V4 load(1, XDATA, add(CFA_XSP16, literal(-16)))
        CFI V5 load(1, XDATA, add(CFA_XSP16, literal(-15)))
        CFI V6 load(1, XDATA, add(CFA_XSP16, literal(-14)))
        CFI V7 load(1, XDATA, add(CFA_XSP16, literal(-13)))
        CFI V8 load(1, XDATA, add(CFA_XSP16, literal(-12)))
        CFI V9 load(1, XDATA, add(CFA_XSP16, literal(-11)))
        CFI V10 load(1, XDATA, add(CFA_XSP16, literal(-10)))
        CFI V11 load(1, XDATA, add(CFA_XSP16, literal(-9)))
        CFI V12 load(1, XDATA, add(CFA_XSP16, literal(-8)))
        CFI V13 load(1, XDATA, add(CFA_XSP16, literal(-7)))
        CFI R7 load(1, XDATA, add(CFA_XSP16, literal(-6)))
        CFI ?RET_LOW load(1, XDATA, add(CFA_XSP16, literal(-5)))
        CFI ?RET_HIGH load(1, XDATA, add(CFA_XSP16, literal(-4)))
        CFI ?BRET_EXT load(1, XDATA, add(CFA_XSP16, literal(-3)))
        CFI DPL0 load(1, XDATA, add(CFA_XSP16, literal(-2)))
        CFI DPH0 load(1, XDATA, add(CFA_XSP16, literal(-1)))
        CFI CFA_SP SP+0
        CFI CFA_XSP16 add(XSP16, 36)
        CFI Block cfiCond109 Using cfiCommon0
        CFI (cfiCond109) NoFunction
        CFI (cfiCond109) Conditional ??CrossCallReturnLabel_1
        CFI (cfiCond109) R6 load(1, XDATA, add(CFA_XSP16, literal(-22)))
        CFI (cfiCond109) VB load(1, XDATA, add(CFA_XSP16, literal(-21)))
        CFI (cfiCond109) V0 load(1, XDATA, add(CFA_XSP16, literal(-20)))
        CFI (cfiCond109) V1 load(1, XDATA, add(CFA_XSP16, literal(-19)))
        CFI (cfiCond109) V2 load(1, XDATA, add(CFA_XSP16, literal(-18)))
        CFI (cfiCond109) V3 load(1, XDATA, add(CFA_XSP16, literal(-17)))
        CFI (cfiCond109) V4 load(1, XDATA, add(CFA_XSP16, literal(-16)))
        CFI (cfiCond109) V5 load(1, XDATA, add(CFA_XSP16, literal(-15)))
        CFI (cfiCond109) V6 load(1, XDATA, add(CFA_XSP16, literal(-14)))
        CFI (cfiCond109) V7 load(1, XDATA, add(CFA_XSP16, literal(-13)))
        CFI (cfiCond109) V8 load(1, XDATA, add(CFA_XSP16, literal(-12)))
        CFI (cfiCond109) V9 load(1, XDATA, add(CFA_XSP16, literal(-11)))
        CFI (cfiCond109) V10 load(1, XDATA, add(CFA_XSP16, literal(-10)))
        CFI (cfiCond109) V11 load(1, XDATA, add(CFA_XSP16, literal(-9)))
        CFI (cfiCond109) V12 load(1, XDATA, add(CFA_XSP16, literal(-8)))
        CFI (cfiCond109) V13 load(1, XDATA, add(CFA_XSP16, literal(-7)))
        CFI (cfiCond109) R7 load(1, XDATA, add(CFA_XSP16, literal(-6)))
        CFI (cfiCond109) ?RET_LOW load(1, XDATA, add(CFA_XSP16, literal(-5)))
        CFI (cfiCond109) ?RET_HIGH load(1, XDATA, add(CFA_XSP16, literal(-4)))
        CFI (cfiCond109) ?BRET_EXT load(1, XDATA, add(CFA_XSP16, literal(-3)))
        CFI (cfiCond109) DPL0 load(1, XDATA, add(CFA_XSP16, literal(-2)))
        CFI (cfiCond109) DPH0 load(1, XDATA, add(CFA_XSP16, literal(-1)))
        CFI (cfiCond109) CFA_SP SP+0
        CFI (cfiCond109) CFA_XSP16 add(XSP16, 36)
        CFI Block cfiCond110 Using cfiCommon0
        CFI (cfiCond110) NoFunction
        CFI (cfiCond110) Conditional ??CrossCallReturnLabel_2
        CFI (cfiCond110) R6 load(1, XDATA, add(CFA_XSP16, literal(-20)))
        CFI (cfiCond110) VB load(1, XDATA, add(CFA_XSP16, literal(-19)))
        CFI (cfiCond110) V0 load(1, XDATA, add(CFA_XSP16, literal(-18)))
        CFI (cfiCond110) V1 load(1, XDATA, add(CFA_XSP16, literal(-17)))
        CFI (cfiCond110) V2 load(1, XDATA, add(CFA_XSP16, literal(-16)))
        CFI (cfiCond110) V3 load(1, XDATA, add(CFA_XSP16, literal(-15)))
        CFI (cfiCond110) V4 load(1, XDATA, add(CFA_XSP16, literal(-14)))
        CFI (cfiCond110) V5 load(1, XDATA, add(CFA_XSP16, literal(-13)))
        CFI (cfiCond110) V6 load(1, XDATA, add(CFA_XSP16, literal(-12)))
        CFI (cfiCond110) V7 load(1, XDATA, add(CFA_XSP16, literal(-11)))
        CFI (cfiCond110) V8 load(1, XDATA, add(CFA_XSP16, literal(-10)))
        CFI (cfiCond110) V9 load(1, XDATA, add(CFA_XSP16, literal(-9)))
        CFI (cfiCond110) V10 load(1, XDATA, add(CFA_XSP16, literal(-8)))
        CFI (cfiCond110) V11 load(1, XDATA, add(CFA_XSP16, literal(-7)))
        CFI (cfiCond110) R7 load(1, XDATA, add(CFA_XSP16, literal(-6)))
        CFI (cfiCond110) ?RET_LOW load(1, XDATA, add(CFA_XSP16, literal(-5)))
        CFI (cfiCond110) ?RET_HIGH load(1, XDATA, add(CFA_XSP16, literal(-4)))
        CFI (cfiCond110) ?BRET_EXT load(1, XDATA, add(CFA_XSP16, literal(-3)))
        CFI (cfiCond110) DPL0 load(1, XDATA, add(CFA_XSP16, literal(-2)))
        CFI (cfiCond110) DPH0 load(1, XDATA, add(CFA_XSP16, literal(-1)))
        CFI (cfiCond110) CFA_SP SP+0
        CFI (cfiCond110) CFA_XSP16 add(XSP16, 34)
        CFI Block cfiCond111 Using cfiCommon0
        CFI (cfiCond111) NoFunction
        CFI (cfiCond111) Conditional ??CrossCallReturnLabel_3
        CFI (cfiCond111) R6 load(1, XDATA, add(CFA_XSP16, literal(-21)))
        CFI (cfiCond111) VB load(1, XDATA, add(CFA_XSP16, literal(-20)))
        CFI (cfiCond111) V0 load(1, XDATA, add(CFA_XSP16, literal(-19)))
        CFI (cfiCond111) V1 load(1, XDATA, add(CFA_XSP16, literal(-18)))
        CFI (cfiCond111) V2 load(1, XDATA, add(CFA_XSP16, literal(-17)))
        CFI (cfiCond111) V3 load(1, XDATA, add(CFA_XSP16, literal(-16)))
        CFI (cfiCond111) V4 load(1, XDATA, add(CFA_XSP16, literal(-15)))
        CFI (cfiCond111) V5 load(1, XDATA, add(CFA_XSP16, literal(-14)))
        CFI (cfiCond111) V6 load(1, XDATA, add(CFA_XSP16, literal(-13)))
        CFI (cfiCond111) V7 load(1, XDATA, add(CFA_XSP16, literal(-12)))
        CFI (cfiCond111) V8 load(1, XDATA, add(CFA_XSP16, literal(-11)))
        CFI (cfiCond111) V9 load(1, XDATA, add(CFA_XSP16, literal(-10)))
        CFI (cfiCond111) V10 load(1, XDATA, add(CFA_XSP16, literal(-9)))
        CFI (cfiCond111) V11 load(1, XDATA, add(CFA_XSP16, literal(-8)))
        CFI (cfiCond111) V12 load(1, XDATA, add(CFA_XSP16, literal(-7)))
        CFI (cfiCond111) R7 load(1, XDATA, add(CFA_XSP16, literal(-6)))
        CFI (cfiCond111) ?RET_LOW load(1, XDATA, add(CFA_XSP16, literal(-5)))
        CFI (cfiCond111) ?RET_HIGH load(1, XDATA, add(CFA_XSP16, literal(-4)))
        CFI (cfiCond111) ?BRET_EXT load(1, XDATA, add(CFA_XSP16, literal(-3)))
        CFI (cfiCond111) DPL0 load(1, XDATA, add(CFA_XSP16, literal(-2)))
        CFI (cfiCond111) DPH0 load(1, XDATA, add(CFA_XSP16, literal(-1)))
        CFI (cfiCond111) CFA_SP SP+0
        CFI (cfiCond111) CFA_XSP16 add(XSP16, 21)
        CFI Block cfiPicker112 Using cfiCommon1
        CFI (cfiPicker112) NoFunction
        CFI (cfiPicker112) Picker
        LCALL   ?Subroutine38 & 0xFFFF
??CrossCallReturnLabel_64:
        ADD     A,#0x0
        RET
        CFI EndBlock cfiCond108
        CFI EndBlock cfiCond109
        CFI EndBlock cfiCond110
        CFI EndBlock cfiCond111
        CFI EndBlock cfiPicker112
//  515 #endif
//  516 
//  517 #if defined INTER_PAN
//  518 /***************************************************************************************************
//  519  * @fn      MT_AfInterPanCtl
//  520  *
//  521  * @brief   Process the AF Inter Pan control command.
//  522  *
//  523  * @param   pBuf - pointer to the received buffer
//  524  *
//  525  * @return  none
//  526  ***************************************************************************************************/

        RSEG BANKED_CODE:CODE:NOROOT(0)
//  527 static void MT_AfInterPanCtl(uint8 *pBuf)
MT_AfInterPanCtl:
        CFI Block cfiBlock113 Using cfiCommon0
        CFI Function MT_AfInterPanCtl
        CODE
//  528 {
        FUNCALL MT_AfInterPanCtl, StubAPS_SetIntraPanChannel
        LOCFRAME ISTACK, 0, STACK
        LOCFRAME PSTACK, 0, STACK
        LOCFRAME XSTACK, 12, STACK
        LOCFRAME IOVERLAY, 0, STATIC
        LOCFRAME DOVERLAY, 0, STATIC
        ARGFRAME ISTACK, 0, STACK
        ARGFRAME PSTACK, 0, STACK
        ARGFRAME XSTACK, 12, STACK
        ARGFRAME IOVERLAY, 0, STATIC
        ARGFRAME DOVERLAY, 0, STATIC
        FUNCALL MT_AfInterPanCtl, StubAPS_SetInterPanChannel
        LOCFRAME ISTACK, 0, STACK
        LOCFRAME PSTACK, 0, STACK
        LOCFRAME XSTACK, 12, STACK
        LOCFRAME IOVERLAY, 0, STATIC
        LOCFRAME DOVERLAY, 0, STATIC
        ARGFRAME ISTACK, 0, STACK
        ARGFRAME PSTACK, 0, STACK
        ARGFRAME XSTACK, 12, STACK
        ARGFRAME IOVERLAY, 0, STATIC
        ARGFRAME DOVERLAY, 0, STATIC
        FUNCALL MT_AfInterPanCtl, afFindEndPointDesc
        LOCFRAME ISTACK, 0, STACK
        LOCFRAME PSTACK, 0, STACK
        LOCFRAME XSTACK, 12, STACK
        LOCFRAME IOVERLAY, 0, STATIC
        LOCFRAME DOVERLAY, 0, STATIC
        ARGFRAME ISTACK, 0, STACK
        ARGFRAME PSTACK, 0, STACK
        ARGFRAME XSTACK, 12, STACK
        ARGFRAME IOVERLAY, 0, STATIC
        ARGFRAME DOVERLAY, 0, STATIC
        FUNCALL MT_AfInterPanCtl, StubAPS_RegisterApp
        LOCFRAME ISTACK, 0, STACK
        LOCFRAME PSTACK, 0, STACK
        LOCFRAME XSTACK, 12, STACK
        LOCFRAME IOVERLAY, 0, STATIC
        LOCFRAME DOVERLAY, 0, STATIC
        ARGFRAME ISTACK, 0, STACK
        ARGFRAME PSTACK, 0, STACK
        ARGFRAME XSTACK, 12, STACK
        ARGFRAME IOVERLAY, 0, STATIC
        ARGFRAME DOVERLAY, 0, STATIC
        FUNCALL MT_AfInterPanCtl, StubAPS_InterPan
        LOCFRAME ISTACK, 0, STACK
        LOCFRAME PSTACK, 0, STACK
        LOCFRAME XSTACK, 12, STACK
        LOCFRAME IOVERLAY, 0, STATIC
        LOCFRAME DOVERLAY, 0, STATIC
        ARGFRAME ISTACK, 0, STACK
        ARGFRAME PSTACK, 0, STACK
        ARGFRAME XSTACK, 12, STACK
        ARGFRAME IOVERLAY, 0, STATIC
        ARGFRAME DOVERLAY, 0, STATIC
        FUNCALL MT_AfInterPanCtl, MT_BuildAndSendZToolResponse
        LOCFRAME ISTACK, 0, STACK
        LOCFRAME PSTACK, 0, STACK
        LOCFRAME XSTACK, 12, STACK
        LOCFRAME IOVERLAY, 0, STATIC
        LOCFRAME DOVERLAY, 0, STATIC
        ARGFRAME ISTACK, 0, STACK
        ARGFRAME PSTACK, 0, STACK
        ARGFRAME XSTACK, 12, STACK
        ARGFRAME IOVERLAY, 0, STATIC
        ARGFRAME DOVERLAY, 0, STATIC
        MOV     A,#-0xa
        LCALL   ?BANKED_ENTER_XDATA
        CFI DPH0 load(1, XDATA, add(CFA_XSP16, literal(-1)))
        CFI DPL0 load(1, XDATA, add(CFA_XSP16, literal(-2)))
        CFI ?BRET_EXT load(1, XDATA, add(CFA_XSP16, literal(-3)))
        CFI ?RET_HIGH load(1, XDATA, add(CFA_XSP16, literal(-4)))
        CFI ?RET_LOW load(1, XDATA, add(CFA_XSP16, literal(-5)))
        CFI R7 load(1, XDATA, add(CFA_XSP16, literal(-6)))
        CFI V1 load(1, XDATA, add(CFA_XSP16, literal(-7)))
        CFI V0 load(1, XDATA, add(CFA_XSP16, literal(-8)))
        CFI VB load(1, XDATA, add(CFA_XSP16, literal(-9)))
        CFI R6 load(1, XDATA, add(CFA_XSP16, literal(-10)))
        CFI CFA_SP SP+0
        CFI CFA_XSP16 add(XSP16, 10)
        ; Saved register size: 10
        ; Auto size: 2
        MOV     A,#-0x2
        LCALL   ?ALLOC_XSTACK8
        CFI CFA_XSP16 add(XSP16, 12)
//  529   uint8 cmd, rtrn;
//  530   uint16 panId;
//  531   endPointDesc_t *pEP;
//  532 
//  533   cmd = pBuf[MT_RPC_POS_CMD1];
        MOV     DPL,R2
        MOV     DPH,R3
        INC     DPTR
        INC     DPTR
        MOVX    A,@DPTR
        MOV     R6,A
//  534   pBuf += MT_RPC_FRAME_HDR_SZ;
//  535 
//  536   switch (*pBuf++)  // Inter-pan request parameter.
        MOV     A,R2
        ADD     A,#0x3
        MOV     R0,A
        MOV     A,R3
        LCALL   ??Subroutine54_0 & 0xFFFF
??CrossCallReturnLabel_102:
        INC     DPTR
        MOV     R2,DPL
        MOV     R3,DPH
        MOV     DPL,R0
        MOV     DPH,R1
        MOVX    A,@DPTR
        JZ      ??MT_AfInterPanCtl_0
        DEC     A
        JZ      ??MT_AfInterPanCtl_1
        DEC     A
        JZ      ??MT_AfInterPanCtl_2
        DEC     A
        JZ      ??MT_AfInterPanCtl_3
        SJMP    ??MT_AfInterPanCtl_4
//  537   {
//  538   case InterPanClr:
//  539     rtrn = StubAPS_SetIntraPanChannel();           // Switch channel back to the NIB channel.
??MT_AfInterPanCtl_0:
        ; Setup parameters for call to function StubAPS_SetIntraPanChannel
        LCALL   ??StubAPS_SetIntraPanChannel?relay
??MT_AfInterPanCtl_5:
        MOV     A,R1
??MT_AfInterPanCtl_6:
        MOV     DPL,?XSP + 0
        MOV     DPH,?XSP + 1
        SJMP    ??MT_AfInterPanCtl_7
//  540     break;
//  541 
//  542   case InterPanSet:
//  543     rtrn = StubAPS_SetInterPanChannel(*pBuf);      // Set channel for inter-pan communication.
??MT_AfInterPanCtl_1:
        ; Setup parameters for call to function StubAPS_SetInterPanChannel
        MOV     DPL,R2
        MOV     DPH,R3
        MOVX    A,@DPTR
        MOV     R1,A
        LCALL   ??StubAPS_SetInterPanChannel?relay
        SJMP    ??MT_AfInterPanCtl_5
//  544     break;
//  545 
//  546   case InterPanReg:
//  547     if ((pEP = afFindEndPointDesc(*pBuf)))
??MT_AfInterPanCtl_2:
        ; Setup parameters for call to function afFindEndPointDesc
        MOV     DPL,R2
        MOV     DPH,R3
        MOVX    A,@DPTR
        MOV     R1,A
        LCALL   ??afFindEndPointDesc?relay
        MOV     A,R2
        ORL     A,R3
        JZ      ??MT_AfInterPanCtl_8
//  548     {
//  549       StubAPS_RegisterApp(pEP);
        ; Setup parameters for call to function StubAPS_RegisterApp
        LCALL   ??StubAPS_RegisterApp?relay
//  550       rtrn = SUCCESS;
        MOV     DPL,?XSP + 0
        MOV     DPH,?XSP + 1
        CLR     A
        SJMP    ??MT_AfInterPanCtl_7
//  551     }
//  552     else
//  553     {
//  554       rtrn = FAILURE;
??MT_AfInterPanCtl_8:
        MOV     DPL,?XSP + 0
        MOV     DPH,?XSP + 1
        MOV     A,#0x1
        SJMP    ??MT_AfInterPanCtl_7
//  555     }
//  556     break;
//  557 
//  558   case InterPanChk:
//  559     panId = BUILD_UINT16(pBuf[0], pBuf[1]);
//  560     rtrn = (StubAPS_InterPan(panId, pBuf[2])) ? ZSuccess : ZFailure;
??MT_AfInterPanCtl_3:
        ; Setup parameters for call to function StubAPS_InterPan
        MOV     DPL,R2
        MOV     DPH,R3
        INC     DPTR
        INC     DPTR
        MOVX    A,@DPTR
        MOV     R1,A
        MOV     DPL,R2
        MOV     DPH,R3
        MOVX    A,@DPTR
        MOV     R4,A
        INC     DPTR
        MOVX    A,@DPTR
        MOV     R3,A
        MOV     A,R4
        MOV     R2,A
        LCALL   ??StubAPS_InterPan?relay
        MOV     A,R1
        JZ      ??MT_AfInterPanCtl_9
        MOV     A,#0x1
        LCALL   ?XSTACK_DISP0_8
        CLR     A
        SJMP    ??MT_AfInterPanCtl_10
??MT_AfInterPanCtl_9:
        MOV     A,#0x1
        LCALL   ?XSTACK_DISP0_8
        MOV     A,#0x1
??MT_AfInterPanCtl_10:
        MOVX    @DPTR,A
        MOVX    A,@DPTR
        SJMP    ??MT_AfInterPanCtl_6
//  561     break;
//  562 
//  563   default:
//  564     rtrn = afStatus_INVALID_PARAMETER;
??MT_AfInterPanCtl_4:
        MOV     DPL,?XSP + 0
        MOV     DPH,?XSP + 1
        MOV     A,#0x2
??MT_AfInterPanCtl_7:
        MOVX    @DPTR,A
//  565     break;
//  566   }
//  567 
//  568   MT_BuildAndSendZToolResponse(((uint8)MT_RPC_CMD_SRSP | (uint8)MT_RPC_SYS_AF), cmd, 1, &rtrn);
        ; Setup parameters for call to function MT_BuildAndSendZToolResponse
        MOV     R4,DPL
        MOV     R5,DPH
        MOV     R3,#0x1
        MOV     A,R6
        MOV     R2,A
        MOV     R1,#0x64
        LCALL   ??MT_BuildAndSendZToolResponse?relay
//  569 }
        MOV     A,#0x2
        LCALL   ?DEALLOC_XSTACK8
        CFI CFA_XSP16 add(XSP16, 10)
        MOV     R7,#0x2
        LJMP    ?BANKED_LEAVE_XDATA
        CFI EndBlock cfiBlock113
//  570 #endif
//  571 
//  572 /***************************************************************************************************
//  573  * @fn      MT_AfDataConfirm
//  574  *
//  575  * @brief   Process
//  576  *
//  577  * @param   pBuf - pointer to the received buffer
//  578  *
//  579  * @return  none
//  580  ***************************************************************************************************/

        RSEG BANKED_CODE:CODE:NOROOT(0)
//  581 void MT_AfDataConfirm(afDataConfirm_t *pMsg)
MT_AfDataConfirm:
        CFI Block cfiBlock114 Using cfiCommon0
        CFI Function MT_AfDataConfirm
        CODE
//  582 {
        FUNCALL MT_AfDataConfirm, MT_BuildAndSendZToolResponse
        LOCFRAME ISTACK, 2, STACK
        LOCFRAME PSTACK, 0, STACK
        LOCFRAME XSTACK, 3, STACK
        LOCFRAME IOVERLAY, 0, STATIC
        LOCFRAME DOVERLAY, 0, STATIC
        ARGFRAME ISTACK, 2, STACK
        ARGFRAME PSTACK, 0, STACK
        ARGFRAME XSTACK, 3, STACK
        ARGFRAME IOVERLAY, 0, STATIC
        ARGFRAME DOVERLAY, 0, STATIC
        PUSH    DPL
        CFI DPL0 Frame(CFA_SP, 4)
        CFI CFA_SP SP+-4
        PUSH    DPH
        CFI DPH0 Frame(CFA_SP, 5)
        CFI CFA_SP SP+-5
        ; Saved register size: 2
        ; Auto size: 3
        MOV     A,#-0x3
        LCALL   ?ALLOC_XSTACK8
        CFI CFA_XSP16 add(XSP16, 3)
//  583   uint8 retArray[3];
//  584 
//  585   retArray[0] = pMsg->hdr.status;
        MOV     DPL,R2
        MOV     DPH,R3
        INC     DPTR
        MOVX    A,@DPTR
        MOV     DPL,?XSP + 0
        MOV     DPH,?XSP + 1
        LCALL   ?Subroutine34 & 0xFFFF
//  586   retArray[1] = pMsg->endpoint;
??CrossCallReturnLabel_60:
        PUSH    A
        CFI CFA_SP SP+-6
        MOV     A,#0x1
        LCALL   ?XSTACK_DISP0_8
        POP     A
        CFI CFA_SP SP+-5
        LCALL   ?Subroutine40 & 0xFFFF
//  587   retArray[2] = pMsg->transID;
??CrossCallReturnLabel_67:
        INC     DPTR
        INC     DPTR
        MOVX    A,@DPTR
        PUSH    A
        CFI CFA_SP SP+-6
        MOV     A,#0x2
        LCALL   ?XSTACK_DISP0_8
        POP     A
        CFI CFA_SP SP+-5
        LCALL   ?Subroutine30 & 0xFFFF
//  588 
//  589   /* Build and send back the response */
//  590   MT_BuildAndSendZToolResponse(((uint8)MT_RPC_CMD_AREQ | (uint8)MT_RPC_SYS_AF), MT_AF_DATA_CONFIRM, 3, retArray);
??CrossCallReturnLabel_45:
        MOV     R3,#0x3
        MOV     R2,#-0x80
        MOV     R1,#0x44
        LCALL   ??MT_BuildAndSendZToolResponse?relay
//  591 }
        MOV     A,#0x3
        LCALL   ?DEALLOC_XSTACK8
        CFI CFA_XSP16 XSP16+0
        POP     DPH
        CFI DPH0 SameValue
        CFI CFA_SP SP+-4
        POP     DPL
        CFI DPL0 SameValue
        CFI CFA_SP SP+-3
        LJMP    ?BRET
        CFI EndBlock cfiBlock114

        RSEG BANKED_CODE:CODE:NOROOT(0)
?Subroutine40:
        CFI Block cfiCond115 Using cfiCommon0
        CFI NoFunction
        CFI Conditional ??CrossCallReturnLabel_66
        CFI R6 load(1, XDATA, add(CFA_XSP16, literal(-22)))
        CFI VB load(1, XDATA, add(CFA_XSP16, literal(-21)))
        CFI V0 load(1, XDATA, add(CFA_XSP16, literal(-20)))
        CFI V1 load(1, XDATA, add(CFA_XSP16, literal(-19)))
        CFI V2 load(1, XDATA, add(CFA_XSP16, literal(-18)))
        CFI V3 load(1, XDATA, add(CFA_XSP16, literal(-17)))
        CFI V4 load(1, XDATA, add(CFA_XSP16, literal(-16)))
        CFI V5 load(1, XDATA, add(CFA_XSP16, literal(-15)))
        CFI V6 load(1, XDATA, add(CFA_XSP16, literal(-14)))
        CFI V7 load(1, XDATA, add(CFA_XSP16, literal(-13)))
        CFI V8 load(1, XDATA, add(CFA_XSP16, literal(-12)))
        CFI V9 load(1, XDATA, add(CFA_XSP16, literal(-11)))
        CFI V10 load(1, XDATA, add(CFA_XSP16, literal(-10)))
        CFI V11 load(1, XDATA, add(CFA_XSP16, literal(-9)))
        CFI V12 load(1, XDATA, add(CFA_XSP16, literal(-8)))
        CFI V13 load(1, XDATA, add(CFA_XSP16, literal(-7)))
        CFI R7 load(1, XDATA, add(CFA_XSP16, literal(-6)))
        CFI ?RET_LOW load(1, XDATA, add(CFA_XSP16, literal(-5)))
        CFI ?RET_HIGH load(1, XDATA, add(CFA_XSP16, literal(-4)))
        CFI ?BRET_EXT load(1, XDATA, add(CFA_XSP16, literal(-3)))
        CFI DPL0 load(1, XDATA, add(CFA_XSP16, literal(-2)))
        CFI DPH0 load(1, XDATA, add(CFA_XSP16, literal(-1)))
        CFI CFA_SP SP+0
        CFI CFA_XSP16 add(XSP16, 36)
        CFI Block cfiCond116 Using cfiCommon0
        CFI (cfiCond116) NoFunction
        CFI (cfiCond116) Conditional ??CrossCallReturnLabel_67
        CFI (cfiCond116) DPL0 Frame(CFA_SP, 4)
        CFI (cfiCond116) DPH0 Frame(CFA_SP, 5)
        CFI (cfiCond116) CFA_SP SP+-5
        CFI (cfiCond116) CFA_XSP16 add(XSP16, 3)
        CFI Block cfiCond117 Using cfiCommon0
        CFI (cfiCond117) NoFunction
        CFI (cfiCond117) Conditional ??CrossCallReturnLabel_68, ??CrossCallReturnLabel_59
        CFI (cfiCond117) R6 load(1, XDATA, add(CFA_XSP16, literal(-14)))
        CFI (cfiCond117) VB load(1, XDATA, add(CFA_XSP16, literal(-13)))
        CFI (cfiCond117) V0 load(1, XDATA, add(CFA_XSP16, literal(-12)))
        CFI (cfiCond117) V1 load(1, XDATA, add(CFA_XSP16, literal(-11)))
        CFI (cfiCond117) V2 load(1, XDATA, add(CFA_XSP16, literal(-10)))
        CFI (cfiCond117) V3 load(1, XDATA, add(CFA_XSP16, literal(-9)))
        CFI (cfiCond117) V4 load(1, XDATA, add(CFA_XSP16, literal(-8)))
        CFI (cfiCond117) V5 load(1, XDATA, add(CFA_XSP16, literal(-7)))
        CFI (cfiCond117) R7 load(1, XDATA, add(CFA_XSP16, literal(-6)))
        CFI (cfiCond117) ?RET_LOW load(1, XDATA, add(CFA_XSP16, literal(-5)))
        CFI (cfiCond117) ?RET_HIGH load(1, XDATA, add(CFA_XSP16, literal(-4)))
        CFI (cfiCond117) ?BRET_EXT load(1, XDATA, add(CFA_XSP16, literal(-3)))
        CFI (cfiCond117) DPL0 load(1, XDATA, add(CFA_XSP16, literal(-2)))
        CFI (cfiCond117) DPH0 load(1, XDATA, add(CFA_XSP16, literal(-1)))
        CFI (cfiCond117) CFA_SP SP+0
        CFI (cfiCond117) CFA_XSP16 add(XSP16, 15)
        CFI Block cfiCond118 Using cfiCommon0
        CFI (cfiCond118) NoFunction
        CFI (cfiCond118) Conditional ??CrossCallReturnLabel_68, ??CrossCallReturnLabel_60
        CFI (cfiCond118) DPL0 Frame(CFA_SP, 4)
        CFI (cfiCond118) DPH0 Frame(CFA_SP, 5)
        CFI (cfiCond118) CFA_SP SP+-5
        CFI (cfiCond118) CFA_XSP16 add(XSP16, 3)
        CFI Block cfiPicker119 Using cfiCommon1
        CFI (cfiPicker119) NoFunction
        CFI (cfiPicker119) Picker
        MOVX    @DPTR,A
        MOV     DPL,R2
        MOV     DPH,R3
        INC     DPTR
        RET
        CFI EndBlock cfiCond115
        CFI EndBlock cfiCond116
        CFI EndBlock cfiCond117
        CFI EndBlock cfiCond118
        CFI EndBlock cfiPicker119

        RSEG BANKED_CODE:CODE:NOROOT(0)
?Subroutine34:
        CFI Block cfiCond120 Using cfiCommon0
        CFI NoFunction
        CFI Conditional ??CrossCallReturnLabel_59
        CFI R6 load(1, XDATA, add(CFA_XSP16, literal(-14)))
        CFI VB load(1, XDATA, add(CFA_XSP16, literal(-13)))
        CFI V0 load(1, XDATA, add(CFA_XSP16, literal(-12)))
        CFI V1 load(1, XDATA, add(CFA_XSP16, literal(-11)))
        CFI V2 load(1, XDATA, add(CFA_XSP16, literal(-10)))
        CFI V3 load(1, XDATA, add(CFA_XSP16, literal(-9)))
        CFI V4 load(1, XDATA, add(CFA_XSP16, literal(-8)))
        CFI V5 load(1, XDATA, add(CFA_XSP16, literal(-7)))
        CFI R7 load(1, XDATA, add(CFA_XSP16, literal(-6)))
        CFI ?RET_LOW load(1, XDATA, add(CFA_XSP16, literal(-5)))
        CFI ?RET_HIGH load(1, XDATA, add(CFA_XSP16, literal(-4)))
        CFI ?BRET_EXT load(1, XDATA, add(CFA_XSP16, literal(-3)))
        CFI DPL0 load(1, XDATA, add(CFA_XSP16, literal(-2)))
        CFI DPH0 load(1, XDATA, add(CFA_XSP16, literal(-1)))
        CFI CFA_SP SP+0
        CFI CFA_XSP16 add(XSP16, 15)
        CFI Block cfiCond121 Using cfiCommon0
        CFI (cfiCond121) NoFunction
        CFI (cfiCond121) Conditional ??CrossCallReturnLabel_60
        CFI (cfiCond121) DPL0 Frame(CFA_SP, 4)
        CFI (cfiCond121) DPH0 Frame(CFA_SP, 5)
        CFI (cfiCond121) CFA_SP SP+-5
        CFI (cfiCond121) CFA_XSP16 add(XSP16, 3)
        CFI Block cfiPicker122 Using cfiCommon1
        CFI (cfiPicker122) NoFunction
        CFI (cfiPicker122) Picker
        LCALL   ?Subroutine40 & 0xFFFF
??CrossCallReturnLabel_68:
        INC     DPTR
        MOVX    A,@DPTR
        RET
        CFI EndBlock cfiCond120
        CFI EndBlock cfiCond121
        CFI EndBlock cfiPicker122
//  592 
//  593 /***************************************************************************************************
//  594  * @fn          MT_AfIncomingMsg
//  595  *
//  596  * @brief       Process the callback subscription for AF Incoming data.
//  597  *
//  598  * @param       pkt - Incoming AF data.
//  599  *
//  600  * @return      none
//  601  ***************************************************************************************************/

        RSEG BANKED_CODE:CODE:NOROOT(0)
//  602 void MT_AfIncomingMsg(afIncomingMSGPacket_t *pMsg)
MT_AfIncomingMsg:
        CFI Block cfiBlock123 Using cfiCommon0
        CFI Function MT_AfIncomingMsg
        CODE
//  603 {
        FUNCALL MT_AfIncomingMsg, StubAPS_InterPan
        LOCFRAME ISTACK, 0, STACK
        LOCFRAME PSTACK, 0, STACK
        LOCFRAME XSTACK, 23, STACK
        LOCFRAME IOVERLAY, 0, STATIC
        LOCFRAME DOVERLAY, 0, STATIC
        ARGFRAME ISTACK, 0, STACK
        ARGFRAME PSTACK, 0, STACK
        ARGFRAME XSTACK, 23, STACK
        ARGFRAME IOVERLAY, 0, STATIC
        ARGFRAME DOVERLAY, 0, STATIC
        FUNCALL MT_AfIncomingMsg, osal_mem_alloc
        LOCFRAME ISTACK, 0, STACK
        LOCFRAME PSTACK, 0, STACK
        LOCFRAME XSTACK, 23, STACK
        LOCFRAME IOVERLAY, 0, STATIC
        LOCFRAME DOVERLAY, 0, STATIC
        ARGFRAME ISTACK, 0, STACK
        ARGFRAME PSTACK, 0, STACK
        ARGFRAME XSTACK, 23, STACK
        ARGFRAME IOVERLAY, 0, STATIC
        ARGFRAME DOVERLAY, 0, STATIC
        FUNCALL MT_AfIncomingMsg, osal_mem_alloc
        LOCFRAME ISTACK, 0, STACK
        LOCFRAME PSTACK, 0, STACK
        LOCFRAME XSTACK, 23, STACK
        LOCFRAME IOVERLAY, 0, STATIC
        LOCFRAME DOVERLAY, 0, STATIC
        ARGFRAME ISTACK, 0, STACK
        ARGFRAME PSTACK, 0, STACK
        ARGFRAME XSTACK, 23, STACK
        ARGFRAME IOVERLAY, 0, STATIC
        ARGFRAME DOVERLAY, 0, STATIC
        FUNCALL MT_AfIncomingMsg, osal_mem_free
        LOCFRAME ISTACK, 0, STACK
        LOCFRAME PSTACK, 0, STACK
        LOCFRAME XSTACK, 23, STACK
        LOCFRAME IOVERLAY, 0, STATIC
        LOCFRAME DOVERLAY, 0, STATIC
        ARGFRAME ISTACK, 0, STACK
        ARGFRAME PSTACK, 0, STACK
        ARGFRAME XSTACK, 23, STACK
        ARGFRAME IOVERLAY, 0, STATIC
        ARGFRAME DOVERLAY, 0, STATIC
        FUNCALL MT_AfIncomingMsg, osal_memcpy
        LOCFRAME ISTACK, 0, STACK
        LOCFRAME PSTACK, 0, STACK
        LOCFRAME XSTACK, 26, STACK
        LOCFRAME IOVERLAY, 0, STATIC
        LOCFRAME DOVERLAY, 0, STATIC
        ARGFRAME ISTACK, 0, STACK
        ARGFRAME PSTACK, 0, STACK
        ARGFRAME XSTACK, 26, STACK
        ARGFRAME IOVERLAY, 0, STATIC
        ARGFRAME DOVERLAY, 0, STATIC
        FUNCALL MT_AfIncomingMsg, osal_start_timerEx
        LOCFRAME ISTACK, 0, STACK
        LOCFRAME PSTACK, 0, STACK
        LOCFRAME XSTACK, 23, STACK
        LOCFRAME IOVERLAY, 0, STATIC
        LOCFRAME DOVERLAY, 0, STATIC
        ARGFRAME ISTACK, 0, STACK
        ARGFRAME PSTACK, 0, STACK
        ARGFRAME XSTACK, 23, STACK
        ARGFRAME IOVERLAY, 0, STATIC
        ARGFRAME DOVERLAY, 0, STATIC
        FUNCALL MT_AfIncomingMsg, osal_set_event
        LOCFRAME ISTACK, 0, STACK
        LOCFRAME PSTACK, 0, STACK
        LOCFRAME XSTACK, 23, STACK
        LOCFRAME IOVERLAY, 0, STATIC
        LOCFRAME DOVERLAY, 0, STATIC
        ARGFRAME ISTACK, 0, STACK
        ARGFRAME PSTACK, 0, STACK
        ARGFRAME XSTACK, 23, STACK
        ARGFRAME IOVERLAY, 0, STATIC
        ARGFRAME DOVERLAY, 0, STATIC
        FUNCALL MT_AfIncomingMsg, osal_memcpy
        LOCFRAME ISTACK, 0, STACK
        LOCFRAME PSTACK, 0, STACK
        LOCFRAME XSTACK, 26, STACK
        LOCFRAME IOVERLAY, 0, STATIC
        LOCFRAME DOVERLAY, 0, STATIC
        ARGFRAME ISTACK, 0, STACK
        ARGFRAME PSTACK, 0, STACK
        ARGFRAME XSTACK, 26, STACK
        ARGFRAME IOVERLAY, 0, STATIC
        ARGFRAME DOVERLAY, 0, STATIC
        FUNCALL MT_AfIncomingMsg, osal_memcpy
        LOCFRAME ISTACK, 0, STACK
        LOCFRAME PSTACK, 0, STACK
        LOCFRAME XSTACK, 26, STACK
        LOCFRAME IOVERLAY, 0, STATIC
        LOCFRAME DOVERLAY, 0, STATIC
        ARGFRAME ISTACK, 0, STACK
        ARGFRAME PSTACK, 0, STACK
        ARGFRAME XSTACK, 26, STACK
        ARGFRAME IOVERLAY, 0, STATIC
        ARGFRAME DOVERLAY, 0, STATIC
        FUNCALL MT_AfIncomingMsg, MT_BuildAndSendZToolResponse
        LOCFRAME ISTACK, 0, STACK
        LOCFRAME PSTACK, 0, STACK
        LOCFRAME XSTACK, 23, STACK
        LOCFRAME IOVERLAY, 0, STATIC
        LOCFRAME DOVERLAY, 0, STATIC
        ARGFRAME ISTACK, 0, STACK
        ARGFRAME PSTACK, 0, STACK
        ARGFRAME XSTACK, 23, STACK
        ARGFRAME IOVERLAY, 0, STATIC
        ARGFRAME DOVERLAY, 0, STATIC
        FUNCALL MT_AfIncomingMsg, osal_mem_free
        LOCFRAME ISTACK, 0, STACK
        LOCFRAME PSTACK, 0, STACK
        LOCFRAME XSTACK, 23, STACK
        LOCFRAME IOVERLAY, 0, STATIC
        LOCFRAME DOVERLAY, 0, STATIC
        ARGFRAME ISTACK, 0, STACK
        ARGFRAME PSTACK, 0, STACK
        ARGFRAME XSTACK, 23, STACK
        ARGFRAME IOVERLAY, 0, STATIC
        ARGFRAME DOVERLAY, 0, STATIC
        MOV     A,#-0x17
        LCALL   ?BANKED_ENTER_XDATA
        CFI DPH0 load(1, XDATA, add(CFA_XSP16, literal(-1)))
        CFI DPL0 load(1, XDATA, add(CFA_XSP16, literal(-2)))
        CFI ?BRET_EXT load(1, XDATA, add(CFA_XSP16, literal(-3)))
        CFI ?RET_HIGH load(1, XDATA, add(CFA_XSP16, literal(-4)))
        CFI ?RET_LOW load(1, XDATA, add(CFA_XSP16, literal(-5)))
        CFI R7 load(1, XDATA, add(CFA_XSP16, literal(-6)))
        CFI V14 load(1, XDATA, add(CFA_XSP16, literal(-7)))
        CFI V13 load(1, XDATA, add(CFA_XSP16, literal(-8)))
        CFI V12 load(1, XDATA, add(CFA_XSP16, literal(-9)))
        CFI V11 load(1, XDATA, add(CFA_XSP16, literal(-10)))
        CFI V10 load(1, XDATA, add(CFA_XSP16, literal(-11)))
        CFI V9 load(1, XDATA, add(CFA_XSP16, literal(-12)))
        CFI V8 load(1, XDATA, add(CFA_XSP16, literal(-13)))
        CFI V7 load(1, XDATA, add(CFA_XSP16, literal(-14)))
        CFI V6 load(1, XDATA, add(CFA_XSP16, literal(-15)))
        CFI V5 load(1, XDATA, add(CFA_XSP16, literal(-16)))
        CFI V4 load(1, XDATA, add(CFA_XSP16, literal(-17)))
        CFI V3 load(1, XDATA, add(CFA_XSP16, literal(-18)))
        CFI V2 load(1, XDATA, add(CFA_XSP16, literal(-19)))
        CFI V1 load(1, XDATA, add(CFA_XSP16, literal(-20)))
        CFI V0 load(1, XDATA, add(CFA_XSP16, literal(-21)))
        CFI VB load(1, XDATA, add(CFA_XSP16, literal(-22)))
        CFI R6 load(1, XDATA, add(CFA_XSP16, literal(-23)))
        CFI CFA_SP SP+0
        CFI CFA_XSP16 add(XSP16, 23)
        ; Saved register size: 23
        ; Auto size: 0
        MOV     ?V0 + 8,R2
        MOV     ?V0 + 9,R3
//  604   #define MT_AF_INC_MSG_LEN  17
//  605   #define MT_AF_INC_MSG_EXT  10
//  606 
//  607   uint16 dataLen = pMsg->cmd.DataLength;  // Length of the data section in the response packet.
        MOV     A,R2
        ADD     A,#0x20
        LCALL   ?Subroutine21 & 0xFFFF
??CrossCallReturnLabel_75:
        MOV     R6,A
        INC     DPTR
        MOVX    A,@DPTR
        MOV     R7,A
//  608   uint16 respLen = MT_AF_INC_MSG_LEN + dataLen;
        MOV     A,R6
        ADD     A,#0x11
        MOV     ?V0 + 0,A
        MOV     A,R7
        ADDC    A,#0x0
        MOV     ?V0 + 1,A
//  609   uint8 cmd = MT_AF_INCOMING_MSG;
        MOV     ?V0 + 14,#-0x7f
//  610   uint8 *pRsp, *pTmp;
//  611   mtAfInMsgList_t *pItem = NULL;
        MOV     ?V0 + 10,#0x0
        MOV     ?V0 + 11,#0x0
//  612 
//  613 #if defined INTER_PAN
//  614   if (StubAPS_InterPan(pMsg->srcAddr.panId, pMsg->srcAddr.endPoint))
        ; Setup parameters for call to function StubAPS_InterPan
        MOV     A,R2
        ADD     A,#0xf
        LCALL   ?Subroutine21 & 0xFFFF
??CrossCallReturnLabel_76:
        MOV     R1,A
        MOV     A,R2
        ADD     A,#0x10
        LCALL   ?Subroutine21 & 0xFFFF
??CrossCallReturnLabel_77:
        MOV     R2,A
        INC     DPTR
        MOVX    A,@DPTR
        MOV     R3,A
        LCALL   ??StubAPS_InterPan?relay
        MOV     A,R1
        JZ      ??MT_AfIncomingMsg_0
//  615   {
//  616     cmd = MT_AF_INCOMING_MSG_EXT;
??MT_AfIncomingMsg_1:
        MOV     ?V0 + 14,#-0x7e
//  617   }
//  618   else
//  619 #endif
//  620   if ((pMsg->srcAddr.addrMode == afAddr64Bit) ||
//  621       (respLen > (uint16)(MT_RPC_DATA_MAX - MT_AF_INC_MSG_EXT)))
//  622   {
//  623     cmd = MT_AF_INCOMING_MSG_EXT;
//  624   }
//  625 
//  626   if (cmd == MT_AF_INCOMING_MSG_EXT)
//  627   {
//  628     respLen += MT_AF_INC_MSG_EXT;
        MOV     A,?V0 + 0
        ADD     A,#0xa
        MOV     ?V0 + 0,A
        MOV     A,?V0 + 1
        ADDC    A,#0x0
        MOV     ?V0 + 1,A
        SJMP    ??MT_AfIncomingMsg_2
//  629   }
??MT_AfIncomingMsg_0:
        MOV     A,?V0 + 8
        ADD     A,#0xe
        MOV     DPL,A
        MOV     A,?V0 + 9
        LCALL   ??Subroutine47_0 & 0xFFFF
??CrossCallReturnLabel_73:
        XRL     A,#0x3
        JZ      ??MT_AfIncomingMsg_1
        CLR     C
        MOV     A,?V0 + 0
        SUBB    A,#-0xf
        MOV     A,?V0 + 1
        SUBB    A,#0x0
        JNC     ??MT_AfIncomingMsg_1
//  630 
//  631   if (respLen > (uint16)MT_RPC_DATA_MAX)
??MT_AfIncomingMsg_2:
        CLR     C
        MOV     A,?V0 + 0
        SUBB    A,#-0x5
        MOV     A,?V0 + 1
        SUBB    A,#0x0
        JC      ??MT_AfIncomingMsg_3
//  632   {
//  633     if ((pItem = (mtAfInMsgList_t *)osal_mem_alloc(sizeof(mtAfInMsgList_t) + dataLen)) == NULL)
        ; Setup parameters for call to function osal_mem_alloc
        MOV     A,R6
        ADD     A,#0x9
        LCALL   ?Subroutine23 & 0xFFFF
??CrossCallReturnLabel_83:
        MOV     ?V0 + 10,R2
        MOV     ?V0 + 11,R3
        MOV     A,R2
        ORL     A,?V0 + 11
        JNZ     $+5
        LJMP    ??MT_AfIncomingMsg_4 & 0xFFFF
//  634     {
//  635       return;  // If cannot hold a huge message, cannot give indication at all.
//  636     }
//  637 
//  638     pItem->data = (uint8 *)(pItem+1);
        MOV     A,R2
        ADD     A,#0x9
        MOV     R0,A
        MOV     A,R3
        ADDC    A,#0x0
        MOV     R1,A
        MOV     DPL,R2
        MOV     DPH,R3
        INC     DPTR
        INC     DPTR
        LCALL   ?Subroutine33 & 0xFFFF
//  639     respLen -= dataLen;  // Zero data bytes are sent with an over-sized incoming indication.
??CrossCallReturnLabel_56:
        CLR     C
        MOV     A,?V0 + 0
        SUBB    A,R6
        MOV     ?V0 + 0,A
        MOV     A,?V0 + 1
        SUBB    A,R7
        MOV     ?V0 + 1,A
//  640   }
//  641 
//  642   // Attempt to allocate memory for the response packet.
//  643   if ((pRsp = osal_mem_alloc(respLen)) == NULL)
??MT_AfIncomingMsg_3:
        ; Setup parameters for call to function osal_mem_alloc
        MOV     R2,?V0 + 0
        MOV     R3,?V0 + 1
        LCALL   ??osal_mem_alloc?relay
        MOV     ?V0 + 12,R2
        MOV     ?V0 + 13,R3
        MOV     A,R2
        ORL     A,?V0 + 13
        JNZ     ??MT_AfIncomingMsg_5
//  644   {
//  645     if (pItem != NULL)
        MOV     A,?V0 + 10
        ORL     A,?V0 + 11
        JNZ     $+5
        LJMP    ??MT_AfIncomingMsg_4 & 0xFFFF
//  646     {
//  647       (void)osal_mem_free(pItem);
        ; Setup parameters for call to function osal_mem_free
        MOV     R2,?V0 + 10
        MOV     R3,?V0 + 11
        LJMP    ??MT_AfIncomingMsg_6 & 0xFFFF
//  648     }
//  649     return;
//  650   }
//  651   pTmp = pRsp;
//  652 
//  653   /* Group ID */
//  654   *pTmp++ = LO_UINT16(pMsg->groupId);
??MT_AfIncomingMsg_5:
        MOV     A,?V0 + 8
        ADD     A,#0x2
        LCALL   ?Subroutine20 & 0xFFFF
??CrossCallReturnLabel_103:
        MOVX    A,@DPTR
        MOV     DPL,R2
        MOV     DPH,R3
        LCALL   ?Subroutine28 & 0xFFFF
//  655   *pTmp++ = HI_UINT16(pMsg->groupId);
??CrossCallReturnLabel_37:
        MOV     DPL,R0
        MOV     DPH,R1
        INC     DPTR
        LCALL   ??Subroutine57_0 & 0xFFFF
//  656 
//  657   /* Cluster ID */
//  658   *pTmp++ = LO_UINT16(pMsg->clusterId);
??CrossCallReturnLabel_120:
        ADD     A,#0x4
        LCALL   ?Subroutine2 & 0xFFFF
//  659   *pTmp++ = HI_UINT16(pMsg->clusterId);
??CrossCallReturnLabel_112:
        LCALL   ?Subroutine8 & 0xFFFF
//  660 
//  661   if (cmd == MT_AF_INCOMING_MSG_EXT)
??CrossCallReturnLabel_7:
        MOV     A,#-0x7e
        XRL     A,?V0 + 14
        JNZ     ??MT_AfIncomingMsg_7
//  662   {
//  663     *pTmp++ = pMsg->srcAddr.addrMode;
        MOV     A,?V0 + 8
        ADD     A,#0xe
        LCALL   ?Subroutine20 & 0xFFFF
??CrossCallReturnLabel_104:
        LCALL   ?Subroutine8 & 0xFFFF
//  664 
//  665     if (pMsg->srcAddr.addrMode == afAddr64Bit)
??CrossCallReturnLabel_8:
        MOV     DPL,R0
        MOV     DPH,R1
        MOVX    A,@DPTR
        XRL     A,#0x3
        JNZ     ??MT_AfIncomingMsg_8
//  666     {
//  667       (void)osal_memcpy(pTmp, pMsg->srcAddr.addr.extAddr, Z_EXTADDR_LEN);
        ; Setup parameters for call to function osal_memcpy
        MOV     A,?V0 + 8
        ADD     A,#0x6
        MOV     ?V0 + 4,A
        MOV     A,?V0 + 9
        ADDC    A,#0x0
        MOV     ?V0 + 5,A
        MOV     ?V0 + 6,#0x0
        MOV     R0,#?V0 + 4
        LCALL   ?PUSH_XSTACK_I_THREE
        CFI CFA_XSP16 add(XSP16, 26)
        MOV     R4,#0x8
        MOV     R5,#0x0
        MOV     R2,?V0 + 2
        MOV     R3,?V0 + 3
        LCALL   ??Subroutine58_0 & 0xFFFF
//  668     }
??CrossCallReturnLabel_132:
        LCALL   ?DEALLOC_XSTACK8
        CFI CFA_XSP16 add(XSP16, 23)
        SJMP    ??MT_AfIncomingMsg_9
//  669     else
//  670     {
//  671       pTmp[0] = LO_UINT16(pMsg->srcAddr.addr.shortAddr);
??MT_AfIncomingMsg_8:
        MOV     A,?V0 + 8
        ADD     A,#0x6
        LCALL   ?Subroutine20 & 0xFFFF
??CrossCallReturnLabel_105:
        LCALL   ?Subroutine18 & 0xFFFF
//  672       pTmp[1] = HI_UINT16(pMsg->srcAddr.addr.shortAddr);
??CrossCallReturnLabel_26:
        MOV     DPL,R0
        MOV     DPH,R1
        INC     DPTR
        MOVX    A,@DPTR
        MOV     DPL,?V0 + 2
        MOV     DPH,?V0 + 3
        INC     DPTR
        MOVX    @DPTR,A
//  673     }
//  674     pTmp += Z_EXTADDR_LEN;
??MT_AfIncomingMsg_9:
        MOV     A,?V0 + 2
        ADD     A,#0x8
        MOV     ?V0 + 2,A
        MOV     A,?V0 + 3
        ADDC    A,#0x0
        MOV     ?V0 + 3,A
//  675 
//  676     *pTmp++ = pMsg->srcAddr.endPoint;
        MOV     A,?V0 + 8
        ADD     A,#0xf
        LCALL   ?Subroutine1 & 0xFFFF
//  677 #if defined INTER_PAN
//  678     *pTmp++ = LO_UINT16(pMsg->srcAddr.panId);
//  679     *pTmp++ = HI_UINT16(pMsg->srcAddr.panId);
//  680 #else
//  681     *pTmp++ = 0;
//  682     *pTmp++ = 0;
//  683 #endif
//  684   }
??CrossCallReturnLabel_115:
        ADD     A,#0x10
        MOV     R0,A
        LCALL   ??Subroutine56_0 & 0xFFFF
??CrossCallReturnLabel_114:
        SJMP    ??CrossCallReturnLabel_106
//  685   else
//  686   {
//  687     /* Source Address */
//  688     *pTmp++ = LO_UINT16(pMsg->srcAddr.addr.shortAddr);
??MT_AfIncomingMsg_7:
        MOV     A,?V0 + 8
        ADD     A,#0x6
        LCALL   ?Subroutine2 & 0xFFFF
//  689     *pTmp++ = HI_UINT16(pMsg->srcAddr.addr.shortAddr);
//  690 
//  691     /* Source EP */
//  692     *pTmp++ = pMsg->srcAddr.endPoint;
//  693   }
??CrossCallReturnLabel_113:
        LCALL   ??Subroutine57_0 & 0xFFFF
??CrossCallReturnLabel_121:
        ADD     A,#0xf
        LCALL   ?Subroutine43 & 0xFFFF
??CrossCallReturnLabel_106:
        LCALL   ??Subroutine57_0 & 0xFFFF
//  694 
//  695   /* Destination EP */
//  696   *pTmp++ = pMsg->endPoint;
??CrossCallReturnLabel_122:
        ADD     A,#0x14
        LCALL   ?Subroutine1 & 0xFFFF
//  697 
//  698   /* WasBroadCast */
//  699   *pTmp++ = pMsg->wasBroadcast;
??CrossCallReturnLabel_116:
        ADD     A,#0x15
        LCALL   ?Subroutine1 & 0xFFFF
//  700 
//  701   /* LinkQuality */
//  702   *pTmp++ = pMsg->LinkQuality;
??CrossCallReturnLabel_117:
        ADD     A,#0x16
        LCALL   ?Subroutine1 & 0xFFFF
//  703 
//  704   /* SecurityUse */
//  705   *pTmp++ = pMsg->SecurityUse;
??CrossCallReturnLabel_118:
        ADD     A,#0x19
        LCALL   ?Subroutine1 & 0xFFFF
//  706 
//  707   /* Timestamp */
//  708   *pTmp++ = BREAK_UINT32(pMsg->timestamp, 0);
??CrossCallReturnLabel_119:
        ADD     A,#0x1a
        MOV     R2,A
        MOV     A,?V0 + 9
        ADDC    A,#0x0
        MOV     R3,A
        MOV     DPL,R2
        MOV     DPH,R3
        MOV     R0,#?V0 + 4
        LCALL   ?L_MOV_X
        LCALL   ?Subroutine26 & 0xFFFF
//  709   *pTmp++ = BREAK_UINT32(pMsg->timestamp, 1);
??CrossCallReturnLabel_97:
        LCALL   ?L_MOV_X
        MOV     A,?V0 + 5
        MOV     DPL,?V0 + 2
        MOV     DPH,?V0 + 3
        LCALL   ??Subroutine53_0 & 0xFFFF
//  710   *pTmp++ = BREAK_UINT32(pMsg->timestamp, 2);
??CrossCallReturnLabel_99:
        LCALL   ?L_MOV_X
        MOV     A,#0x10
        MOV     R0,#?V0 + 4
        LCALL   ?UL_SHR
        LCALL   ?Subroutine26 & 0xFFFF
//  711   *pTmp++ = BREAK_UINT32(pMsg->timestamp, 3);
??CrossCallReturnLabel_98:
        LCALL   ?L_MOV_X
        MOV     A,#0x18
        MOV     R0,#?V0 + 4
        LCALL   ?UL_SHR
        MOV     DPL,?V0 + 2
        MOV     DPH,?V0 + 3
        MOV     A,?V0 + 4
        LCALL   ?Subroutine28 & 0xFFFF
//  712 
//  713 
//  714   /* Data Length */
//  715   if (cmd == MT_AF_INCOMING_MSG_EXT)
??CrossCallReturnLabel_38:
        MOV     A,#-0x7e
        XRL     A,?V0 + 14
        JNZ     ??MT_AfIncomingMsg_10
//  716   {
//  717     /* Z-Tool apparently takes the last Byte before the data buffer as the dynamic length and
//  718      * ignores the bigger UInt16 length of an EXT incoming message. But no data bytes will be sent
//  719      * with a huge message, so it's necessary to work-around and fake-out Z-Tool with a zero here.
//  720      */
//  721     *pTmp++ = 0;  // TODO - workaround Z-Tool shortcoming; should be: = pMsg->cmd.TransSeqNumber;
        CLR     A
        MOVX    @DPTR,A
        INC     DPTR
//  722     *pTmp++ = LO_UINT16(dataLen);
        MOV     A,R6
        MOVX    @DPTR,A
        INC     DPTR
//  723     *pTmp++ = HI_UINT16(dataLen);
        MOV     A,R7
        SJMP    ??MT_AfIncomingMsg_11
//  724   }
//  725   else
//  726   {
//  727     *pTmp++ = pMsg->cmd.TransSeqNumber;
??MT_AfIncomingMsg_10:
        MOV     A,?V0 + 8
        ADD     A,#0x1f
        LCALL   ?Subroutine43 & 0xFFFF
??CrossCallReturnLabel_107:
        LCALL   ?Subroutine18 & 0xFFFF
??CrossCallReturnLabel_27:
        INC     DPTR
//  728     *pTmp++ = dataLen;
        MOV     A,R6
//  729   }
??MT_AfIncomingMsg_11:
        LCALL   ?Subroutine28 & 0xFFFF
//  730 
//  731   /* Data */
//  732   if (pItem != NULL)
??CrossCallReturnLabel_39:
        MOV     A,?V0 + 10
        ORL     A,?V0 + 11
        JZ      ??MT_AfIncomingMsg_12
//  733   {
//  734     // Enqueue the new huge incoming item.
//  735     pItem->next = pMtAfInMsgList;
        LCALL   ?Subroutine16 & 0xFFFF
??CrossCallReturnLabel_137:
        MOV     DPL,?V0 + 10
        MOV     DPH,?V0 + 11
        LCALL   ?Subroutine33 & 0xFFFF
//  736     pMtAfInMsgList = pItem;
??CrossCallReturnLabel_57:
        MOV     DPTR,#pMtAfInMsgList
        MOV     A,?V0 + 10
        MOVX    @DPTR,A
        INC     DPTR
        MOV     A,?V0 + 11
        MOVX    @DPTR,A
//  737 
//  738     // Setup to time-out the huge incoming item if host does not MT_AF_DATA_RETRIEVE it.
//  739     pItem->tick = MT_AF_EXEC_CNT;
        MOV     DPL,?V0 + 10
        MOV     DPH,A
        INC     DPTR
        INC     DPTR
        INC     DPTR
        INC     DPTR
        INC     DPTR
        INC     DPTR
        INC     DPTR
        INC     DPTR
        LCALL   ?Subroutine12 & 0xFFFF
//  740     if (ZSuccess != osal_start_timerEx(MT_TaskID, MT_AF_EXEC_EVT, MT_AF_EXEC_DLY))
??CrossCallReturnLabel_89:
        JZ      ??CrossCallReturnLabel_25
//  741     {
//  742       (void)osal_set_event(MT_TaskID, MT_AF_EXEC_EVT);
        ; Setup parameters for call to function osal_set_event
        LCALL   ?Subroutine17 & 0xFFFF
//  743     }
//  744 
//  745     pItem->timestamp = pMsg->timestamp;
??CrossCallReturnLabel_25:
        MOV     A,?V0 + 8
        ADD     A,#0x1a
        LCALL   ?Subroutine43 & 0xFFFF
??CrossCallReturnLabel_108:
        LCALL   ?XLOAD_R2345
        MOV     DPL,?V0 + 10
        MOV     DPH,?V0 + 11
        INC     DPTR
        INC     DPTR
        INC     DPTR
        INC     DPTR
        LCALL   ?XSTORE_R2345
//  746     (void)osal_memcpy(pItem->data, pMsg->cmd.Data, dataLen);
        ; Setup parameters for call to function osal_memcpy
        LCALL   ?Subroutine14 & 0xFFFF
//  747   }
??CrossCallReturnLabel_19:
        LCALL   ?PUSH_XSTACK_I_THREE
        CFI CFA_XSP16 add(XSP16, 26)
        MOV     A,R6
        MOV     R4,A
        MOV     A,R7
        MOV     R5,A
        MOV     DPL,?V0 + 10
        MOV     DPH,?V0 + 11
        INC     DPTR
        INC     DPTR
        MOVX    A,@DPTR
        MOV     R2,A
        INC     DPTR
        MOVX    A,@DPTR
        MOV     R3,A
        SJMP    ??MT_AfIncomingMsg_13
        CFI CFA_XSP16 add(XSP16, 23)
//  748   else
//  749   {
//  750     (void)osal_memcpy(pTmp, pMsg->cmd.Data, dataLen);
??MT_AfIncomingMsg_12:
        ; Setup parameters for call to function osal_memcpy
        LCALL   ?Subroutine14 & 0xFFFF
//  751   }
??CrossCallReturnLabel_20:
        LCALL   ?PUSH_XSTACK_I_THREE
        CFI CFA_XSP16 add(XSP16, 26)
        MOV     A,R6
        MOV     R4,A
        MOV     A,R7
        MOV     R5,A
        MOV     R2,?V0 + 2
        MOV     R3,?V0 + 3
??MT_AfIncomingMsg_13:
        LCALL   ??Subroutine58_0 & 0xFFFF
??CrossCallReturnLabel_133:
        LCALL   ?DEALLOC_XSTACK8
        CFI CFA_XSP16 add(XSP16, 23)
//  752 
//  753   /* Build and send back the response */
//  754   MT_BuildAndSendZToolResponse(((uint8)MT_RPC_CMD_AREQ|(uint8)MT_RPC_SYS_AF), cmd, respLen, pRsp);
        ; Setup parameters for call to function MT_BuildAndSendZToolResponse
        MOV     R4,?V0 + 12
        MOV     R5,?V0 + 13
        MOV     R3,?V0 + 0
        MOV     R2,?V0 + 14
        MOV     R1,#0x44
        LCALL   ??MT_BuildAndSendZToolResponse?relay
//  755 
//  756   (void)osal_mem_free(pRsp);
        ; Setup parameters for call to function osal_mem_free
        MOV     R2,?V0 + 12
        MOV     R3,?V0 + 13
??MT_AfIncomingMsg_6:
        LCALL   ??osal_mem_free?relay
//  757 }
??MT_AfIncomingMsg_4:
        MOV     R7,#0xf
        LJMP    ?BANKED_LEAVE_XDATA
        CFI EndBlock cfiBlock123

        RSEG BANKED_CODE:CODE:NOROOT(0)
?Subroutine33:
        CFI Block cfiCond124 Using cfiCommon0
        CFI NoFunction
        CFI Conditional ??CrossCallReturnLabel_52
        CFI R6 load(1, XDATA, add(CFA_XSP16, literal(-22)))
        CFI VB load(1, XDATA, add(CFA_XSP16, literal(-21)))
        CFI V0 load(1, XDATA, add(CFA_XSP16, literal(-20)))
        CFI V1 load(1, XDATA, add(CFA_XSP16, literal(-19)))
        CFI V2 load(1, XDATA, add(CFA_XSP16, literal(-18)))
        CFI V3 load(1, XDATA, add(CFA_XSP16, literal(-17)))
        CFI V4 load(1, XDATA, add(CFA_XSP16, literal(-16)))
        CFI V5 load(1, XDATA, add(CFA_XSP16, literal(-15)))
        CFI V6 load(1, XDATA, add(CFA_XSP16, literal(-14)))
        CFI V7 load(1, XDATA, add(CFA_XSP16, literal(-13)))
        CFI V8 load(1, XDATA, add(CFA_XSP16, literal(-12)))
        CFI V9 load(1, XDATA, add(CFA_XSP16, literal(-11)))
        CFI V10 load(1, XDATA, add(CFA_XSP16, literal(-10)))
        CFI V11 load(1, XDATA, add(CFA_XSP16, literal(-9)))
        CFI V12 load(1, XDATA, add(CFA_XSP16, literal(-8)))
        CFI V13 load(1, XDATA, add(CFA_XSP16, literal(-7)))
        CFI R7 load(1, XDATA, add(CFA_XSP16, literal(-6)))
        CFI ?RET_LOW load(1, XDATA, add(CFA_XSP16, literal(-5)))
        CFI ?RET_HIGH load(1, XDATA, add(CFA_XSP16, literal(-4)))
        CFI ?BRET_EXT load(1, XDATA, add(CFA_XSP16, literal(-3)))
        CFI DPL0 load(1, XDATA, add(CFA_XSP16, literal(-2)))
        CFI DPH0 load(1, XDATA, add(CFA_XSP16, literal(-1)))
        CFI CFA_SP SP+0
        CFI CFA_XSP16 add(XSP16, 36)
        CFI Block cfiCond125 Using cfiCommon0
        CFI (cfiCond125) NoFunction
        CFI (cfiCond125) Conditional ??CrossCallReturnLabel_53
        CFI (cfiCond125) R6 load(1, XDATA, add(CFA_XSP16, literal(-22)))
        CFI (cfiCond125) VB load(1, XDATA, add(CFA_XSP16, literal(-21)))
        CFI (cfiCond125) V0 load(1, XDATA, add(CFA_XSP16, literal(-20)))
        CFI (cfiCond125) V1 load(1, XDATA, add(CFA_XSP16, literal(-19)))
        CFI (cfiCond125) V2 load(1, XDATA, add(CFA_XSP16, literal(-18)))
        CFI (cfiCond125) V3 load(1, XDATA, add(CFA_XSP16, literal(-17)))
        CFI (cfiCond125) V4 load(1, XDATA, add(CFA_XSP16, literal(-16)))
        CFI (cfiCond125) V5 load(1, XDATA, add(CFA_XSP16, literal(-15)))
        CFI (cfiCond125) V6 load(1, XDATA, add(CFA_XSP16, literal(-14)))
        CFI (cfiCond125) V7 load(1, XDATA, add(CFA_XSP16, literal(-13)))
        CFI (cfiCond125) V8 load(1, XDATA, add(CFA_XSP16, literal(-12)))
        CFI (cfiCond125) V9 load(1, XDATA, add(CFA_XSP16, literal(-11)))
        CFI (cfiCond125) V10 load(1, XDATA, add(CFA_XSP16, literal(-10)))
        CFI (cfiCond125) V11 load(1, XDATA, add(CFA_XSP16, literal(-9)))
        CFI (cfiCond125) V12 load(1, XDATA, add(CFA_XSP16, literal(-8)))
        CFI (cfiCond125) V13 load(1, XDATA, add(CFA_XSP16, literal(-7)))
        CFI (cfiCond125) R7 load(1, XDATA, add(CFA_XSP16, literal(-6)))
        CFI (cfiCond125) ?RET_LOW load(1, XDATA, add(CFA_XSP16, literal(-5)))
        CFI (cfiCond125) ?RET_HIGH load(1, XDATA, add(CFA_XSP16, literal(-4)))
        CFI (cfiCond125) ?BRET_EXT load(1, XDATA, add(CFA_XSP16, literal(-3)))
        CFI (cfiCond125) DPL0 load(1, XDATA, add(CFA_XSP16, literal(-2)))
        CFI (cfiCond125) DPH0 load(1, XDATA, add(CFA_XSP16, literal(-1)))
        CFI (cfiCond125) CFA_SP SP+0
        CFI (cfiCond125) CFA_XSP16 add(XSP16, 36)
        CFI Block cfiCond126 Using cfiCommon0
        CFI (cfiCond126) NoFunction
        CFI (cfiCond126) Conditional ??CrossCallReturnLabel_54
        CFI (cfiCond126) R6 load(1, XDATA, add(CFA_XSP16, literal(-22)))
        CFI (cfiCond126) VB load(1, XDATA, add(CFA_XSP16, literal(-21)))
        CFI (cfiCond126) V0 load(1, XDATA, add(CFA_XSP16, literal(-20)))
        CFI (cfiCond126) V1 load(1, XDATA, add(CFA_XSP16, literal(-19)))
        CFI (cfiCond126) V2 load(1, XDATA, add(CFA_XSP16, literal(-18)))
        CFI (cfiCond126) V3 load(1, XDATA, add(CFA_XSP16, literal(-17)))
        CFI (cfiCond126) V4 load(1, XDATA, add(CFA_XSP16, literal(-16)))
        CFI (cfiCond126) V5 load(1, XDATA, add(CFA_XSP16, literal(-15)))
        CFI (cfiCond126) V6 load(1, XDATA, add(CFA_XSP16, literal(-14)))
        CFI (cfiCond126) V7 load(1, XDATA, add(CFA_XSP16, literal(-13)))
        CFI (cfiCond126) V8 load(1, XDATA, add(CFA_XSP16, literal(-12)))
        CFI (cfiCond126) V9 load(1, XDATA, add(CFA_XSP16, literal(-11)))
        CFI (cfiCond126) V10 load(1, XDATA, add(CFA_XSP16, literal(-10)))
        CFI (cfiCond126) V11 load(1, XDATA, add(CFA_XSP16, literal(-9)))
        CFI (cfiCond126) V12 load(1, XDATA, add(CFA_XSP16, literal(-8)))
        CFI (cfiCond126) V13 load(1, XDATA, add(CFA_XSP16, literal(-7)))
        CFI (cfiCond126) R7 load(1, XDATA, add(CFA_XSP16, literal(-6)))
        CFI (cfiCond126) ?RET_LOW load(1, XDATA, add(CFA_XSP16, literal(-5)))
        CFI (cfiCond126) ?RET_HIGH load(1, XDATA, add(CFA_XSP16, literal(-4)))
        CFI (cfiCond126) ?BRET_EXT load(1, XDATA, add(CFA_XSP16, literal(-3)))
        CFI (cfiCond126) DPL0 load(1, XDATA, add(CFA_XSP16, literal(-2)))
        CFI (cfiCond126) DPH0 load(1, XDATA, add(CFA_XSP16, literal(-1)))
        CFI (cfiCond126) CFA_SP SP+0
        CFI (cfiCond126) CFA_XSP16 add(XSP16, 36)
        CFI Block cfiCond127 Using cfiCommon0
        CFI (cfiCond127) NoFunction
        CFI (cfiCond127) Conditional ??CrossCallReturnLabel_55
        CFI (cfiCond127) R6 load(1, XDATA, add(CFA_XSP16, literal(-20)))
        CFI (cfiCond127) VB load(1, XDATA, add(CFA_XSP16, literal(-19)))
        CFI (cfiCond127) V0 load(1, XDATA, add(CFA_XSP16, literal(-18)))
        CFI (cfiCond127) V1 load(1, XDATA, add(CFA_XSP16, literal(-17)))
        CFI (cfiCond127) V2 load(1, XDATA, add(CFA_XSP16, literal(-16)))
        CFI (cfiCond127) V3 load(1, XDATA, add(CFA_XSP16, literal(-15)))
        CFI (cfiCond127) V4 load(1, XDATA, add(CFA_XSP16, literal(-14)))
        CFI (cfiCond127) V5 load(1, XDATA, add(CFA_XSP16, literal(-13)))
        CFI (cfiCond127) V6 load(1, XDATA, add(CFA_XSP16, literal(-12)))
        CFI (cfiCond127) V7 load(1, XDATA, add(CFA_XSP16, literal(-11)))
        CFI (cfiCond127) V8 load(1, XDATA, add(CFA_XSP16, literal(-10)))
        CFI (cfiCond127) V9 load(1, XDATA, add(CFA_XSP16, literal(-9)))
        CFI (cfiCond127) V10 load(1, XDATA, add(CFA_XSP16, literal(-8)))
        CFI (cfiCond127) V11 load(1, XDATA, add(CFA_XSP16, literal(-7)))
        CFI (cfiCond127) R7 load(1, XDATA, add(CFA_XSP16, literal(-6)))
        CFI (cfiCond127) ?RET_LOW load(1, XDATA, add(CFA_XSP16, literal(-5)))
        CFI (cfiCond127) ?RET_HIGH load(1, XDATA, add(CFA_XSP16, literal(-4)))
        CFI (cfiCond127) ?BRET_EXT load(1, XDATA, add(CFA_XSP16, literal(-3)))
        CFI (cfiCond127) DPL0 load(1, XDATA, add(CFA_XSP16, literal(-2)))
        CFI (cfiCond127) DPH0 load(1, XDATA, add(CFA_XSP16, literal(-1)))
        CFI (cfiCond127) CFA_SP SP+0
        CFI (cfiCond127) CFA_XSP16 add(XSP16, 34)
        CFI Block cfiCond128 Using cfiCommon0
        CFI (cfiCond128) NoFunction
        CFI (cfiCond128) Conditional ??CrossCallReturnLabel_56
        CFI (cfiCond128) R6 load(1, XDATA, add(CFA_XSP16, literal(-23)))
        CFI (cfiCond128) VB load(1, XDATA, add(CFA_XSP16, literal(-22)))
        CFI (cfiCond128) V0 load(1, XDATA, add(CFA_XSP16, literal(-21)))
        CFI (cfiCond128) V1 load(1, XDATA, add(CFA_XSP16, literal(-20)))
        CFI (cfiCond128) V2 load(1, XDATA, add(CFA_XSP16, literal(-19)))
        CFI (cfiCond128) V3 load(1, XDATA, add(CFA_XSP16, literal(-18)))
        CFI (cfiCond128) V4 load(1, XDATA, add(CFA_XSP16, literal(-17)))
        CFI (cfiCond128) V5 load(1, XDATA, add(CFA_XSP16, literal(-16)))
        CFI (cfiCond128) V6 load(1, XDATA, add(CFA_XSP16, literal(-15)))
        CFI (cfiCond128) V7 load(1, XDATA, add(CFA_XSP16, literal(-14)))
        CFI (cfiCond128) V8 load(1, XDATA, add(CFA_XSP16, literal(-13)))
        CFI (cfiCond128) V9 load(1, XDATA, add(CFA_XSP16, literal(-12)))
        CFI (cfiCond128) V10 load(1, XDATA, add(CFA_XSP16, literal(-11)))
        CFI (cfiCond128) V11 load(1, XDATA, add(CFA_XSP16, literal(-10)))
        CFI (cfiCond128) V12 load(1, XDATA, add(CFA_XSP16, literal(-9)))
        CFI (cfiCond128) V13 load(1, XDATA, add(CFA_XSP16, literal(-8)))
        CFI (cfiCond128) V14 load(1, XDATA, add(CFA_XSP16, literal(-7)))
        CFI (cfiCond128) R7 load(1, XDATA, add(CFA_XSP16, literal(-6)))
        CFI (cfiCond128) ?RET_LOW load(1, XDATA, add(CFA_XSP16, literal(-5)))
        CFI (cfiCond128) ?RET_HIGH load(1, XDATA, add(CFA_XSP16, literal(-4)))
        CFI (cfiCond128) ?BRET_EXT load(1, XDATA, add(CFA_XSP16, literal(-3)))
        CFI (cfiCond128) DPL0 load(1, XDATA, add(CFA_XSP16, literal(-2)))
        CFI (cfiCond128) DPH0 load(1, XDATA, add(CFA_XSP16, literal(-1)))
        CFI (cfiCond128) CFA_SP SP+0
        CFI (cfiCond128) CFA_XSP16 add(XSP16, 23)
        CFI Block cfiCond129 Using cfiCommon0
        CFI (cfiCond129) NoFunction
        CFI (cfiCond129) Conditional ??CrossCallReturnLabel_57
        CFI (cfiCond129) R6 load(1, XDATA, add(CFA_XSP16, literal(-23)))
        CFI (cfiCond129) VB load(1, XDATA, add(CFA_XSP16, literal(-22)))
        CFI (cfiCond129) V0 load(1, XDATA, add(CFA_XSP16, literal(-21)))
        CFI (cfiCond129) V1 load(1, XDATA, add(CFA_XSP16, literal(-20)))
        CFI (cfiCond129) V2 load(1, XDATA, add(CFA_XSP16, literal(-19)))
        CFI (cfiCond129) V3 load(1, XDATA, add(CFA_XSP16, literal(-18)))
        CFI (cfiCond129) V4 load(1, XDATA, add(CFA_XSP16, literal(-17)))
        CFI (cfiCond129) V5 load(1, XDATA, add(CFA_XSP16, literal(-16)))
        CFI (cfiCond129) V6 load(1, XDATA, add(CFA_XSP16, literal(-15)))
        CFI (cfiCond129) V7 load(1, XDATA, add(CFA_XSP16, literal(-14)))
        CFI (cfiCond129) V8 load(1, XDATA, add(CFA_XSP16, literal(-13)))
        CFI (cfiCond129) V9 load(1, XDATA, add(CFA_XSP16, literal(-12)))
        CFI (cfiCond129) V10 load(1, XDATA, add(CFA_XSP16, literal(-11)))
        CFI (cfiCond129) V11 load(1, XDATA, add(CFA_XSP16, literal(-10)))
        CFI (cfiCond129) V12 load(1, XDATA, add(CFA_XSP16, literal(-9)))
        CFI (cfiCond129) V13 load(1, XDATA, add(CFA_XSP16, literal(-8)))
        CFI (cfiCond129) V14 load(1, XDATA, add(CFA_XSP16, literal(-7)))
        CFI (cfiCond129) R7 load(1, XDATA, add(CFA_XSP16, literal(-6)))
        CFI (cfiCond129) ?RET_LOW load(1, XDATA, add(CFA_XSP16, literal(-5)))
        CFI (cfiCond129) ?RET_HIGH load(1, XDATA, add(CFA_XSP16, literal(-4)))
        CFI (cfiCond129) ?BRET_EXT load(1, XDATA, add(CFA_XSP16, literal(-3)))
        CFI (cfiCond129) DPL0 load(1, XDATA, add(CFA_XSP16, literal(-2)))
        CFI (cfiCond129) DPH0 load(1, XDATA, add(CFA_XSP16, literal(-1)))
        CFI (cfiCond129) CFA_SP SP+0
        CFI (cfiCond129) CFA_XSP16 add(XSP16, 23)
        CFI Block cfiCond130 Using cfiCommon0
        CFI (cfiCond130) NoFunction
        CFI (cfiCond130) Conditional ??CrossCallReturnLabel_58
        CFI (cfiCond130) R6 load(1, XDATA, add(CFA_XSP16, literal(-21)))
        CFI (cfiCond130) VB load(1, XDATA, add(CFA_XSP16, literal(-20)))
        CFI (cfiCond130) V0 load(1, XDATA, add(CFA_XSP16, literal(-19)))
        CFI (cfiCond130) V1 load(1, XDATA, add(CFA_XSP16, literal(-18)))
        CFI (cfiCond130) V2 load(1, XDATA, add(CFA_XSP16, literal(-17)))
        CFI (cfiCond130) V3 load(1, XDATA, add(CFA_XSP16, literal(-16)))
        CFI (cfiCond130) V4 load(1, XDATA, add(CFA_XSP16, literal(-15)))
        CFI (cfiCond130) V5 load(1, XDATA, add(CFA_XSP16, literal(-14)))
        CFI (cfiCond130) V6 load(1, XDATA, add(CFA_XSP16, literal(-13)))
        CFI (cfiCond130) V7 load(1, XDATA, add(CFA_XSP16, literal(-12)))
        CFI (cfiCond130) V8 load(1, XDATA, add(CFA_XSP16, literal(-11)))
        CFI (cfiCond130) V9 load(1, XDATA, add(CFA_XSP16, literal(-10)))
        CFI (cfiCond130) V10 load(1, XDATA, add(CFA_XSP16, literal(-9)))
        CFI (cfiCond130) V11 load(1, XDATA, add(CFA_XSP16, literal(-8)))
        CFI (cfiCond130) V12 load(1, XDATA, add(CFA_XSP16, literal(-7)))
        CFI (cfiCond130) R7 load(1, XDATA, add(CFA_XSP16, literal(-6)))
        CFI (cfiCond130) ?RET_LOW load(1, XDATA, add(CFA_XSP16, literal(-5)))
        CFI (cfiCond130) ?RET_HIGH load(1, XDATA, add(CFA_XSP16, literal(-4)))
        CFI (cfiCond130) ?BRET_EXT load(1, XDATA, add(CFA_XSP16, literal(-3)))
        CFI (cfiCond130) DPL0 load(1, XDATA, add(CFA_XSP16, literal(-2)))
        CFI (cfiCond130) DPH0 load(1, XDATA, add(CFA_XSP16, literal(-1)))
        CFI (cfiCond130) CFA_SP SP+0
        CFI (cfiCond130) CFA_XSP16 add(XSP16, 21)
        CFI Block cfiPicker131 Using cfiCommon1
        CFI (cfiPicker131) NoFunction
        CFI (cfiPicker131) Picker
        MOV     A,R0
        MOVX    @DPTR,A
        INC     DPTR
        MOV     A,R1
        MOVX    @DPTR,A
        RET
        CFI EndBlock cfiCond124
        CFI EndBlock cfiCond125
        CFI EndBlock cfiCond126
        CFI EndBlock cfiCond127
        CFI EndBlock cfiCond128
        CFI EndBlock cfiCond129
        CFI EndBlock cfiCond130
        CFI EndBlock cfiPicker131

        RSEG BANKED_CODE:CODE:NOROOT(0)
?Subroutine28:
        CFI Block cfiCond132 Using cfiCommon0
        CFI NoFunction
        CFI Conditional ??CrossCallReturnLabel_37
        CFI R6 load(1, XDATA, add(CFA_XSP16, literal(-23)))
        CFI VB load(1, XDATA, add(CFA_XSP16, literal(-22)))
        CFI V0 load(1, XDATA, add(CFA_XSP16, literal(-21)))
        CFI V1 load(1, XDATA, add(CFA_XSP16, literal(-20)))
        CFI V2 load(1, XDATA, add(CFA_XSP16, literal(-19)))
        CFI V3 load(1, XDATA, add(CFA_XSP16, literal(-18)))
        CFI V4 load(1, XDATA, add(CFA_XSP16, literal(-17)))
        CFI V5 load(1, XDATA, add(CFA_XSP16, literal(-16)))
        CFI V6 load(1, XDATA, add(CFA_XSP16, literal(-15)))
        CFI V7 load(1, XDATA, add(CFA_XSP16, literal(-14)))
        CFI V8 load(1, XDATA, add(CFA_XSP16, literal(-13)))
        CFI V9 load(1, XDATA, add(CFA_XSP16, literal(-12)))
        CFI V10 load(1, XDATA, add(CFA_XSP16, literal(-11)))
        CFI V11 load(1, XDATA, add(CFA_XSP16, literal(-10)))
        CFI V12 load(1, XDATA, add(CFA_XSP16, literal(-9)))
        CFI V13 load(1, XDATA, add(CFA_XSP16, literal(-8)))
        CFI V14 load(1, XDATA, add(CFA_XSP16, literal(-7)))
        CFI R7 load(1, XDATA, add(CFA_XSP16, literal(-6)))
        CFI ?RET_LOW load(1, XDATA, add(CFA_XSP16, literal(-5)))
        CFI ?RET_HIGH load(1, XDATA, add(CFA_XSP16, literal(-4)))
        CFI ?BRET_EXT load(1, XDATA, add(CFA_XSP16, literal(-3)))
        CFI DPL0 load(1, XDATA, add(CFA_XSP16, literal(-2)))
        CFI DPH0 load(1, XDATA, add(CFA_XSP16, literal(-1)))
        CFI CFA_SP SP+0
        CFI CFA_XSP16 add(XSP16, 23)
        CFI Block cfiCond133 Using cfiCommon0
        CFI (cfiCond133) NoFunction
        CFI (cfiCond133) Conditional ??CrossCallReturnLabel_38
        CFI (cfiCond133) R6 load(1, XDATA, add(CFA_XSP16, literal(-23)))
        CFI (cfiCond133) VB load(1, XDATA, add(CFA_XSP16, literal(-22)))
        CFI (cfiCond133) V0 load(1, XDATA, add(CFA_XSP16, literal(-21)))
        CFI (cfiCond133) V1 load(1, XDATA, add(CFA_XSP16, literal(-20)))
        CFI (cfiCond133) V2 load(1, XDATA, add(CFA_XSP16, literal(-19)))
        CFI (cfiCond133) V3 load(1, XDATA, add(CFA_XSP16, literal(-18)))
        CFI (cfiCond133) V4 load(1, XDATA, add(CFA_XSP16, literal(-17)))
        CFI (cfiCond133) V5 load(1, XDATA, add(CFA_XSP16, literal(-16)))
        CFI (cfiCond133) V6 load(1, XDATA, add(CFA_XSP16, literal(-15)))
        CFI (cfiCond133) V7 load(1, XDATA, add(CFA_XSP16, literal(-14)))
        CFI (cfiCond133) V8 load(1, XDATA, add(CFA_XSP16, literal(-13)))
        CFI (cfiCond133) V9 load(1, XDATA, add(CFA_XSP16, literal(-12)))
        CFI (cfiCond133) V10 load(1, XDATA, add(CFA_XSP16, literal(-11)))
        CFI (cfiCond133) V11 load(1, XDATA, add(CFA_XSP16, literal(-10)))
        CFI (cfiCond133) V12 load(1, XDATA, add(CFA_XSP16, literal(-9)))
        CFI (cfiCond133) V13 load(1, XDATA, add(CFA_XSP16, literal(-8)))
        CFI (cfiCond133) V14 load(1, XDATA, add(CFA_XSP16, literal(-7)))
        CFI (cfiCond133) R7 load(1, XDATA, add(CFA_XSP16, literal(-6)))
        CFI (cfiCond133) ?RET_LOW load(1, XDATA, add(CFA_XSP16, literal(-5)))
        CFI (cfiCond133) ?RET_HIGH load(1, XDATA, add(CFA_XSP16, literal(-4)))
        CFI (cfiCond133) ?BRET_EXT load(1, XDATA, add(CFA_XSP16, literal(-3)))
        CFI (cfiCond133) DPL0 load(1, XDATA, add(CFA_XSP16, literal(-2)))
        CFI (cfiCond133) DPH0 load(1, XDATA, add(CFA_XSP16, literal(-1)))
        CFI (cfiCond133) CFA_SP SP+0
        CFI (cfiCond133) CFA_XSP16 add(XSP16, 23)
        CFI Block cfiCond134 Using cfiCommon0
        CFI (cfiCond134) NoFunction
        CFI (cfiCond134) Conditional ??CrossCallReturnLabel_39
        CFI (cfiCond134) R6 load(1, XDATA, add(CFA_XSP16, literal(-23)))
        CFI (cfiCond134) VB load(1, XDATA, add(CFA_XSP16, literal(-22)))
        CFI (cfiCond134) V0 load(1, XDATA, add(CFA_XSP16, literal(-21)))
        CFI (cfiCond134) V1 load(1, XDATA, add(CFA_XSP16, literal(-20)))
        CFI (cfiCond134) V2 load(1, XDATA, add(CFA_XSP16, literal(-19)))
        CFI (cfiCond134) V3 load(1, XDATA, add(CFA_XSP16, literal(-18)))
        CFI (cfiCond134) V4 load(1, XDATA, add(CFA_XSP16, literal(-17)))
        CFI (cfiCond134) V5 load(1, XDATA, add(CFA_XSP16, literal(-16)))
        CFI (cfiCond134) V6 load(1, XDATA, add(CFA_XSP16, literal(-15)))
        CFI (cfiCond134) V7 load(1, XDATA, add(CFA_XSP16, literal(-14)))
        CFI (cfiCond134) V8 load(1, XDATA, add(CFA_XSP16, literal(-13)))
        CFI (cfiCond134) V9 load(1, XDATA, add(CFA_XSP16, literal(-12)))
        CFI (cfiCond134) V10 load(1, XDATA, add(CFA_XSP16, literal(-11)))
        CFI (cfiCond134) V11 load(1, XDATA, add(CFA_XSP16, literal(-10)))
        CFI (cfiCond134) V12 load(1, XDATA, add(CFA_XSP16, literal(-9)))
        CFI (cfiCond134) V13 load(1, XDATA, add(CFA_XSP16, literal(-8)))
        CFI (cfiCond134) V14 load(1, XDATA, add(CFA_XSP16, literal(-7)))
        CFI (cfiCond134) R7 load(1, XDATA, add(CFA_XSP16, literal(-6)))
        CFI (cfiCond134) ?RET_LOW load(1, XDATA, add(CFA_XSP16, literal(-5)))
        CFI (cfiCond134) ?RET_HIGH load(1, XDATA, add(CFA_XSP16, literal(-4)))
        CFI (cfiCond134) ?BRET_EXT load(1, XDATA, add(CFA_XSP16, literal(-3)))
        CFI (cfiCond134) DPL0 load(1, XDATA, add(CFA_XSP16, literal(-2)))
        CFI (cfiCond134) DPH0 load(1, XDATA, add(CFA_XSP16, literal(-1)))
        CFI (cfiCond134) CFA_SP SP+0
        CFI (cfiCond134) CFA_XSP16 add(XSP16, 23)
        CFI Block cfiPicker135 Using cfiCommon1
        CFI (cfiPicker135) NoFunction
        CFI (cfiPicker135) Picker
        LCALL   ?Subroutine41 & 0xFFFF
??CrossCallReturnLabel_100:
        RET
        CFI EndBlock cfiCond132
        CFI EndBlock cfiCond133
        CFI EndBlock cfiCond134
        CFI EndBlock cfiPicker135

        RSEG BANKED_CODE:CODE:NOROOT(0)
?Subroutine41:
        CFI Block cfiCond136 Using cfiCommon0
        CFI NoFunction
        CFI Conditional ??CrossCallReturnLabel_100, ??CrossCallReturnLabel_37
        CFI R6 load(1, XDATA, add(CFA_XSP16, literal(-23)))
        CFI VB load(1, XDATA, add(CFA_XSP16, literal(-22)))
        CFI V0 load(1, XDATA, add(CFA_XSP16, literal(-21)))
        CFI V1 load(1, XDATA, add(CFA_XSP16, literal(-20)))
        CFI V2 load(1, XDATA, add(CFA_XSP16, literal(-19)))
        CFI V3 load(1, XDATA, add(CFA_XSP16, literal(-18)))
        CFI V4 load(1, XDATA, add(CFA_XSP16, literal(-17)))
        CFI V5 load(1, XDATA, add(CFA_XSP16, literal(-16)))
        CFI V6 load(1, XDATA, add(CFA_XSP16, literal(-15)))
        CFI V7 load(1, XDATA, add(CFA_XSP16, literal(-14)))
        CFI V8 load(1, XDATA, add(CFA_XSP16, literal(-13)))
        CFI V9 load(1, XDATA, add(CFA_XSP16, literal(-12)))
        CFI V10 load(1, XDATA, add(CFA_XSP16, literal(-11)))
        CFI V11 load(1, XDATA, add(CFA_XSP16, literal(-10)))
        CFI V12 load(1, XDATA, add(CFA_XSP16, literal(-9)))
        CFI V13 load(1, XDATA, add(CFA_XSP16, literal(-8)))
        CFI V14 load(1, XDATA, add(CFA_XSP16, literal(-7)))
        CFI R7 load(1, XDATA, add(CFA_XSP16, literal(-6)))
        CFI ?RET_LOW load(1, XDATA, add(CFA_XSP16, literal(-5)))
        CFI ?RET_HIGH load(1, XDATA, add(CFA_XSP16, literal(-4)))
        CFI ?BRET_EXT load(1, XDATA, add(CFA_XSP16, literal(-3)))
        CFI DPL0 load(1, XDATA, add(CFA_XSP16, literal(-2)))
        CFI DPH0 load(1, XDATA, add(CFA_XSP16, literal(-1)))
        CFI CFA_SP SP+0
        CFI CFA_XSP16 add(XSP16, 23)
        CFI Block cfiCond137 Using cfiCommon0
        CFI (cfiCond137) NoFunction
        CFI (cfiCond137) Conditional ??CrossCallReturnLabel_100, ??CrossCallReturnLabel_38
        CFI (cfiCond137) R6 load(1, XDATA, add(CFA_XSP16, literal(-23)))
        CFI (cfiCond137) VB load(1, XDATA, add(CFA_XSP16, literal(-22)))
        CFI (cfiCond137) V0 load(1, XDATA, add(CFA_XSP16, literal(-21)))
        CFI (cfiCond137) V1 load(1, XDATA, add(CFA_XSP16, literal(-20)))
        CFI (cfiCond137) V2 load(1, XDATA, add(CFA_XSP16, literal(-19)))
        CFI (cfiCond137) V3 load(1, XDATA, add(CFA_XSP16, literal(-18)))
        CFI (cfiCond137) V4 load(1, XDATA, add(CFA_XSP16, literal(-17)))
        CFI (cfiCond137) V5 load(1, XDATA, add(CFA_XSP16, literal(-16)))
        CFI (cfiCond137) V6 load(1, XDATA, add(CFA_XSP16, literal(-15)))
        CFI (cfiCond137) V7 load(1, XDATA, add(CFA_XSP16, literal(-14)))
        CFI (cfiCond137) V8 load(1, XDATA, add(CFA_XSP16, literal(-13)))
        CFI (cfiCond137) V9 load(1, XDATA, add(CFA_XSP16, literal(-12)))
        CFI (cfiCond137) V10 load(1, XDATA, add(CFA_XSP16, literal(-11)))
        CFI (cfiCond137) V11 load(1, XDATA, add(CFA_XSP16, literal(-10)))
        CFI (cfiCond137) V12 load(1, XDATA, add(CFA_XSP16, literal(-9)))
        CFI (cfiCond137) V13 load(1, XDATA, add(CFA_XSP16, literal(-8)))
        CFI (cfiCond137) V14 load(1, XDATA, add(CFA_XSP16, literal(-7)))
        CFI (cfiCond137) R7 load(1, XDATA, add(CFA_XSP16, literal(-6)))
        CFI (cfiCond137) ?RET_LOW load(1, XDATA, add(CFA_XSP16, literal(-5)))
        CFI (cfiCond137) ?RET_HIGH load(1, XDATA, add(CFA_XSP16, literal(-4)))
        CFI (cfiCond137) ?BRET_EXT load(1, XDATA, add(CFA_XSP16, literal(-3)))
        CFI (cfiCond137) DPL0 load(1, XDATA, add(CFA_XSP16, literal(-2)))
        CFI (cfiCond137) DPH0 load(1, XDATA, add(CFA_XSP16, literal(-1)))
        CFI (cfiCond137) CFA_SP SP+0
        CFI (cfiCond137) CFA_XSP16 add(XSP16, 23)
        CFI Block cfiCond138 Using cfiCommon0
        CFI (cfiCond138) NoFunction
        CFI (cfiCond138) Conditional ??CrossCallReturnLabel_100, ??CrossCallReturnLabel_39
        CFI (cfiCond138) R6 load(1, XDATA, add(CFA_XSP16, literal(-23)))
        CFI (cfiCond138) VB load(1, XDATA, add(CFA_XSP16, literal(-22)))
        CFI (cfiCond138) V0 load(1, XDATA, add(CFA_XSP16, literal(-21)))
        CFI (cfiCond138) V1 load(1, XDATA, add(CFA_XSP16, literal(-20)))
        CFI (cfiCond138) V2 load(1, XDATA, add(CFA_XSP16, literal(-19)))
        CFI (cfiCond138) V3 load(1, XDATA, add(CFA_XSP16, literal(-18)))
        CFI (cfiCond138) V4 load(1, XDATA, add(CFA_XSP16, literal(-17)))
        CFI (cfiCond138) V5 load(1, XDATA, add(CFA_XSP16, literal(-16)))
        CFI (cfiCond138) V6 load(1, XDATA, add(CFA_XSP16, literal(-15)))
        CFI (cfiCond138) V7 load(1, XDATA, add(CFA_XSP16, literal(-14)))
        CFI (cfiCond138) V8 load(1, XDATA, add(CFA_XSP16, literal(-13)))
        CFI (cfiCond138) V9 load(1, XDATA, add(CFA_XSP16, literal(-12)))
        CFI (cfiCond138) V10 load(1, XDATA, add(CFA_XSP16, literal(-11)))
        CFI (cfiCond138) V11 load(1, XDATA, add(CFA_XSP16, literal(-10)))
        CFI (cfiCond138) V12 load(1, XDATA, add(CFA_XSP16, literal(-9)))
        CFI (cfiCond138) V13 load(1, XDATA, add(CFA_XSP16, literal(-8)))
        CFI (cfiCond138) V14 load(1, XDATA, add(CFA_XSP16, literal(-7)))
        CFI (cfiCond138) R7 load(1, XDATA, add(CFA_XSP16, literal(-6)))
        CFI (cfiCond138) ?RET_LOW load(1, XDATA, add(CFA_XSP16, literal(-5)))
        CFI (cfiCond138) ?RET_HIGH load(1, XDATA, add(CFA_XSP16, literal(-4)))
        CFI (cfiCond138) ?BRET_EXT load(1, XDATA, add(CFA_XSP16, literal(-3)))
        CFI (cfiCond138) DPL0 load(1, XDATA, add(CFA_XSP16, literal(-2)))
        CFI (cfiCond138) DPH0 load(1, XDATA, add(CFA_XSP16, literal(-1)))
        CFI (cfiCond138) CFA_SP SP+0
        CFI (cfiCond138) CFA_XSP16 add(XSP16, 23)
        CFI Block cfiCond139 Using cfiCommon0
        CFI (cfiCond139) NoFunction
        CFI (cfiCond139) Conditional ??CrossCallReturnLabel_101, ??CrossCallReturnLabel_97
        CFI (cfiCond139) R6 load(1, XDATA, add(CFA_XSP16, literal(-23)))
        CFI (cfiCond139) VB load(1, XDATA, add(CFA_XSP16, literal(-22)))
        CFI (cfiCond139) V0 load(1, XDATA, add(CFA_XSP16, literal(-21)))
        CFI (cfiCond139) V1 load(1, XDATA, add(CFA_XSP16, literal(-20)))
        CFI (cfiCond139) V2 load(1, XDATA, add(CFA_XSP16, literal(-19)))
        CFI (cfiCond139) V3 load(1, XDATA, add(CFA_XSP16, literal(-18)))
        CFI (cfiCond139) V4 load(1, XDATA, add(CFA_XSP16, literal(-17)))
        CFI (cfiCond139) V5 load(1, XDATA, add(CFA_XSP16, literal(-16)))
        CFI (cfiCond139) V6 load(1, XDATA, add(CFA_XSP16, literal(-15)))
        CFI (cfiCond139) V7 load(1, XDATA, add(CFA_XSP16, literal(-14)))
        CFI (cfiCond139) V8 load(1, XDATA, add(CFA_XSP16, literal(-13)))
        CFI (cfiCond139) V9 load(1, XDATA, add(CFA_XSP16, literal(-12)))
        CFI (cfiCond139) V10 load(1, XDATA, add(CFA_XSP16, literal(-11)))
        CFI (cfiCond139) V11 load(1, XDATA, add(CFA_XSP16, literal(-10)))
        CFI (cfiCond139) V12 load(1, XDATA, add(CFA_XSP16, literal(-9)))
        CFI (cfiCond139) V13 load(1, XDATA, add(CFA_XSP16, literal(-8)))
        CFI (cfiCond139) V14 load(1, XDATA, add(CFA_XSP16, literal(-7)))
        CFI (cfiCond139) R7 load(1, XDATA, add(CFA_XSP16, literal(-6)))
        CFI (cfiCond139) ?RET_LOW load(1, XDATA, add(CFA_XSP16, literal(-5)))
        CFI (cfiCond139) ?RET_HIGH load(1, XDATA, add(CFA_XSP16, literal(-4)))
        CFI (cfiCond139) ?BRET_EXT load(1, XDATA, add(CFA_XSP16, literal(-3)))
        CFI (cfiCond139) DPL0 load(1, XDATA, add(CFA_XSP16, literal(-2)))
        CFI (cfiCond139) DPH0 load(1, XDATA, add(CFA_XSP16, literal(-1)))
        CFI (cfiCond139) CFA_SP SP+0
        CFI (cfiCond139) CFA_XSP16 add(XSP16, 23)
        CFI Block cfiCond140 Using cfiCommon0
        CFI (cfiCond140) NoFunction
        CFI (cfiCond140) Conditional ??CrossCallReturnLabel_101, ??CrossCallReturnLabel_98
        CFI (cfiCond140) R6 load(1, XDATA, add(CFA_XSP16, literal(-23)))
        CFI (cfiCond140) VB load(1, XDATA, add(CFA_XSP16, literal(-22)))
        CFI (cfiCond140) V0 load(1, XDATA, add(CFA_XSP16, literal(-21)))
        CFI (cfiCond140) V1 load(1, XDATA, add(CFA_XSP16, literal(-20)))
        CFI (cfiCond140) V2 load(1, XDATA, add(CFA_XSP16, literal(-19)))
        CFI (cfiCond140) V3 load(1, XDATA, add(CFA_XSP16, literal(-18)))
        CFI (cfiCond140) V4 load(1, XDATA, add(CFA_XSP16, literal(-17)))
        CFI (cfiCond140) V5 load(1, XDATA, add(CFA_XSP16, literal(-16)))
        CFI (cfiCond140) V6 load(1, XDATA, add(CFA_XSP16, literal(-15)))
        CFI (cfiCond140) V7 load(1, XDATA, add(CFA_XSP16, literal(-14)))
        CFI (cfiCond140) V8 load(1, XDATA, add(CFA_XSP16, literal(-13)))
        CFI (cfiCond140) V9 load(1, XDATA, add(CFA_XSP16, literal(-12)))
        CFI (cfiCond140) V10 load(1, XDATA, add(CFA_XSP16, literal(-11)))
        CFI (cfiCond140) V11 load(1, XDATA, add(CFA_XSP16, literal(-10)))
        CFI (cfiCond140) V12 load(1, XDATA, add(CFA_XSP16, literal(-9)))
        CFI (cfiCond140) V13 load(1, XDATA, add(CFA_XSP16, literal(-8)))
        CFI (cfiCond140) V14 load(1, XDATA, add(CFA_XSP16, literal(-7)))
        CFI (cfiCond140) R7 load(1, XDATA, add(CFA_XSP16, literal(-6)))
        CFI (cfiCond140) ?RET_LOW load(1, XDATA, add(CFA_XSP16, literal(-5)))
        CFI (cfiCond140) ?RET_HIGH load(1, XDATA, add(CFA_XSP16, literal(-4)))
        CFI (cfiCond140) ?BRET_EXT load(1, XDATA, add(CFA_XSP16, literal(-3)))
        CFI (cfiCond140) DPL0 load(1, XDATA, add(CFA_XSP16, literal(-2)))
        CFI (cfiCond140) DPH0 load(1, XDATA, add(CFA_XSP16, literal(-1)))
        CFI (cfiCond140) CFA_SP SP+0
        CFI (cfiCond140) CFA_XSP16 add(XSP16, 23)
        CFI Block cfiCond141 Using cfiCommon0
        CFI (cfiCond141) NoFunction
        CFI (cfiCond141) Conditional ??CrossCallReturnLabel_101, ??CrossCallReturnLabel_99
        CFI (cfiCond141) R6 load(1, XDATA, add(CFA_XSP16, literal(-23)))
        CFI (cfiCond141) VB load(1, XDATA, add(CFA_XSP16, literal(-22)))
        CFI (cfiCond141) V0 load(1, XDATA, add(CFA_XSP16, literal(-21)))
        CFI (cfiCond141) V1 load(1, XDATA, add(CFA_XSP16, literal(-20)))
        CFI (cfiCond141) V2 load(1, XDATA, add(CFA_XSP16, literal(-19)))
        CFI (cfiCond141) V3 load(1, XDATA, add(CFA_XSP16, literal(-18)))
        CFI (cfiCond141) V4 load(1, XDATA, add(CFA_XSP16, literal(-17)))
        CFI (cfiCond141) V5 load(1, XDATA, add(CFA_XSP16, literal(-16)))
        CFI (cfiCond141) V6 load(1, XDATA, add(CFA_XSP16, literal(-15)))
        CFI (cfiCond141) V7 load(1, XDATA, add(CFA_XSP16, literal(-14)))
        CFI (cfiCond141) V8 load(1, XDATA, add(CFA_XSP16, literal(-13)))
        CFI (cfiCond141) V9 load(1, XDATA, add(CFA_XSP16, literal(-12)))
        CFI (cfiCond141) V10 load(1, XDATA, add(CFA_XSP16, literal(-11)))
        CFI (cfiCond141) V11 load(1, XDATA, add(CFA_XSP16, literal(-10)))
        CFI (cfiCond141) V12 load(1, XDATA, add(CFA_XSP16, literal(-9)))
        CFI (cfiCond141) V13 load(1, XDATA, add(CFA_XSP16, literal(-8)))
        CFI (cfiCond141) V14 load(1, XDATA, add(CFA_XSP16, literal(-7)))
        CFI (cfiCond141) R7 load(1, XDATA, add(CFA_XSP16, literal(-6)))
        CFI (cfiCond141) ?RET_LOW load(1, XDATA, add(CFA_XSP16, literal(-5)))
        CFI (cfiCond141) ?RET_HIGH load(1, XDATA, add(CFA_XSP16, literal(-4)))
        CFI (cfiCond141) ?BRET_EXT load(1, XDATA, add(CFA_XSP16, literal(-3)))
        CFI (cfiCond141) DPL0 load(1, XDATA, add(CFA_XSP16, literal(-2)))
        CFI (cfiCond141) DPH0 load(1, XDATA, add(CFA_XSP16, literal(-1)))
        CFI (cfiCond141) CFA_SP SP+0
        CFI (cfiCond141) CFA_XSP16 add(XSP16, 23)
        CFI Block cfiPicker142 Using cfiCommon1
        CFI (cfiPicker142) NoFunction
        CFI (cfiPicker142) Picker
        MOVX    @DPTR,A
        INC     DPTR
        MOV     ?V0 + 2,DPL
        MOV     ?V0 + 3,DPH
        RET
        CFI EndBlock cfiCond136
        CFI EndBlock cfiCond137
        CFI EndBlock cfiCond138
        CFI EndBlock cfiCond139
        CFI EndBlock cfiCond140
        CFI EndBlock cfiCond141
        CFI EndBlock cfiPicker142

        RSEG BANKED_CODE:CODE:NOROOT(0)
?Subroutine26:
        CFI Block cfiCond143 Using cfiCommon0
        CFI NoFunction
        CFI Conditional ??CrossCallReturnLabel_97
        CFI R6 load(1, XDATA, add(CFA_XSP16, literal(-23)))
        CFI VB load(1, XDATA, add(CFA_XSP16, literal(-22)))
        CFI V0 load(1, XDATA, add(CFA_XSP16, literal(-21)))
        CFI V1 load(1, XDATA, add(CFA_XSP16, literal(-20)))
        CFI V2 load(1, XDATA, add(CFA_XSP16, literal(-19)))
        CFI V3 load(1, XDATA, add(CFA_XSP16, literal(-18)))
        CFI V4 load(1, XDATA, add(CFA_XSP16, literal(-17)))
        CFI V5 load(1, XDATA, add(CFA_XSP16, literal(-16)))
        CFI V6 load(1, XDATA, add(CFA_XSP16, literal(-15)))
        CFI V7 load(1, XDATA, add(CFA_XSP16, literal(-14)))
        CFI V8 load(1, XDATA, add(CFA_XSP16, literal(-13)))
        CFI V9 load(1, XDATA, add(CFA_XSP16, literal(-12)))
        CFI V10 load(1, XDATA, add(CFA_XSP16, literal(-11)))
        CFI V11 load(1, XDATA, add(CFA_XSP16, literal(-10)))
        CFI V12 load(1, XDATA, add(CFA_XSP16, literal(-9)))
        CFI V13 load(1, XDATA, add(CFA_XSP16, literal(-8)))
        CFI V14 load(1, XDATA, add(CFA_XSP16, literal(-7)))
        CFI R7 load(1, XDATA, add(CFA_XSP16, literal(-6)))
        CFI ?RET_LOW load(1, XDATA, add(CFA_XSP16, literal(-5)))
        CFI ?RET_HIGH load(1, XDATA, add(CFA_XSP16, literal(-4)))
        CFI ?BRET_EXT load(1, XDATA, add(CFA_XSP16, literal(-3)))
        CFI DPL0 load(1, XDATA, add(CFA_XSP16, literal(-2)))
        CFI DPH0 load(1, XDATA, add(CFA_XSP16, literal(-1)))
        CFI CFA_SP SP+0
        CFI CFA_XSP16 add(XSP16, 23)
        CFI Block cfiCond144 Using cfiCommon0
        CFI (cfiCond144) NoFunction
        CFI (cfiCond144) Conditional ??CrossCallReturnLabel_98
        CFI (cfiCond144) R6 load(1, XDATA, add(CFA_XSP16, literal(-23)))
        CFI (cfiCond144) VB load(1, XDATA, add(CFA_XSP16, literal(-22)))
        CFI (cfiCond144) V0 load(1, XDATA, add(CFA_XSP16, literal(-21)))
        CFI (cfiCond144) V1 load(1, XDATA, add(CFA_XSP16, literal(-20)))
        CFI (cfiCond144) V2 load(1, XDATA, add(CFA_XSP16, literal(-19)))
        CFI (cfiCond144) V3 load(1, XDATA, add(CFA_XSP16, literal(-18)))
        CFI (cfiCond144) V4 load(1, XDATA, add(CFA_XSP16, literal(-17)))
        CFI (cfiCond144) V5 load(1, XDATA, add(CFA_XSP16, literal(-16)))
        CFI (cfiCond144) V6 load(1, XDATA, add(CFA_XSP16, literal(-15)))
        CFI (cfiCond144) V7 load(1, XDATA, add(CFA_XSP16, literal(-14)))
        CFI (cfiCond144) V8 load(1, XDATA, add(CFA_XSP16, literal(-13)))
        CFI (cfiCond144) V9 load(1, XDATA, add(CFA_XSP16, literal(-12)))
        CFI (cfiCond144) V10 load(1, XDATA, add(CFA_XSP16, literal(-11)))
        CFI (cfiCond144) V11 load(1, XDATA, add(CFA_XSP16, literal(-10)))
        CFI (cfiCond144) V12 load(1, XDATA, add(CFA_XSP16, literal(-9)))
        CFI (cfiCond144) V13 load(1, XDATA, add(CFA_XSP16, literal(-8)))
        CFI (cfiCond144) V14 load(1, XDATA, add(CFA_XSP16, literal(-7)))
        CFI (cfiCond144) R7 load(1, XDATA, add(CFA_XSP16, literal(-6)))
        CFI (cfiCond144) ?RET_LOW load(1, XDATA, add(CFA_XSP16, literal(-5)))
        CFI (cfiCond144) ?RET_HIGH load(1, XDATA, add(CFA_XSP16, literal(-4)))
        CFI (cfiCond144) ?BRET_EXT load(1, XDATA, add(CFA_XSP16, literal(-3)))
        CFI (cfiCond144) DPL0 load(1, XDATA, add(CFA_XSP16, literal(-2)))
        CFI (cfiCond144) DPH0 load(1, XDATA, add(CFA_XSP16, literal(-1)))
        CFI (cfiCond144) CFA_SP SP+0
        CFI (cfiCond144) CFA_XSP16 add(XSP16, 23)
        CFI Block cfiPicker145 Using cfiCommon1
        CFI (cfiPicker145) NoFunction
        CFI (cfiPicker145) Picker
        MOV     DPL,?V0 + 2
        MOV     DPH,?V0 + 3
        MOV     A,?V0 + 4
        CFI EndBlock cfiCond143
        CFI EndBlock cfiCond144
        CFI EndBlock cfiPicker145
        REQUIRE ??Subroutine53_0
        ; // Fall through to label ??Subroutine53_0

        RSEG BANKED_CODE:CODE:NOROOT(0)
??Subroutine53_0:
        CFI Block cfiCond146 Using cfiCommon0
        CFI NoFunction
        CFI Conditional ??CrossCallReturnLabel_99
        CFI R6 load(1, XDATA, add(CFA_XSP16, literal(-23)))
        CFI VB load(1, XDATA, add(CFA_XSP16, literal(-22)))
        CFI V0 load(1, XDATA, add(CFA_XSP16, literal(-21)))
        CFI V1 load(1, XDATA, add(CFA_XSP16, literal(-20)))
        CFI V2 load(1, XDATA, add(CFA_XSP16, literal(-19)))
        CFI V3 load(1, XDATA, add(CFA_XSP16, literal(-18)))
        CFI V4 load(1, XDATA, add(CFA_XSP16, literal(-17)))
        CFI V5 load(1, XDATA, add(CFA_XSP16, literal(-16)))
        CFI V6 load(1, XDATA, add(CFA_XSP16, literal(-15)))
        CFI V7 load(1, XDATA, add(CFA_XSP16, literal(-14)))
        CFI V8 load(1, XDATA, add(CFA_XSP16, literal(-13)))
        CFI V9 load(1, XDATA, add(CFA_XSP16, literal(-12)))
        CFI V10 load(1, XDATA, add(CFA_XSP16, literal(-11)))
        CFI V11 load(1, XDATA, add(CFA_XSP16, literal(-10)))
        CFI V12 load(1, XDATA, add(CFA_XSP16, literal(-9)))
        CFI V13 load(1, XDATA, add(CFA_XSP16, literal(-8)))
        CFI V14 load(1, XDATA, add(CFA_XSP16, literal(-7)))
        CFI R7 load(1, XDATA, add(CFA_XSP16, literal(-6)))
        CFI ?RET_LOW load(1, XDATA, add(CFA_XSP16, literal(-5)))
        CFI ?RET_HIGH load(1, XDATA, add(CFA_XSP16, literal(-4)))
        CFI ?BRET_EXT load(1, XDATA, add(CFA_XSP16, literal(-3)))
        CFI DPL0 load(1, XDATA, add(CFA_XSP16, literal(-2)))
        CFI DPH0 load(1, XDATA, add(CFA_XSP16, literal(-1)))
        CFI CFA_SP SP+0
        CFI CFA_XSP16 add(XSP16, 23)
        CFI Block cfiCond147 Using cfiCommon0
        CFI (cfiCond147) NoFunction
        CFI (cfiCond147) Conditional ??CrossCallReturnLabel_97
        CFI (cfiCond147) R6 load(1, XDATA, add(CFA_XSP16, literal(-23)))
        CFI (cfiCond147) VB load(1, XDATA, add(CFA_XSP16, literal(-22)))
        CFI (cfiCond147) V0 load(1, XDATA, add(CFA_XSP16, literal(-21)))
        CFI (cfiCond147) V1 load(1, XDATA, add(CFA_XSP16, literal(-20)))
        CFI (cfiCond147) V2 load(1, XDATA, add(CFA_XSP16, literal(-19)))
        CFI (cfiCond147) V3 load(1, XDATA, add(CFA_XSP16, literal(-18)))
        CFI (cfiCond147) V4 load(1, XDATA, add(CFA_XSP16, literal(-17)))
        CFI (cfiCond147) V5 load(1, XDATA, add(CFA_XSP16, literal(-16)))
        CFI (cfiCond147) V6 load(1, XDATA, add(CFA_XSP16, literal(-15)))
        CFI (cfiCond147) V7 load(1, XDATA, add(CFA_XSP16, literal(-14)))
        CFI (cfiCond147) V8 load(1, XDATA, add(CFA_XSP16, literal(-13)))
        CFI (cfiCond147) V9 load(1, XDATA, add(CFA_XSP16, literal(-12)))
        CFI (cfiCond147) V10 load(1, XDATA, add(CFA_XSP16, literal(-11)))
        CFI (cfiCond147) V11 load(1, XDATA, add(CFA_XSP16, literal(-10)))
        CFI (cfiCond147) V12 load(1, XDATA, add(CFA_XSP16, literal(-9)))
        CFI (cfiCond147) V13 load(1, XDATA, add(CFA_XSP16, literal(-8)))
        CFI (cfiCond147) V14 load(1, XDATA, add(CFA_XSP16, literal(-7)))
        CFI (cfiCond147) R7 load(1, XDATA, add(CFA_XSP16, literal(-6)))
        CFI (cfiCond147) ?RET_LOW load(1, XDATA, add(CFA_XSP16, literal(-5)))
        CFI (cfiCond147) ?RET_HIGH load(1, XDATA, add(CFA_XSP16, literal(-4)))
        CFI (cfiCond147) ?BRET_EXT load(1, XDATA, add(CFA_XSP16, literal(-3)))
        CFI (cfiCond147) DPL0 load(1, XDATA, add(CFA_XSP16, literal(-2)))
        CFI (cfiCond147) DPH0 load(1, XDATA, add(CFA_XSP16, literal(-1)))
        CFI (cfiCond147) CFA_SP SP+0
        CFI (cfiCond147) CFA_XSP16 add(XSP16, 23)
        CFI Block cfiCond148 Using cfiCommon0
        CFI (cfiCond148) NoFunction
        CFI (cfiCond148) Conditional ??CrossCallReturnLabel_98
        CFI (cfiCond148) R6 load(1, XDATA, add(CFA_XSP16, literal(-23)))
        CFI (cfiCond148) VB load(1, XDATA, add(CFA_XSP16, literal(-22)))
        CFI (cfiCond148) V0 load(1, XDATA, add(CFA_XSP16, literal(-21)))
        CFI (cfiCond148) V1 load(1, XDATA, add(CFA_XSP16, literal(-20)))
        CFI (cfiCond148) V2 load(1, XDATA, add(CFA_XSP16, literal(-19)))
        CFI (cfiCond148) V3 load(1, XDATA, add(CFA_XSP16, literal(-18)))
        CFI (cfiCond148) V4 load(1, XDATA, add(CFA_XSP16, literal(-17)))
        CFI (cfiCond148) V5 load(1, XDATA, add(CFA_XSP16, literal(-16)))
        CFI (cfiCond148) V6 load(1, XDATA, add(CFA_XSP16, literal(-15)))
        CFI (cfiCond148) V7 load(1, XDATA, add(CFA_XSP16, literal(-14)))
        CFI (cfiCond148) V8 load(1, XDATA, add(CFA_XSP16, literal(-13)))
        CFI (cfiCond148) V9 load(1, XDATA, add(CFA_XSP16, literal(-12)))
        CFI (cfiCond148) V10 load(1, XDATA, add(CFA_XSP16, literal(-11)))
        CFI (cfiCond148) V11 load(1, XDATA, add(CFA_XSP16, literal(-10)))
        CFI (cfiCond148) V12 load(1, XDATA, add(CFA_XSP16, literal(-9)))
        CFI (cfiCond148) V13 load(1, XDATA, add(CFA_XSP16, literal(-8)))
        CFI (cfiCond148) V14 load(1, XDATA, add(CFA_XSP16, literal(-7)))
        CFI (cfiCond148) R7 load(1, XDATA, add(CFA_XSP16, literal(-6)))
        CFI (cfiCond148) ?RET_LOW load(1, XDATA, add(CFA_XSP16, literal(-5)))
        CFI (cfiCond148) ?RET_HIGH load(1, XDATA, add(CFA_XSP16, literal(-4)))
        CFI (cfiCond148) ?BRET_EXT load(1, XDATA, add(CFA_XSP16, literal(-3)))
        CFI (cfiCond148) DPL0 load(1, XDATA, add(CFA_XSP16, literal(-2)))
        CFI (cfiCond148) DPH0 load(1, XDATA, add(CFA_XSP16, literal(-1)))
        CFI (cfiCond148) CFA_SP SP+0
        CFI (cfiCond148) CFA_XSP16 add(XSP16, 23)
        CFI Block cfiPicker149 Using cfiCommon1
        CFI (cfiPicker149) NoFunction
        CFI (cfiPicker149) Picker
        LCALL   ?Subroutine41 & 0xFFFF
??CrossCallReturnLabel_101:
        MOV     DPL,R2
        MOV     DPH,R3
        MOV     R0,#?V0 + 4
        RET
        CFI EndBlock cfiCond146
        CFI EndBlock cfiCond147
        CFI EndBlock cfiCond148
        CFI EndBlock cfiPicker149

        RSEG BANKED_CODE:CODE:NOROOT(0)
?Subroutine20:
        CFI Block cfiCond150 Using cfiCommon0
        CFI NoFunction
        CFI Conditional ??CrossCallReturnLabel_103
        CFI R6 load(1, XDATA, add(CFA_XSP16, literal(-23)))
        CFI VB load(1, XDATA, add(CFA_XSP16, literal(-22)))
        CFI V0 load(1, XDATA, add(CFA_XSP16, literal(-21)))
        CFI V1 load(1, XDATA, add(CFA_XSP16, literal(-20)))
        CFI V2 load(1, XDATA, add(CFA_XSP16, literal(-19)))
        CFI V3 load(1, XDATA, add(CFA_XSP16, literal(-18)))
        CFI V4 load(1, XDATA, add(CFA_XSP16, literal(-17)))
        CFI V5 load(1, XDATA, add(CFA_XSP16, literal(-16)))
        CFI V6 load(1, XDATA, add(CFA_XSP16, literal(-15)))
        CFI V7 load(1, XDATA, add(CFA_XSP16, literal(-14)))
        CFI V8 load(1, XDATA, add(CFA_XSP16, literal(-13)))
        CFI V9 load(1, XDATA, add(CFA_XSP16, literal(-12)))
        CFI V10 load(1, XDATA, add(CFA_XSP16, literal(-11)))
        CFI V11 load(1, XDATA, add(CFA_XSP16, literal(-10)))
        CFI V12 load(1, XDATA, add(CFA_XSP16, literal(-9)))
        CFI V13 load(1, XDATA, add(CFA_XSP16, literal(-8)))
        CFI V14 load(1, XDATA, add(CFA_XSP16, literal(-7)))
        CFI R7 load(1, XDATA, add(CFA_XSP16, literal(-6)))
        CFI ?RET_LOW load(1, XDATA, add(CFA_XSP16, literal(-5)))
        CFI ?RET_HIGH load(1, XDATA, add(CFA_XSP16, literal(-4)))
        CFI ?BRET_EXT load(1, XDATA, add(CFA_XSP16, literal(-3)))
        CFI DPL0 load(1, XDATA, add(CFA_XSP16, literal(-2)))
        CFI DPH0 load(1, XDATA, add(CFA_XSP16, literal(-1)))
        CFI CFA_SP SP+0
        CFI CFA_XSP16 add(XSP16, 23)
        CFI Block cfiCond151 Using cfiCommon0
        CFI (cfiCond151) NoFunction
        CFI (cfiCond151) Conditional ??CrossCallReturnLabel_104
        CFI (cfiCond151) R6 load(1, XDATA, add(CFA_XSP16, literal(-23)))
        CFI (cfiCond151) VB load(1, XDATA, add(CFA_XSP16, literal(-22)))
        CFI (cfiCond151) V0 load(1, XDATA, add(CFA_XSP16, literal(-21)))
        CFI (cfiCond151) V1 load(1, XDATA, add(CFA_XSP16, literal(-20)))
        CFI (cfiCond151) V2 load(1, XDATA, add(CFA_XSP16, literal(-19)))
        CFI (cfiCond151) V3 load(1, XDATA, add(CFA_XSP16, literal(-18)))
        CFI (cfiCond151) V4 load(1, XDATA, add(CFA_XSP16, literal(-17)))
        CFI (cfiCond151) V5 load(1, XDATA, add(CFA_XSP16, literal(-16)))
        CFI (cfiCond151) V6 load(1, XDATA, add(CFA_XSP16, literal(-15)))
        CFI (cfiCond151) V7 load(1, XDATA, add(CFA_XSP16, literal(-14)))
        CFI (cfiCond151) V8 load(1, XDATA, add(CFA_XSP16, literal(-13)))
        CFI (cfiCond151) V9 load(1, XDATA, add(CFA_XSP16, literal(-12)))
        CFI (cfiCond151) V10 load(1, XDATA, add(CFA_XSP16, literal(-11)))
        CFI (cfiCond151) V11 load(1, XDATA, add(CFA_XSP16, literal(-10)))
        CFI (cfiCond151) V12 load(1, XDATA, add(CFA_XSP16, literal(-9)))
        CFI (cfiCond151) V13 load(1, XDATA, add(CFA_XSP16, literal(-8)))
        CFI (cfiCond151) V14 load(1, XDATA, add(CFA_XSP16, literal(-7)))
        CFI (cfiCond151) R7 load(1, XDATA, add(CFA_XSP16, literal(-6)))
        CFI (cfiCond151) ?RET_LOW load(1, XDATA, add(CFA_XSP16, literal(-5)))
        CFI (cfiCond151) ?RET_HIGH load(1, XDATA, add(CFA_XSP16, literal(-4)))
        CFI (cfiCond151) ?BRET_EXT load(1, XDATA, add(CFA_XSP16, literal(-3)))
        CFI (cfiCond151) DPL0 load(1, XDATA, add(CFA_XSP16, literal(-2)))
        CFI (cfiCond151) DPH0 load(1, XDATA, add(CFA_XSP16, literal(-1)))
        CFI (cfiCond151) CFA_SP SP+0
        CFI (cfiCond151) CFA_XSP16 add(XSP16, 23)
        CFI Block cfiCond152 Using cfiCommon0
        CFI (cfiCond152) NoFunction
        CFI (cfiCond152) Conditional ??CrossCallReturnLabel_105
        CFI (cfiCond152) R6 load(1, XDATA, add(CFA_XSP16, literal(-23)))
        CFI (cfiCond152) VB load(1, XDATA, add(CFA_XSP16, literal(-22)))
        CFI (cfiCond152) V0 load(1, XDATA, add(CFA_XSP16, literal(-21)))
        CFI (cfiCond152) V1 load(1, XDATA, add(CFA_XSP16, literal(-20)))
        CFI (cfiCond152) V2 load(1, XDATA, add(CFA_XSP16, literal(-19)))
        CFI (cfiCond152) V3 load(1, XDATA, add(CFA_XSP16, literal(-18)))
        CFI (cfiCond152) V4 load(1, XDATA, add(CFA_XSP16, literal(-17)))
        CFI (cfiCond152) V5 load(1, XDATA, add(CFA_XSP16, literal(-16)))
        CFI (cfiCond152) V6 load(1, XDATA, add(CFA_XSP16, literal(-15)))
        CFI (cfiCond152) V7 load(1, XDATA, add(CFA_XSP16, literal(-14)))
        CFI (cfiCond152) V8 load(1, XDATA, add(CFA_XSP16, literal(-13)))
        CFI (cfiCond152) V9 load(1, XDATA, add(CFA_XSP16, literal(-12)))
        CFI (cfiCond152) V10 load(1, XDATA, add(CFA_XSP16, literal(-11)))
        CFI (cfiCond152) V11 load(1, XDATA, add(CFA_XSP16, literal(-10)))
        CFI (cfiCond152) V12 load(1, XDATA, add(CFA_XSP16, literal(-9)))
        CFI (cfiCond152) V13 load(1, XDATA, add(CFA_XSP16, literal(-8)))
        CFI (cfiCond152) V14 load(1, XDATA, add(CFA_XSP16, literal(-7)))
        CFI (cfiCond152) R7 load(1, XDATA, add(CFA_XSP16, literal(-6)))
        CFI (cfiCond152) ?RET_LOW load(1, XDATA, add(CFA_XSP16, literal(-5)))
        CFI (cfiCond152) ?RET_HIGH load(1, XDATA, add(CFA_XSP16, literal(-4)))
        CFI (cfiCond152) ?BRET_EXT load(1, XDATA, add(CFA_XSP16, literal(-3)))
        CFI (cfiCond152) DPL0 load(1, XDATA, add(CFA_XSP16, literal(-2)))
        CFI (cfiCond152) DPH0 load(1, XDATA, add(CFA_XSP16, literal(-1)))
        CFI (cfiCond152) CFA_SP SP+0
        CFI (cfiCond152) CFA_XSP16 add(XSP16, 23)
        CFI Block cfiPicker153 Using cfiCommon1
        CFI (cfiPicker153) NoFunction
        CFI (cfiPicker153) Picker
        MOV     R0,A
        MOV     A,?V0 + 9
        CFI EndBlock cfiCond150
        CFI EndBlock cfiCond151
        CFI EndBlock cfiCond152
        CFI EndBlock cfiPicker153
        REQUIRE ??Subroutine54_0
        ; // Fall through to label ??Subroutine54_0

        RSEG BANKED_CODE:CODE:NOROOT(0)
??Subroutine54_0:
        CFI Block cfiCond154 Using cfiCommon0
        CFI NoFunction
        CFI Conditional ??CrossCallReturnLabel_102
        CFI R6 load(1, XDATA, add(CFA_XSP16, literal(-10)))
        CFI VB load(1, XDATA, add(CFA_XSP16, literal(-9)))
        CFI V0 load(1, XDATA, add(CFA_XSP16, literal(-8)))
        CFI V1 load(1, XDATA, add(CFA_XSP16, literal(-7)))
        CFI R7 load(1, XDATA, add(CFA_XSP16, literal(-6)))
        CFI ?RET_LOW load(1, XDATA, add(CFA_XSP16, literal(-5)))
        CFI ?RET_HIGH load(1, XDATA, add(CFA_XSP16, literal(-4)))
        CFI ?BRET_EXT load(1, XDATA, add(CFA_XSP16, literal(-3)))
        CFI DPL0 load(1, XDATA, add(CFA_XSP16, literal(-2)))
        CFI DPH0 load(1, XDATA, add(CFA_XSP16, literal(-1)))
        CFI CFA_SP SP+0
        CFI CFA_XSP16 add(XSP16, 12)
        CFI Block cfiCond155 Using cfiCommon0
        CFI (cfiCond155) NoFunction
        CFI (cfiCond155) Conditional ??CrossCallReturnLabel_103
        CFI (cfiCond155) R6 load(1, XDATA, add(CFA_XSP16, literal(-23)))
        CFI (cfiCond155) VB load(1, XDATA, add(CFA_XSP16, literal(-22)))
        CFI (cfiCond155) V0 load(1, XDATA, add(CFA_XSP16, literal(-21)))
        CFI (cfiCond155) V1 load(1, XDATA, add(CFA_XSP16, literal(-20)))
        CFI (cfiCond155) V2 load(1, XDATA, add(CFA_XSP16, literal(-19)))
        CFI (cfiCond155) V3 load(1, XDATA, add(CFA_XSP16, literal(-18)))
        CFI (cfiCond155) V4 load(1, XDATA, add(CFA_XSP16, literal(-17)))
        CFI (cfiCond155) V5 load(1, XDATA, add(CFA_XSP16, literal(-16)))
        CFI (cfiCond155) V6 load(1, XDATA, add(CFA_XSP16, literal(-15)))
        CFI (cfiCond155) V7 load(1, XDATA, add(CFA_XSP16, literal(-14)))
        CFI (cfiCond155) V8 load(1, XDATA, add(CFA_XSP16, literal(-13)))
        CFI (cfiCond155) V9 load(1, XDATA, add(CFA_XSP16, literal(-12)))
        CFI (cfiCond155) V10 load(1, XDATA, add(CFA_XSP16, literal(-11)))
        CFI (cfiCond155) V11 load(1, XDATA, add(CFA_XSP16, literal(-10)))
        CFI (cfiCond155) V12 load(1, XDATA, add(CFA_XSP16, literal(-9)))
        CFI (cfiCond155) V13 load(1, XDATA, add(CFA_XSP16, literal(-8)))
        CFI (cfiCond155) V14 load(1, XDATA, add(CFA_XSP16, literal(-7)))
        CFI (cfiCond155) R7 load(1, XDATA, add(CFA_XSP16, literal(-6)))
        CFI (cfiCond155) ?RET_LOW load(1, XDATA, add(CFA_XSP16, literal(-5)))
        CFI (cfiCond155) ?RET_HIGH load(1, XDATA, add(CFA_XSP16, literal(-4)))
        CFI (cfiCond155) ?BRET_EXT load(1, XDATA, add(CFA_XSP16, literal(-3)))
        CFI (cfiCond155) DPL0 load(1, XDATA, add(CFA_XSP16, literal(-2)))
        CFI (cfiCond155) DPH0 load(1, XDATA, add(CFA_XSP16, literal(-1)))
        CFI (cfiCond155) CFA_SP SP+0
        CFI (cfiCond155) CFA_XSP16 add(XSP16, 23)
        CFI Block cfiCond156 Using cfiCommon0
        CFI (cfiCond156) NoFunction
        CFI (cfiCond156) Conditional ??CrossCallReturnLabel_104
        CFI (cfiCond156) R6 load(1, XDATA, add(CFA_XSP16, literal(-23)))
        CFI (cfiCond156) VB load(1, XDATA, add(CFA_XSP16, literal(-22)))
        CFI (cfiCond156) V0 load(1, XDATA, add(CFA_XSP16, literal(-21)))
        CFI (cfiCond156) V1 load(1, XDATA, add(CFA_XSP16, literal(-20)))
        CFI (cfiCond156) V2 load(1, XDATA, add(CFA_XSP16, literal(-19)))
        CFI (cfiCond156) V3 load(1, XDATA, add(CFA_XSP16, literal(-18)))
        CFI (cfiCond156) V4 load(1, XDATA, add(CFA_XSP16, literal(-17)))
        CFI (cfiCond156) V5 load(1, XDATA, add(CFA_XSP16, literal(-16)))
        CFI (cfiCond156) V6 load(1, XDATA, add(CFA_XSP16, literal(-15)))
        CFI (cfiCond156) V7 load(1, XDATA, add(CFA_XSP16, literal(-14)))
        CFI (cfiCond156) V8 load(1, XDATA, add(CFA_XSP16, literal(-13)))
        CFI (cfiCond156) V9 load(1, XDATA, add(CFA_XSP16, literal(-12)))
        CFI (cfiCond156) V10 load(1, XDATA, add(CFA_XSP16, literal(-11)))
        CFI (cfiCond156) V11 load(1, XDATA, add(CFA_XSP16, literal(-10)))
        CFI (cfiCond156) V12 load(1, XDATA, add(CFA_XSP16, literal(-9)))
        CFI (cfiCond156) V13 load(1, XDATA, add(CFA_XSP16, literal(-8)))
        CFI (cfiCond156) V14 load(1, XDATA, add(CFA_XSP16, literal(-7)))
        CFI (cfiCond156) R7 load(1, XDATA, add(CFA_XSP16, literal(-6)))
        CFI (cfiCond156) ?RET_LOW load(1, XDATA, add(CFA_XSP16, literal(-5)))
        CFI (cfiCond156) ?RET_HIGH load(1, XDATA, add(CFA_XSP16, literal(-4)))
        CFI (cfiCond156) ?BRET_EXT load(1, XDATA, add(CFA_XSP16, literal(-3)))
        CFI (cfiCond156) DPL0 load(1, XDATA, add(CFA_XSP16, literal(-2)))
        CFI (cfiCond156) DPH0 load(1, XDATA, add(CFA_XSP16, literal(-1)))
        CFI (cfiCond156) CFA_SP SP+0
        CFI (cfiCond156) CFA_XSP16 add(XSP16, 23)
        CFI Block cfiCond157 Using cfiCommon0
        CFI (cfiCond157) NoFunction
        CFI (cfiCond157) Conditional ??CrossCallReturnLabel_105
        CFI (cfiCond157) R6 load(1, XDATA, add(CFA_XSP16, literal(-23)))
        CFI (cfiCond157) VB load(1, XDATA, add(CFA_XSP16, literal(-22)))
        CFI (cfiCond157) V0 load(1, XDATA, add(CFA_XSP16, literal(-21)))
        CFI (cfiCond157) V1 load(1, XDATA, add(CFA_XSP16, literal(-20)))
        CFI (cfiCond157) V2 load(1, XDATA, add(CFA_XSP16, literal(-19)))
        CFI (cfiCond157) V3 load(1, XDATA, add(CFA_XSP16, literal(-18)))
        CFI (cfiCond157) V4 load(1, XDATA, add(CFA_XSP16, literal(-17)))
        CFI (cfiCond157) V5 load(1, XDATA, add(CFA_XSP16, literal(-16)))
        CFI (cfiCond157) V6 load(1, XDATA, add(CFA_XSP16, literal(-15)))
        CFI (cfiCond157) V7 load(1, XDATA, add(CFA_XSP16, literal(-14)))
        CFI (cfiCond157) V8 load(1, XDATA, add(CFA_XSP16, literal(-13)))
        CFI (cfiCond157) V9 load(1, XDATA, add(CFA_XSP16, literal(-12)))
        CFI (cfiCond157) V10 load(1, XDATA, add(CFA_XSP16, literal(-11)))
        CFI (cfiCond157) V11 load(1, XDATA, add(CFA_XSP16, literal(-10)))
        CFI (cfiCond157) V12 load(1, XDATA, add(CFA_XSP16, literal(-9)))
        CFI (cfiCond157) V13 load(1, XDATA, add(CFA_XSP16, literal(-8)))
        CFI (cfiCond157) V14 load(1, XDATA, add(CFA_XSP16, literal(-7)))
        CFI (cfiCond157) R7 load(1, XDATA, add(CFA_XSP16, literal(-6)))
        CFI (cfiCond157) ?RET_LOW load(1, XDATA, add(CFA_XSP16, literal(-5)))
        CFI (cfiCond157) ?RET_HIGH load(1, XDATA, add(CFA_XSP16, literal(-4)))
        CFI (cfiCond157) ?BRET_EXT load(1, XDATA, add(CFA_XSP16, literal(-3)))
        CFI (cfiCond157) DPL0 load(1, XDATA, add(CFA_XSP16, literal(-2)))
        CFI (cfiCond157) DPH0 load(1, XDATA, add(CFA_XSP16, literal(-1)))
        CFI (cfiCond157) CFA_SP SP+0
        CFI (cfiCond157) CFA_XSP16 add(XSP16, 23)
        CFI Block cfiPicker158 Using cfiCommon1
        CFI (cfiPicker158) NoFunction
        CFI (cfiPicker158) Picker
        LCALL   ?Subroutine46 & 0xFFFF
??CrossCallReturnLabel_150:
        RET
        CFI EndBlock cfiCond154
        CFI EndBlock cfiCond155
        CFI EndBlock cfiCond156
        CFI EndBlock cfiCond157
        CFI EndBlock cfiPicker158

        RSEG BANKED_CODE:CODE:NOROOT(0)
?Subroutine18:
        CFI Block cfiCond159 Using cfiCommon0
        CFI NoFunction
        CFI Conditional ??CrossCallReturnLabel_26
        CFI R6 load(1, XDATA, add(CFA_XSP16, literal(-23)))
        CFI VB load(1, XDATA, add(CFA_XSP16, literal(-22)))
        CFI V0 load(1, XDATA, add(CFA_XSP16, literal(-21)))
        CFI V1 load(1, XDATA, add(CFA_XSP16, literal(-20)))
        CFI V2 load(1, XDATA, add(CFA_XSP16, literal(-19)))
        CFI V3 load(1, XDATA, add(CFA_XSP16, literal(-18)))
        CFI V4 load(1, XDATA, add(CFA_XSP16, literal(-17)))
        CFI V5 load(1, XDATA, add(CFA_XSP16, literal(-16)))
        CFI V6 load(1, XDATA, add(CFA_XSP16, literal(-15)))
        CFI V7 load(1, XDATA, add(CFA_XSP16, literal(-14)))
        CFI V8 load(1, XDATA, add(CFA_XSP16, literal(-13)))
        CFI V9 load(1, XDATA, add(CFA_XSP16, literal(-12)))
        CFI V10 load(1, XDATA, add(CFA_XSP16, literal(-11)))
        CFI V11 load(1, XDATA, add(CFA_XSP16, literal(-10)))
        CFI V12 load(1, XDATA, add(CFA_XSP16, literal(-9)))
        CFI V13 load(1, XDATA, add(CFA_XSP16, literal(-8)))
        CFI V14 load(1, XDATA, add(CFA_XSP16, literal(-7)))
        CFI R7 load(1, XDATA, add(CFA_XSP16, literal(-6)))
        CFI ?RET_LOW load(1, XDATA, add(CFA_XSP16, literal(-5)))
        CFI ?RET_HIGH load(1, XDATA, add(CFA_XSP16, literal(-4)))
        CFI ?BRET_EXT load(1, XDATA, add(CFA_XSP16, literal(-3)))
        CFI DPL0 load(1, XDATA, add(CFA_XSP16, literal(-2)))
        CFI DPH0 load(1, XDATA, add(CFA_XSP16, literal(-1)))
        CFI CFA_SP SP+0
        CFI CFA_XSP16 add(XSP16, 23)
        CFI Block cfiCond160 Using cfiCommon0
        CFI (cfiCond160) NoFunction
        CFI (cfiCond160) Conditional ??CrossCallReturnLabel_27
        CFI (cfiCond160) R6 load(1, XDATA, add(CFA_XSP16, literal(-23)))
        CFI (cfiCond160) VB load(1, XDATA, add(CFA_XSP16, literal(-22)))
        CFI (cfiCond160) V0 load(1, XDATA, add(CFA_XSP16, literal(-21)))
        CFI (cfiCond160) V1 load(1, XDATA, add(CFA_XSP16, literal(-20)))
        CFI (cfiCond160) V2 load(1, XDATA, add(CFA_XSP16, literal(-19)))
        CFI (cfiCond160) V3 load(1, XDATA, add(CFA_XSP16, literal(-18)))
        CFI (cfiCond160) V4 load(1, XDATA, add(CFA_XSP16, literal(-17)))
        CFI (cfiCond160) V5 load(1, XDATA, add(CFA_XSP16, literal(-16)))
        CFI (cfiCond160) V6 load(1, XDATA, add(CFA_XSP16, literal(-15)))
        CFI (cfiCond160) V7 load(1, XDATA, add(CFA_XSP16, literal(-14)))
        CFI (cfiCond160) V8 load(1, XDATA, add(CFA_XSP16, literal(-13)))
        CFI (cfiCond160) V9 load(1, XDATA, add(CFA_XSP16, literal(-12)))
        CFI (cfiCond160) V10 load(1, XDATA, add(CFA_XSP16, literal(-11)))
        CFI (cfiCond160) V11 load(1, XDATA, add(CFA_XSP16, literal(-10)))
        CFI (cfiCond160) V12 load(1, XDATA, add(CFA_XSP16, literal(-9)))
        CFI (cfiCond160) V13 load(1, XDATA, add(CFA_XSP16, literal(-8)))
        CFI (cfiCond160) V14 load(1, XDATA, add(CFA_XSP16, literal(-7)))
        CFI (cfiCond160) R7 load(1, XDATA, add(CFA_XSP16, literal(-6)))
        CFI (cfiCond160) ?RET_LOW load(1, XDATA, add(CFA_XSP16, literal(-5)))
        CFI (cfiCond160) ?RET_HIGH load(1, XDATA, add(CFA_XSP16, literal(-4)))
        CFI (cfiCond160) ?BRET_EXT load(1, XDATA, add(CFA_XSP16, literal(-3)))
        CFI (cfiCond160) DPL0 load(1, XDATA, add(CFA_XSP16, literal(-2)))
        CFI (cfiCond160) DPH0 load(1, XDATA, add(CFA_XSP16, literal(-1)))
        CFI (cfiCond160) CFA_SP SP+0
        CFI (cfiCond160) CFA_XSP16 add(XSP16, 23)
        CFI Block cfiPicker161 Using cfiCommon1
        CFI (cfiPicker161) NoFunction
        CFI (cfiPicker161) Picker
        LCALL   ?Subroutine45 & 0xFFFF
??CrossCallReturnLabel_126:
        RET
        CFI EndBlock cfiCond159
        CFI EndBlock cfiCond160
        CFI EndBlock cfiPicker161

        RSEG BANKED_CODE:CODE:NOROOT(0)
?Subroutine45:
        CFI Block cfiCond162 Using cfiCommon0
        CFI NoFunction
        CFI Conditional ??CrossCallReturnLabel_126, ??CrossCallReturnLabel_26
        CFI R6 load(1, XDATA, add(CFA_XSP16, literal(-23)))
        CFI VB load(1, XDATA, add(CFA_XSP16, literal(-22)))
        CFI V0 load(1, XDATA, add(CFA_XSP16, literal(-21)))
        CFI V1 load(1, XDATA, add(CFA_XSP16, literal(-20)))
        CFI V2 load(1, XDATA, add(CFA_XSP16, literal(-19)))
        CFI V3 load(1, XDATA, add(CFA_XSP16, literal(-18)))
        CFI V4 load(1, XDATA, add(CFA_XSP16, literal(-17)))
        CFI V5 load(1, XDATA, add(CFA_XSP16, literal(-16)))
        CFI V6 load(1, XDATA, add(CFA_XSP16, literal(-15)))
        CFI V7 load(1, XDATA, add(CFA_XSP16, literal(-14)))
        CFI V8 load(1, XDATA, add(CFA_XSP16, literal(-13)))
        CFI V9 load(1, XDATA, add(CFA_XSP16, literal(-12)))
        CFI V10 load(1, XDATA, add(CFA_XSP16, literal(-11)))
        CFI V11 load(1, XDATA, add(CFA_XSP16, literal(-10)))
        CFI V12 load(1, XDATA, add(CFA_XSP16, literal(-9)))
        CFI V13 load(1, XDATA, add(CFA_XSP16, literal(-8)))
        CFI V14 load(1, XDATA, add(CFA_XSP16, literal(-7)))
        CFI R7 load(1, XDATA, add(CFA_XSP16, literal(-6)))
        CFI ?RET_LOW load(1, XDATA, add(CFA_XSP16, literal(-5)))
        CFI ?RET_HIGH load(1, XDATA, add(CFA_XSP16, literal(-4)))
        CFI ?BRET_EXT load(1, XDATA, add(CFA_XSP16, literal(-3)))
        CFI DPL0 load(1, XDATA, add(CFA_XSP16, literal(-2)))
        CFI DPH0 load(1, XDATA, add(CFA_XSP16, literal(-1)))
        CFI CFA_SP SP+0
        CFI CFA_XSP16 add(XSP16, 23)
        CFI Block cfiCond163 Using cfiCommon0
        CFI (cfiCond163) NoFunction
        CFI (cfiCond163) Conditional ??CrossCallReturnLabel_126, ??CrossCallReturnLabel_27
        CFI (cfiCond163) R6 load(1, XDATA, add(CFA_XSP16, literal(-23)))
        CFI (cfiCond163) VB load(1, XDATA, add(CFA_XSP16, literal(-22)))
        CFI (cfiCond163) V0 load(1, XDATA, add(CFA_XSP16, literal(-21)))
        CFI (cfiCond163) V1 load(1, XDATA, add(CFA_XSP16, literal(-20)))
        CFI (cfiCond163) V2 load(1, XDATA, add(CFA_XSP16, literal(-19)))
        CFI (cfiCond163) V3 load(1, XDATA, add(CFA_XSP16, literal(-18)))
        CFI (cfiCond163) V4 load(1, XDATA, add(CFA_XSP16, literal(-17)))
        CFI (cfiCond163) V5 load(1, XDATA, add(CFA_XSP16, literal(-16)))
        CFI (cfiCond163) V6 load(1, XDATA, add(CFA_XSP16, literal(-15)))
        CFI (cfiCond163) V7 load(1, XDATA, add(CFA_XSP16, literal(-14)))
        CFI (cfiCond163) V8 load(1, XDATA, add(CFA_XSP16, literal(-13)))
        CFI (cfiCond163) V9 load(1, XDATA, add(CFA_XSP16, literal(-12)))
        CFI (cfiCond163) V10 load(1, XDATA, add(CFA_XSP16, literal(-11)))
        CFI (cfiCond163) V11 load(1, XDATA, add(CFA_XSP16, literal(-10)))
        CFI (cfiCond163) V12 load(1, XDATA, add(CFA_XSP16, literal(-9)))
        CFI (cfiCond163) V13 load(1, XDATA, add(CFA_XSP16, literal(-8)))
        CFI (cfiCond163) V14 load(1, XDATA, add(CFA_XSP16, literal(-7)))
        CFI (cfiCond163) R7 load(1, XDATA, add(CFA_XSP16, literal(-6)))
        CFI (cfiCond163) ?RET_LOW load(1, XDATA, add(CFA_XSP16, literal(-5)))
        CFI (cfiCond163) ?RET_HIGH load(1, XDATA, add(CFA_XSP16, literal(-4)))
        CFI (cfiCond163) ?BRET_EXT load(1, XDATA, add(CFA_XSP16, literal(-3)))
        CFI (cfiCond163) DPL0 load(1, XDATA, add(CFA_XSP16, literal(-2)))
        CFI (cfiCond163) DPH0 load(1, XDATA, add(CFA_XSP16, literal(-1)))
        CFI (cfiCond163) CFA_SP SP+0
        CFI (cfiCond163) CFA_XSP16 add(XSP16, 23)
        CFI Block cfiCond164 Using cfiCommon0
        CFI (cfiCond164) NoFunction
        CFI (cfiCond164) Conditional ??CrossCallReturnLabel_127, ??CrossCallReturnLabel_123, ??CrossCallReturnLabel_7
        CFI (cfiCond164) R6 load(1, XDATA, add(CFA_XSP16, literal(-23)))
        CFI (cfiCond164) VB load(1, XDATA, add(CFA_XSP16, literal(-22)))
        CFI (cfiCond164) V0 load(1, XDATA, add(CFA_XSP16, literal(-21)))
        CFI (cfiCond164) V1 load(1, XDATA, add(CFA_XSP16, literal(-20)))
        CFI (cfiCond164) V2 load(1, XDATA, add(CFA_XSP16, literal(-19)))
        CFI (cfiCond164) V3 load(1, XDATA, add(CFA_XSP16, literal(-18)))
        CFI (cfiCond164) V4 load(1, XDATA, add(CFA_XSP16, literal(-17)))
        CFI (cfiCond164) V5 load(1, XDATA, add(CFA_XSP16, literal(-16)))
        CFI (cfiCond164) V6 load(1, XDATA, add(CFA_XSP16, literal(-15)))
        CFI (cfiCond164) V7 load(1, XDATA, add(CFA_XSP16, literal(-14)))
        CFI (cfiCond164) V8 load(1, XDATA, add(CFA_XSP16, literal(-13)))
        CFI (cfiCond164) V9 load(1, XDATA, add(CFA_XSP16, literal(-12)))
        CFI (cfiCond164) V10 load(1, XDATA, add(CFA_XSP16, literal(-11)))
        CFI (cfiCond164) V11 load(1, XDATA, add(CFA_XSP16, literal(-10)))
        CFI (cfiCond164) V12 load(1, XDATA, add(CFA_XSP16, literal(-9)))
        CFI (cfiCond164) V13 load(1, XDATA, add(CFA_XSP16, literal(-8)))
        CFI (cfiCond164) V14 load(1, XDATA, add(CFA_XSP16, literal(-7)))
        CFI (cfiCond164) R7 load(1, XDATA, add(CFA_XSP16, literal(-6)))
        CFI (cfiCond164) ?RET_LOW load(1, XDATA, add(CFA_XSP16, literal(-5)))
        CFI (cfiCond164) ?RET_HIGH load(1, XDATA, add(CFA_XSP16, literal(-4)))
        CFI (cfiCond164) ?BRET_EXT load(1, XDATA, add(CFA_XSP16, literal(-3)))
        CFI (cfiCond164) DPL0 load(1, XDATA, add(CFA_XSP16, literal(-2)))
        CFI (cfiCond164) DPH0 load(1, XDATA, add(CFA_XSP16, literal(-1)))
        CFI (cfiCond164) CFA_SP SP+0
        CFI (cfiCond164) CFA_XSP16 add(XSP16, 23)
        CFI Block cfiCond165 Using cfiCommon0
        CFI (cfiCond165) NoFunction
        CFI (cfiCond165) Conditional ??CrossCallReturnLabel_127, ??CrossCallReturnLabel_123, ??CrossCallReturnLabel_8
        CFI (cfiCond165) R6 load(1, XDATA, add(CFA_XSP16, literal(-23)))
        CFI (cfiCond165) VB load(1, XDATA, add(CFA_XSP16, literal(-22)))
        CFI (cfiCond165) V0 load(1, XDATA, add(CFA_XSP16, literal(-21)))
        CFI (cfiCond165) V1 load(1, XDATA, add(CFA_XSP16, literal(-20)))
        CFI (cfiCond165) V2 load(1, XDATA, add(CFA_XSP16, literal(-19)))
        CFI (cfiCond165) V3 load(1, XDATA, add(CFA_XSP16, literal(-18)))
        CFI (cfiCond165) V4 load(1, XDATA, add(CFA_XSP16, literal(-17)))
        CFI (cfiCond165) V5 load(1, XDATA, add(CFA_XSP16, literal(-16)))
        CFI (cfiCond165) V6 load(1, XDATA, add(CFA_XSP16, literal(-15)))
        CFI (cfiCond165) V7 load(1, XDATA, add(CFA_XSP16, literal(-14)))
        CFI (cfiCond165) V8 load(1, XDATA, add(CFA_XSP16, literal(-13)))
        CFI (cfiCond165) V9 load(1, XDATA, add(CFA_XSP16, literal(-12)))
        CFI (cfiCond165) V10 load(1, XDATA, add(CFA_XSP16, literal(-11)))
        CFI (cfiCond165) V11 load(1, XDATA, add(CFA_XSP16, literal(-10)))
        CFI (cfiCond165) V12 load(1, XDATA, add(CFA_XSP16, literal(-9)))
        CFI (cfiCond165) V13 load(1, XDATA, add(CFA_XSP16, literal(-8)))
        CFI (cfiCond165) V14 load(1, XDATA, add(CFA_XSP16, literal(-7)))
        CFI (cfiCond165) R7 load(1, XDATA, add(CFA_XSP16, literal(-6)))
        CFI (cfiCond165) ?RET_LOW load(1, XDATA, add(CFA_XSP16, literal(-5)))
        CFI (cfiCond165) ?RET_HIGH load(1, XDATA, add(CFA_XSP16, literal(-4)))
        CFI (cfiCond165) ?BRET_EXT load(1, XDATA, add(CFA_XSP16, literal(-3)))
        CFI (cfiCond165) DPL0 load(1, XDATA, add(CFA_XSP16, literal(-2)))
        CFI (cfiCond165) DPH0 load(1, XDATA, add(CFA_XSP16, literal(-1)))
        CFI (cfiCond165) CFA_SP SP+0
        CFI (cfiCond165) CFA_XSP16 add(XSP16, 23)
        CFI Block cfiCond166 Using cfiCommon0
        CFI (cfiCond166) NoFunction
        CFI (cfiCond166) Conditional ??CrossCallReturnLabel_127, ??CrossCallReturnLabel_124, ??CrossCallReturnLabel_112
        CFI (cfiCond166) R6 load(1, XDATA, add(CFA_XSP16, literal(-23)))
        CFI (cfiCond166) VB load(1, XDATA, add(CFA_XSP16, literal(-22)))
        CFI (cfiCond166) V0 load(1, XDATA, add(CFA_XSP16, literal(-21)))
        CFI (cfiCond166) V1 load(1, XDATA, add(CFA_XSP16, literal(-20)))
        CFI (cfiCond166) V2 load(1, XDATA, add(CFA_XSP16, literal(-19)))
        CFI (cfiCond166) V3 load(1, XDATA, add(CFA_XSP16, literal(-18)))
        CFI (cfiCond166) V4 load(1, XDATA, add(CFA_XSP16, literal(-17)))
        CFI (cfiCond166) V5 load(1, XDATA, add(CFA_XSP16, literal(-16)))
        CFI (cfiCond166) V6 load(1, XDATA, add(CFA_XSP16, literal(-15)))
        CFI (cfiCond166) V7 load(1, XDATA, add(CFA_XSP16, literal(-14)))
        CFI (cfiCond166) V8 load(1, XDATA, add(CFA_XSP16, literal(-13)))
        CFI (cfiCond166) V9 load(1, XDATA, add(CFA_XSP16, literal(-12)))
        CFI (cfiCond166) V10 load(1, XDATA, add(CFA_XSP16, literal(-11)))
        CFI (cfiCond166) V11 load(1, XDATA, add(CFA_XSP16, literal(-10)))
        CFI (cfiCond166) V12 load(1, XDATA, add(CFA_XSP16, literal(-9)))
        CFI (cfiCond166) V13 load(1, XDATA, add(CFA_XSP16, literal(-8)))
        CFI (cfiCond166) V14 load(1, XDATA, add(CFA_XSP16, literal(-7)))
        CFI (cfiCond166) R7 load(1, XDATA, add(CFA_XSP16, literal(-6)))
        CFI (cfiCond166) ?RET_LOW load(1, XDATA, add(CFA_XSP16, literal(-5)))
        CFI (cfiCond166) ?RET_HIGH load(1, XDATA, add(CFA_XSP16, literal(-4)))
        CFI (cfiCond166) ?BRET_EXT load(1, XDATA, add(CFA_XSP16, literal(-3)))
        CFI (cfiCond166) DPL0 load(1, XDATA, add(CFA_XSP16, literal(-2)))
        CFI (cfiCond166) DPH0 load(1, XDATA, add(CFA_XSP16, literal(-1)))
        CFI (cfiCond166) CFA_SP SP+0
        CFI (cfiCond166) CFA_XSP16 add(XSP16, 23)
        CFI Block cfiCond167 Using cfiCommon0
        CFI (cfiCond167) NoFunction
        CFI (cfiCond167) Conditional ??CrossCallReturnLabel_127, ??CrossCallReturnLabel_124, ??CrossCallReturnLabel_113
        CFI (cfiCond167) R6 load(1, XDATA, add(CFA_XSP16, literal(-23)))
        CFI (cfiCond167) VB load(1, XDATA, add(CFA_XSP16, literal(-22)))
        CFI (cfiCond167) V0 load(1, XDATA, add(CFA_XSP16, literal(-21)))
        CFI (cfiCond167) V1 load(1, XDATA, add(CFA_XSP16, literal(-20)))
        CFI (cfiCond167) V2 load(1, XDATA, add(CFA_XSP16, literal(-19)))
        CFI (cfiCond167) V3 load(1, XDATA, add(CFA_XSP16, literal(-18)))
        CFI (cfiCond167) V4 load(1, XDATA, add(CFA_XSP16, literal(-17)))
        CFI (cfiCond167) V5 load(1, XDATA, add(CFA_XSP16, literal(-16)))
        CFI (cfiCond167) V6 load(1, XDATA, add(CFA_XSP16, literal(-15)))
        CFI (cfiCond167) V7 load(1, XDATA, add(CFA_XSP16, literal(-14)))
        CFI (cfiCond167) V8 load(1, XDATA, add(CFA_XSP16, literal(-13)))
        CFI (cfiCond167) V9 load(1, XDATA, add(CFA_XSP16, literal(-12)))
        CFI (cfiCond167) V10 load(1, XDATA, add(CFA_XSP16, literal(-11)))
        CFI (cfiCond167) V11 load(1, XDATA, add(CFA_XSP16, literal(-10)))
        CFI (cfiCond167) V12 load(1, XDATA, add(CFA_XSP16, literal(-9)))
        CFI (cfiCond167) V13 load(1, XDATA, add(CFA_XSP16, literal(-8)))
        CFI (cfiCond167) V14 load(1, XDATA, add(CFA_XSP16, literal(-7)))
        CFI (cfiCond167) R7 load(1, XDATA, add(CFA_XSP16, literal(-6)))
        CFI (cfiCond167) ?RET_LOW load(1, XDATA, add(CFA_XSP16, literal(-5)))
        CFI (cfiCond167) ?RET_HIGH load(1, XDATA, add(CFA_XSP16, literal(-4)))
        CFI (cfiCond167) ?BRET_EXT load(1, XDATA, add(CFA_XSP16, literal(-3)))
        CFI (cfiCond167) DPL0 load(1, XDATA, add(CFA_XSP16, literal(-2)))
        CFI (cfiCond167) DPH0 load(1, XDATA, add(CFA_XSP16, literal(-1)))
        CFI (cfiCond167) CFA_SP SP+0
        CFI (cfiCond167) CFA_XSP16 add(XSP16, 23)
        CFI Block cfiCond168 Using cfiCommon0
        CFI (cfiCond168) NoFunction
        CFI (cfiCond168) Conditional ??CrossCallReturnLabel_127, ??CrossCallReturnLabel_124, ??CrossCallReturnLabel_114
        CFI (cfiCond168) R6 load(1, XDATA, add(CFA_XSP16, literal(-23)))
        CFI (cfiCond168) VB load(1, XDATA, add(CFA_XSP16, literal(-22)))
        CFI (cfiCond168) V0 load(1, XDATA, add(CFA_XSP16, literal(-21)))
        CFI (cfiCond168) V1 load(1, XDATA, add(CFA_XSP16, literal(-20)))
        CFI (cfiCond168) V2 load(1, XDATA, add(CFA_XSP16, literal(-19)))
        CFI (cfiCond168) V3 load(1, XDATA, add(CFA_XSP16, literal(-18)))
        CFI (cfiCond168) V4 load(1, XDATA, add(CFA_XSP16, literal(-17)))
        CFI (cfiCond168) V5 load(1, XDATA, add(CFA_XSP16, literal(-16)))
        CFI (cfiCond168) V6 load(1, XDATA, add(CFA_XSP16, literal(-15)))
        CFI (cfiCond168) V7 load(1, XDATA, add(CFA_XSP16, literal(-14)))
        CFI (cfiCond168) V8 load(1, XDATA, add(CFA_XSP16, literal(-13)))
        CFI (cfiCond168) V9 load(1, XDATA, add(CFA_XSP16, literal(-12)))
        CFI (cfiCond168) V10 load(1, XDATA, add(CFA_XSP16, literal(-11)))
        CFI (cfiCond168) V11 load(1, XDATA, add(CFA_XSP16, literal(-10)))
        CFI (cfiCond168) V12 load(1, XDATA, add(CFA_XSP16, literal(-9)))
        CFI (cfiCond168) V13 load(1, XDATA, add(CFA_XSP16, literal(-8)))
        CFI (cfiCond168) V14 load(1, XDATA, add(CFA_XSP16, literal(-7)))
        CFI (cfiCond168) R7 load(1, XDATA, add(CFA_XSP16, literal(-6)))
        CFI (cfiCond168) ?RET_LOW load(1, XDATA, add(CFA_XSP16, literal(-5)))
        CFI (cfiCond168) ?RET_HIGH load(1, XDATA, add(CFA_XSP16, literal(-4)))
        CFI (cfiCond168) ?BRET_EXT load(1, XDATA, add(CFA_XSP16, literal(-3)))
        CFI (cfiCond168) DPL0 load(1, XDATA, add(CFA_XSP16, literal(-2)))
        CFI (cfiCond168) DPH0 load(1, XDATA, add(CFA_XSP16, literal(-1)))
        CFI (cfiCond168) CFA_SP SP+0
        CFI (cfiCond168) CFA_XSP16 add(XSP16, 23)
        CFI Block cfiCond169 Using cfiCommon0
        CFI (cfiCond169) NoFunction
        CFI (cfiCond169) Conditional ??CrossCallReturnLabel_127, ??CrossCallReturnLabel_125, ??CrossCallReturnLabel_115
        CFI (cfiCond169) R6 load(1, XDATA, add(CFA_XSP16, literal(-23)))
        CFI (cfiCond169) VB load(1, XDATA, add(CFA_XSP16, literal(-22)))
        CFI (cfiCond169) V0 load(1, XDATA, add(CFA_XSP16, literal(-21)))
        CFI (cfiCond169) V1 load(1, XDATA, add(CFA_XSP16, literal(-20)))
        CFI (cfiCond169) V2 load(1, XDATA, add(CFA_XSP16, literal(-19)))
        CFI (cfiCond169) V3 load(1, XDATA, add(CFA_XSP16, literal(-18)))
        CFI (cfiCond169) V4 load(1, XDATA, add(CFA_XSP16, literal(-17)))
        CFI (cfiCond169) V5 load(1, XDATA, add(CFA_XSP16, literal(-16)))
        CFI (cfiCond169) V6 load(1, XDATA, add(CFA_XSP16, literal(-15)))
        CFI (cfiCond169) V7 load(1, XDATA, add(CFA_XSP16, literal(-14)))
        CFI (cfiCond169) V8 load(1, XDATA, add(CFA_XSP16, literal(-13)))
        CFI (cfiCond169) V9 load(1, XDATA, add(CFA_XSP16, literal(-12)))
        CFI (cfiCond169) V10 load(1, XDATA, add(CFA_XSP16, literal(-11)))
        CFI (cfiCond169) V11 load(1, XDATA, add(CFA_XSP16, literal(-10)))
        CFI (cfiCond169) V12 load(1, XDATA, add(CFA_XSP16, literal(-9)))
        CFI (cfiCond169) V13 load(1, XDATA, add(CFA_XSP16, literal(-8)))
        CFI (cfiCond169) V14 load(1, XDATA, add(CFA_XSP16, literal(-7)))
        CFI (cfiCond169) R7 load(1, XDATA, add(CFA_XSP16, literal(-6)))
        CFI (cfiCond169) ?RET_LOW load(1, XDATA, add(CFA_XSP16, literal(-5)))
        CFI (cfiCond169) ?RET_HIGH load(1, XDATA, add(CFA_XSP16, literal(-4)))
        CFI (cfiCond169) ?BRET_EXT load(1, XDATA, add(CFA_XSP16, literal(-3)))
        CFI (cfiCond169) DPL0 load(1, XDATA, add(CFA_XSP16, literal(-2)))
        CFI (cfiCond169) DPH0 load(1, XDATA, add(CFA_XSP16, literal(-1)))
        CFI (cfiCond169) CFA_SP SP+0
        CFI (cfiCond169) CFA_XSP16 add(XSP16, 23)
        CFI Block cfiCond170 Using cfiCommon0
        CFI (cfiCond170) NoFunction
        CFI (cfiCond170) Conditional ??CrossCallReturnLabel_127, ??CrossCallReturnLabel_125, ??CrossCallReturnLabel_116
        CFI (cfiCond170) R6 load(1, XDATA, add(CFA_XSP16, literal(-23)))
        CFI (cfiCond170) VB load(1, XDATA, add(CFA_XSP16, literal(-22)))
        CFI (cfiCond170) V0 load(1, XDATA, add(CFA_XSP16, literal(-21)))
        CFI (cfiCond170) V1 load(1, XDATA, add(CFA_XSP16, literal(-20)))
        CFI (cfiCond170) V2 load(1, XDATA, add(CFA_XSP16, literal(-19)))
        CFI (cfiCond170) V3 load(1, XDATA, add(CFA_XSP16, literal(-18)))
        CFI (cfiCond170) V4 load(1, XDATA, add(CFA_XSP16, literal(-17)))
        CFI (cfiCond170) V5 load(1, XDATA, add(CFA_XSP16, literal(-16)))
        CFI (cfiCond170) V6 load(1, XDATA, add(CFA_XSP16, literal(-15)))
        CFI (cfiCond170) V7 load(1, XDATA, add(CFA_XSP16, literal(-14)))
        CFI (cfiCond170) V8 load(1, XDATA, add(CFA_XSP16, literal(-13)))
        CFI (cfiCond170) V9 load(1, XDATA, add(CFA_XSP16, literal(-12)))
        CFI (cfiCond170) V10 load(1, XDATA, add(CFA_XSP16, literal(-11)))
        CFI (cfiCond170) V11 load(1, XDATA, add(CFA_XSP16, literal(-10)))
        CFI (cfiCond170) V12 load(1, XDATA, add(CFA_XSP16, literal(-9)))
        CFI (cfiCond170) V13 load(1, XDATA, add(CFA_XSP16, literal(-8)))
        CFI (cfiCond170) V14 load(1, XDATA, add(CFA_XSP16, literal(-7)))
        CFI (cfiCond170) R7 load(1, XDATA, add(CFA_XSP16, literal(-6)))
        CFI (cfiCond170) ?RET_LOW load(1, XDATA, add(CFA_XSP16, literal(-5)))
        CFI (cfiCond170) ?RET_HIGH load(1, XDATA, add(CFA_XSP16, literal(-4)))
        CFI (cfiCond170) ?BRET_EXT load(1, XDATA, add(CFA_XSP16, literal(-3)))
        CFI (cfiCond170) DPL0 load(1, XDATA, add(CFA_XSP16, literal(-2)))
        CFI (cfiCond170) DPH0 load(1, XDATA, add(CFA_XSP16, literal(-1)))
        CFI (cfiCond170) CFA_SP SP+0
        CFI (cfiCond170) CFA_XSP16 add(XSP16, 23)
        CFI Block cfiCond171 Using cfiCommon0
        CFI (cfiCond171) NoFunction
        CFI (cfiCond171) Conditional ??CrossCallReturnLabel_127, ??CrossCallReturnLabel_125, ??CrossCallReturnLabel_117
        CFI (cfiCond171) R6 load(1, XDATA, add(CFA_XSP16, literal(-23)))
        CFI (cfiCond171) VB load(1, XDATA, add(CFA_XSP16, literal(-22)))
        CFI (cfiCond171) V0 load(1, XDATA, add(CFA_XSP16, literal(-21)))
        CFI (cfiCond171) V1 load(1, XDATA, add(CFA_XSP16, literal(-20)))
        CFI (cfiCond171) V2 load(1, XDATA, add(CFA_XSP16, literal(-19)))
        CFI (cfiCond171) V3 load(1, XDATA, add(CFA_XSP16, literal(-18)))
        CFI (cfiCond171) V4 load(1, XDATA, add(CFA_XSP16, literal(-17)))
        CFI (cfiCond171) V5 load(1, XDATA, add(CFA_XSP16, literal(-16)))
        CFI (cfiCond171) V6 load(1, XDATA, add(CFA_XSP16, literal(-15)))
        CFI (cfiCond171) V7 load(1, XDATA, add(CFA_XSP16, literal(-14)))
        CFI (cfiCond171) V8 load(1, XDATA, add(CFA_XSP16, literal(-13)))
        CFI (cfiCond171) V9 load(1, XDATA, add(CFA_XSP16, literal(-12)))
        CFI (cfiCond171) V10 load(1, XDATA, add(CFA_XSP16, literal(-11)))
        CFI (cfiCond171) V11 load(1, XDATA, add(CFA_XSP16, literal(-10)))
        CFI (cfiCond171) V12 load(1, XDATA, add(CFA_XSP16, literal(-9)))
        CFI (cfiCond171) V13 load(1, XDATA, add(CFA_XSP16, literal(-8)))
        CFI (cfiCond171) V14 load(1, XDATA, add(CFA_XSP16, literal(-7)))
        CFI (cfiCond171) R7 load(1, XDATA, add(CFA_XSP16, literal(-6)))
        CFI (cfiCond171) ?RET_LOW load(1, XDATA, add(CFA_XSP16, literal(-5)))
        CFI (cfiCond171) ?RET_HIGH load(1, XDATA, add(CFA_XSP16, literal(-4)))
        CFI (cfiCond171) ?BRET_EXT load(1, XDATA, add(CFA_XSP16, literal(-3)))
        CFI (cfiCond171) DPL0 load(1, XDATA, add(CFA_XSP16, literal(-2)))
        CFI (cfiCond171) DPH0 load(1, XDATA, add(CFA_XSP16, literal(-1)))
        CFI (cfiCond171) CFA_SP SP+0
        CFI (cfiCond171) CFA_XSP16 add(XSP16, 23)
        CFI Block cfiCond172 Using cfiCommon0
        CFI (cfiCond172) NoFunction
        CFI (cfiCond172) Conditional ??CrossCallReturnLabel_127, ??CrossCallReturnLabel_125, ??CrossCallReturnLabel_118
        CFI (cfiCond172) R6 load(1, XDATA, add(CFA_XSP16, literal(-23)))
        CFI (cfiCond172) VB load(1, XDATA, add(CFA_XSP16, literal(-22)))
        CFI (cfiCond172) V0 load(1, XDATA, add(CFA_XSP16, literal(-21)))
        CFI (cfiCond172) V1 load(1, XDATA, add(CFA_XSP16, literal(-20)))
        CFI (cfiCond172) V2 load(1, XDATA, add(CFA_XSP16, literal(-19)))
        CFI (cfiCond172) V3 load(1, XDATA, add(CFA_XSP16, literal(-18)))
        CFI (cfiCond172) V4 load(1, XDATA, add(CFA_XSP16, literal(-17)))
        CFI (cfiCond172) V5 load(1, XDATA, add(CFA_XSP16, literal(-16)))
        CFI (cfiCond172) V6 load(1, XDATA, add(CFA_XSP16, literal(-15)))
        CFI (cfiCond172) V7 load(1, XDATA, add(CFA_XSP16, literal(-14)))
        CFI (cfiCond172) V8 load(1, XDATA, add(CFA_XSP16, literal(-13)))
        CFI (cfiCond172) V9 load(1, XDATA, add(CFA_XSP16, literal(-12)))
        CFI (cfiCond172) V10 load(1, XDATA, add(CFA_XSP16, literal(-11)))
        CFI (cfiCond172) V11 load(1, XDATA, add(CFA_XSP16, literal(-10)))
        CFI (cfiCond172) V12 load(1, XDATA, add(CFA_XSP16, literal(-9)))
        CFI (cfiCond172) V13 load(1, XDATA, add(CFA_XSP16, literal(-8)))
        CFI (cfiCond172) V14 load(1, XDATA, add(CFA_XSP16, literal(-7)))
        CFI (cfiCond172) R7 load(1, XDATA, add(CFA_XSP16, literal(-6)))
        CFI (cfiCond172) ?RET_LOW load(1, XDATA, add(CFA_XSP16, literal(-5)))
        CFI (cfiCond172) ?RET_HIGH load(1, XDATA, add(CFA_XSP16, literal(-4)))
        CFI (cfiCond172) ?BRET_EXT load(1, XDATA, add(CFA_XSP16, literal(-3)))
        CFI (cfiCond172) DPL0 load(1, XDATA, add(CFA_XSP16, literal(-2)))
        CFI (cfiCond172) DPH0 load(1, XDATA, add(CFA_XSP16, literal(-1)))
        CFI (cfiCond172) CFA_SP SP+0
        CFI (cfiCond172) CFA_XSP16 add(XSP16, 23)
        CFI Block cfiCond173 Using cfiCommon0
        CFI (cfiCond173) NoFunction
        CFI (cfiCond173) Conditional ??CrossCallReturnLabel_127, ??CrossCallReturnLabel_125, ??CrossCallReturnLabel_119
        CFI (cfiCond173) R6 load(1, XDATA, add(CFA_XSP16, literal(-23)))
        CFI (cfiCond173) VB load(1, XDATA, add(CFA_XSP16, literal(-22)))
        CFI (cfiCond173) V0 load(1, XDATA, add(CFA_XSP16, literal(-21)))
        CFI (cfiCond173) V1 load(1, XDATA, add(CFA_XSP16, literal(-20)))
        CFI (cfiCond173) V2 load(1, XDATA, add(CFA_XSP16, literal(-19)))
        CFI (cfiCond173) V3 load(1, XDATA, add(CFA_XSP16, literal(-18)))
        CFI (cfiCond173) V4 load(1, XDATA, add(CFA_XSP16, literal(-17)))
        CFI (cfiCond173) V5 load(1, XDATA, add(CFA_XSP16, literal(-16)))
        CFI (cfiCond173) V6 load(1, XDATA, add(CFA_XSP16, literal(-15)))
        CFI (cfiCond173) V7 load(1, XDATA, add(CFA_XSP16, literal(-14)))
        CFI (cfiCond173) V8 load(1, XDATA, add(CFA_XSP16, literal(-13)))
        CFI (cfiCond173) V9 load(1, XDATA, add(CFA_XSP16, literal(-12)))
        CFI (cfiCond173) V10 load(1, XDATA, add(CFA_XSP16, literal(-11)))
        CFI (cfiCond173) V11 load(1, XDATA, add(CFA_XSP16, literal(-10)))
        CFI (cfiCond173) V12 load(1, XDATA, add(CFA_XSP16, literal(-9)))
        CFI (cfiCond173) V13 load(1, XDATA, add(CFA_XSP16, literal(-8)))
        CFI (cfiCond173) V14 load(1, XDATA, add(CFA_XSP16, literal(-7)))
        CFI (cfiCond173) R7 load(1, XDATA, add(CFA_XSP16, literal(-6)))
        CFI (cfiCond173) ?RET_LOW load(1, XDATA, add(CFA_XSP16, literal(-5)))
        CFI (cfiCond173) ?RET_HIGH load(1, XDATA, add(CFA_XSP16, literal(-4)))
        CFI (cfiCond173) ?BRET_EXT load(1, XDATA, add(CFA_XSP16, literal(-3)))
        CFI (cfiCond173) DPL0 load(1, XDATA, add(CFA_XSP16, literal(-2)))
        CFI (cfiCond173) DPH0 load(1, XDATA, add(CFA_XSP16, literal(-1)))
        CFI (cfiCond173) CFA_SP SP+0
        CFI (cfiCond173) CFA_XSP16 add(XSP16, 23)
        CFI Block cfiCond174 Using cfiCommon0
        CFI (cfiCond174) NoFunction
        CFI (cfiCond174) Conditional ??CrossCallReturnLabel_127, ??CrossCallReturnLabel_125, ??CrossCallReturnLabel_120
        CFI (cfiCond174) R6 load(1, XDATA, add(CFA_XSP16, literal(-23)))
        CFI (cfiCond174) VB load(1, XDATA, add(CFA_XSP16, literal(-22)))
        CFI (cfiCond174) V0 load(1, XDATA, add(CFA_XSP16, literal(-21)))
        CFI (cfiCond174) V1 load(1, XDATA, add(CFA_XSP16, literal(-20)))
        CFI (cfiCond174) V2 load(1, XDATA, add(CFA_XSP16, literal(-19)))
        CFI (cfiCond174) V3 load(1, XDATA, add(CFA_XSP16, literal(-18)))
        CFI (cfiCond174) V4 load(1, XDATA, add(CFA_XSP16, literal(-17)))
        CFI (cfiCond174) V5 load(1, XDATA, add(CFA_XSP16, literal(-16)))
        CFI (cfiCond174) V6 load(1, XDATA, add(CFA_XSP16, literal(-15)))
        CFI (cfiCond174) V7 load(1, XDATA, add(CFA_XSP16, literal(-14)))
        CFI (cfiCond174) V8 load(1, XDATA, add(CFA_XSP16, literal(-13)))
        CFI (cfiCond174) V9 load(1, XDATA, add(CFA_XSP16, literal(-12)))
        CFI (cfiCond174) V10 load(1, XDATA, add(CFA_XSP16, literal(-11)))
        CFI (cfiCond174) V11 load(1, XDATA, add(CFA_XSP16, literal(-10)))
        CFI (cfiCond174) V12 load(1, XDATA, add(CFA_XSP16, literal(-9)))
        CFI (cfiCond174) V13 load(1, XDATA, add(CFA_XSP16, literal(-8)))
        CFI (cfiCond174) V14 load(1, XDATA, add(CFA_XSP16, literal(-7)))
        CFI (cfiCond174) R7 load(1, XDATA, add(CFA_XSP16, literal(-6)))
        CFI (cfiCond174) ?RET_LOW load(1, XDATA, add(CFA_XSP16, literal(-5)))
        CFI (cfiCond174) ?RET_HIGH load(1, XDATA, add(CFA_XSP16, literal(-4)))
        CFI (cfiCond174) ?BRET_EXT load(1, XDATA, add(CFA_XSP16, literal(-3)))
        CFI (cfiCond174) DPL0 load(1, XDATA, add(CFA_XSP16, literal(-2)))
        CFI (cfiCond174) DPH0 load(1, XDATA, add(CFA_XSP16, literal(-1)))
        CFI (cfiCond174) CFA_SP SP+0
        CFI (cfiCond174) CFA_XSP16 add(XSP16, 23)
        CFI Block cfiCond175 Using cfiCommon0
        CFI (cfiCond175) NoFunction
        CFI (cfiCond175) Conditional ??CrossCallReturnLabel_127, ??CrossCallReturnLabel_125, ??CrossCallReturnLabel_121
        CFI (cfiCond175) R6 load(1, XDATA, add(CFA_XSP16, literal(-23)))
        CFI (cfiCond175) VB load(1, XDATA, add(CFA_XSP16, literal(-22)))
        CFI (cfiCond175) V0 load(1, XDATA, add(CFA_XSP16, literal(-21)))
        CFI (cfiCond175) V1 load(1, XDATA, add(CFA_XSP16, literal(-20)))
        CFI (cfiCond175) V2 load(1, XDATA, add(CFA_XSP16, literal(-19)))
        CFI (cfiCond175) V3 load(1, XDATA, add(CFA_XSP16, literal(-18)))
        CFI (cfiCond175) V4 load(1, XDATA, add(CFA_XSP16, literal(-17)))
        CFI (cfiCond175) V5 load(1, XDATA, add(CFA_XSP16, literal(-16)))
        CFI (cfiCond175) V6 load(1, XDATA, add(CFA_XSP16, literal(-15)))
        CFI (cfiCond175) V7 load(1, XDATA, add(CFA_XSP16, literal(-14)))
        CFI (cfiCond175) V8 load(1, XDATA, add(CFA_XSP16, literal(-13)))
        CFI (cfiCond175) V9 load(1, XDATA, add(CFA_XSP16, literal(-12)))
        CFI (cfiCond175) V10 load(1, XDATA, add(CFA_XSP16, literal(-11)))
        CFI (cfiCond175) V11 load(1, XDATA, add(CFA_XSP16, literal(-10)))
        CFI (cfiCond175) V12 load(1, XDATA, add(CFA_XSP16, literal(-9)))
        CFI (cfiCond175) V13 load(1, XDATA, add(CFA_XSP16, literal(-8)))
        CFI (cfiCond175) V14 load(1, XDATA, add(CFA_XSP16, literal(-7)))
        CFI (cfiCond175) R7 load(1, XDATA, add(CFA_XSP16, literal(-6)))
        CFI (cfiCond175) ?RET_LOW load(1, XDATA, add(CFA_XSP16, literal(-5)))
        CFI (cfiCond175) ?RET_HIGH load(1, XDATA, add(CFA_XSP16, literal(-4)))
        CFI (cfiCond175) ?BRET_EXT load(1, XDATA, add(CFA_XSP16, literal(-3)))
        CFI (cfiCond175) DPL0 load(1, XDATA, add(CFA_XSP16, literal(-2)))
        CFI (cfiCond175) DPH0 load(1, XDATA, add(CFA_XSP16, literal(-1)))
        CFI (cfiCond175) CFA_SP SP+0
        CFI (cfiCond175) CFA_XSP16 add(XSP16, 23)
        CFI Block cfiCond176 Using cfiCommon0
        CFI (cfiCond176) NoFunction
        CFI (cfiCond176) Conditional ??CrossCallReturnLabel_127, ??CrossCallReturnLabel_125, ??CrossCallReturnLabel_122
        CFI (cfiCond176) R6 load(1, XDATA, add(CFA_XSP16, literal(-23)))
        CFI (cfiCond176) VB load(1, XDATA, add(CFA_XSP16, literal(-22)))
        CFI (cfiCond176) V0 load(1, XDATA, add(CFA_XSP16, literal(-21)))
        CFI (cfiCond176) V1 load(1, XDATA, add(CFA_XSP16, literal(-20)))
        CFI (cfiCond176) V2 load(1, XDATA, add(CFA_XSP16, literal(-19)))
        CFI (cfiCond176) V3 load(1, XDATA, add(CFA_XSP16, literal(-18)))
        CFI (cfiCond176) V4 load(1, XDATA, add(CFA_XSP16, literal(-17)))
        CFI (cfiCond176) V5 load(1, XDATA, add(CFA_XSP16, literal(-16)))
        CFI (cfiCond176) V6 load(1, XDATA, add(CFA_XSP16, literal(-15)))
        CFI (cfiCond176) V7 load(1, XDATA, add(CFA_XSP16, literal(-14)))
        CFI (cfiCond176) V8 load(1, XDATA, add(CFA_XSP16, literal(-13)))
        CFI (cfiCond176) V9 load(1, XDATA, add(CFA_XSP16, literal(-12)))
        CFI (cfiCond176) V10 load(1, XDATA, add(CFA_XSP16, literal(-11)))
        CFI (cfiCond176) V11 load(1, XDATA, add(CFA_XSP16, literal(-10)))
        CFI (cfiCond176) V12 load(1, XDATA, add(CFA_XSP16, literal(-9)))
        CFI (cfiCond176) V13 load(1, XDATA, add(CFA_XSP16, literal(-8)))
        CFI (cfiCond176) V14 load(1, XDATA, add(CFA_XSP16, literal(-7)))
        CFI (cfiCond176) R7 load(1, XDATA, add(CFA_XSP16, literal(-6)))
        CFI (cfiCond176) ?RET_LOW load(1, XDATA, add(CFA_XSP16, literal(-5)))
        CFI (cfiCond176) ?RET_HIGH load(1, XDATA, add(CFA_XSP16, literal(-4)))
        CFI (cfiCond176) ?BRET_EXT load(1, XDATA, add(CFA_XSP16, literal(-3)))
        CFI (cfiCond176) DPL0 load(1, XDATA, add(CFA_XSP16, literal(-2)))
        CFI (cfiCond176) DPH0 load(1, XDATA, add(CFA_XSP16, literal(-1)))
        CFI (cfiCond176) CFA_SP SP+0
        CFI (cfiCond176) CFA_XSP16 add(XSP16, 23)
        CFI Block cfiPicker177 Using cfiCommon1
        CFI (cfiPicker177) NoFunction
        CFI (cfiPicker177) Picker
        MOVX    A,@DPTR
        MOV     DPL,?V0 + 2
        MOV     DPH,?V0 + 3
        MOVX    @DPTR,A
        RET
        CFI EndBlock cfiCond162
        CFI EndBlock cfiCond163
        CFI EndBlock cfiCond164
        CFI EndBlock cfiCond165
        CFI EndBlock cfiCond166
        CFI EndBlock cfiCond167
        CFI EndBlock cfiCond168
        CFI EndBlock cfiCond169
        CFI EndBlock cfiCond170
        CFI EndBlock cfiCond171
        CFI EndBlock cfiCond172
        CFI EndBlock cfiCond173
        CFI EndBlock cfiCond174
        CFI EndBlock cfiCond175
        CFI EndBlock cfiCond176
        CFI EndBlock cfiPicker177

        RSEG BANKED_CODE:CODE:NOROOT(0)
?Subroutine14:
        CFI Block cfiCond178 Using cfiCommon0
        CFI NoFunction
        CFI Conditional ??CrossCallReturnLabel_19
        CFI R6 load(1, XDATA, add(CFA_XSP16, literal(-23)))
        CFI VB load(1, XDATA, add(CFA_XSP16, literal(-22)))
        CFI V0 load(1, XDATA, add(CFA_XSP16, literal(-21)))
        CFI V1 load(1, XDATA, add(CFA_XSP16, literal(-20)))
        CFI V2 load(1, XDATA, add(CFA_XSP16, literal(-19)))
        CFI V3 load(1, XDATA, add(CFA_XSP16, literal(-18)))
        CFI V4 load(1, XDATA, add(CFA_XSP16, literal(-17)))
        CFI V5 load(1, XDATA, add(CFA_XSP16, literal(-16)))
        CFI V6 load(1, XDATA, add(CFA_XSP16, literal(-15)))
        CFI V7 load(1, XDATA, add(CFA_XSP16, literal(-14)))
        CFI V8 load(1, XDATA, add(CFA_XSP16, literal(-13)))
        CFI V9 load(1, XDATA, add(CFA_XSP16, literal(-12)))
        CFI V10 load(1, XDATA, add(CFA_XSP16, literal(-11)))
        CFI V11 load(1, XDATA, add(CFA_XSP16, literal(-10)))
        CFI V12 load(1, XDATA, add(CFA_XSP16, literal(-9)))
        CFI V13 load(1, XDATA, add(CFA_XSP16, literal(-8)))
        CFI V14 load(1, XDATA, add(CFA_XSP16, literal(-7)))
        CFI R7 load(1, XDATA, add(CFA_XSP16, literal(-6)))
        CFI ?RET_LOW load(1, XDATA, add(CFA_XSP16, literal(-5)))
        CFI ?RET_HIGH load(1, XDATA, add(CFA_XSP16, literal(-4)))
        CFI ?BRET_EXT load(1, XDATA, add(CFA_XSP16, literal(-3)))
        CFI DPL0 load(1, XDATA, add(CFA_XSP16, literal(-2)))
        CFI DPH0 load(1, XDATA, add(CFA_XSP16, literal(-1)))
        CFI CFA_SP SP+0
        CFI CFA_XSP16 add(XSP16, 23)
        CFI Block cfiCond179 Using cfiCommon0
        CFI (cfiCond179) NoFunction
        CFI (cfiCond179) Conditional ??CrossCallReturnLabel_20
        CFI (cfiCond179) R6 load(1, XDATA, add(CFA_XSP16, literal(-23)))
        CFI (cfiCond179) VB load(1, XDATA, add(CFA_XSP16, literal(-22)))
        CFI (cfiCond179) V0 load(1, XDATA, add(CFA_XSP16, literal(-21)))
        CFI (cfiCond179) V1 load(1, XDATA, add(CFA_XSP16, literal(-20)))
        CFI (cfiCond179) V2 load(1, XDATA, add(CFA_XSP16, literal(-19)))
        CFI (cfiCond179) V3 load(1, XDATA, add(CFA_XSP16, literal(-18)))
        CFI (cfiCond179) V4 load(1, XDATA, add(CFA_XSP16, literal(-17)))
        CFI (cfiCond179) V5 load(1, XDATA, add(CFA_XSP16, literal(-16)))
        CFI (cfiCond179) V6 load(1, XDATA, add(CFA_XSP16, literal(-15)))
        CFI (cfiCond179) V7 load(1, XDATA, add(CFA_XSP16, literal(-14)))
        CFI (cfiCond179) V8 load(1, XDATA, add(CFA_XSP16, literal(-13)))
        CFI (cfiCond179) V9 load(1, XDATA, add(CFA_XSP16, literal(-12)))
        CFI (cfiCond179) V10 load(1, XDATA, add(CFA_XSP16, literal(-11)))
        CFI (cfiCond179) V11 load(1, XDATA, add(CFA_XSP16, literal(-10)))
        CFI (cfiCond179) V12 load(1, XDATA, add(CFA_XSP16, literal(-9)))
        CFI (cfiCond179) V13 load(1, XDATA, add(CFA_XSP16, literal(-8)))
        CFI (cfiCond179) V14 load(1, XDATA, add(CFA_XSP16, literal(-7)))
        CFI (cfiCond179) R7 load(1, XDATA, add(CFA_XSP16, literal(-6)))
        CFI (cfiCond179) ?RET_LOW load(1, XDATA, add(CFA_XSP16, literal(-5)))
        CFI (cfiCond179) ?RET_HIGH load(1, XDATA, add(CFA_XSP16, literal(-4)))
        CFI (cfiCond179) ?BRET_EXT load(1, XDATA, add(CFA_XSP16, literal(-3)))
        CFI (cfiCond179) DPL0 load(1, XDATA, add(CFA_XSP16, literal(-2)))
        CFI (cfiCond179) DPH0 load(1, XDATA, add(CFA_XSP16, literal(-1)))
        CFI (cfiCond179) CFA_SP SP+0
        CFI (cfiCond179) CFA_XSP16 add(XSP16, 23)
        CFI Block cfiPicker180 Using cfiCommon1
        CFI (cfiPicker180) NoFunction
        CFI (cfiPicker180) Picker
        MOV     A,?V0 + 8
        ADD     A,#0x22
        LCALL   ?Subroutine43 & 0xFFFF
??CrossCallReturnLabel_110:
        MOVX    A,@DPTR
        MOV     ?V0 + 4,A
        INC     DPTR
        MOVX    A,@DPTR
        MOV     ?V0 + 5,A
        MOV     R0,#?V0 + 4
        RET
        CFI EndBlock cfiCond178
        CFI EndBlock cfiCond179
        CFI EndBlock cfiPicker180

        RSEG BANKED_CODE:CODE:NOROOT(0)
?Subroutine43:
        CFI Block cfiCond181 Using cfiCommon0
        CFI NoFunction
        CFI Conditional ??CrossCallReturnLabel_106
        CFI R6 load(1, XDATA, add(CFA_XSP16, literal(-23)))
        CFI VB load(1, XDATA, add(CFA_XSP16, literal(-22)))
        CFI V0 load(1, XDATA, add(CFA_XSP16, literal(-21)))
        CFI V1 load(1, XDATA, add(CFA_XSP16, literal(-20)))
        CFI V2 load(1, XDATA, add(CFA_XSP16, literal(-19)))
        CFI V3 load(1, XDATA, add(CFA_XSP16, literal(-18)))
        CFI V4 load(1, XDATA, add(CFA_XSP16, literal(-17)))
        CFI V5 load(1, XDATA, add(CFA_XSP16, literal(-16)))
        CFI V6 load(1, XDATA, add(CFA_XSP16, literal(-15)))
        CFI V7 load(1, XDATA, add(CFA_XSP16, literal(-14)))
        CFI V8 load(1, XDATA, add(CFA_XSP16, literal(-13)))
        CFI V9 load(1, XDATA, add(CFA_XSP16, literal(-12)))
        CFI V10 load(1, XDATA, add(CFA_XSP16, literal(-11)))
        CFI V11 load(1, XDATA, add(CFA_XSP16, literal(-10)))
        CFI V12 load(1, XDATA, add(CFA_XSP16, literal(-9)))
        CFI V13 load(1, XDATA, add(CFA_XSP16, literal(-8)))
        CFI V14 load(1, XDATA, add(CFA_XSP16, literal(-7)))
        CFI R7 load(1, XDATA, add(CFA_XSP16, literal(-6)))
        CFI ?RET_LOW load(1, XDATA, add(CFA_XSP16, literal(-5)))
        CFI ?RET_HIGH load(1, XDATA, add(CFA_XSP16, literal(-4)))
        CFI ?BRET_EXT load(1, XDATA, add(CFA_XSP16, literal(-3)))
        CFI DPL0 load(1, XDATA, add(CFA_XSP16, literal(-2)))
        CFI DPH0 load(1, XDATA, add(CFA_XSP16, literal(-1)))
        CFI CFA_SP SP+0
        CFI CFA_XSP16 add(XSP16, 23)
        CFI Block cfiCond182 Using cfiCommon0
        CFI (cfiCond182) NoFunction
        CFI (cfiCond182) Conditional ??CrossCallReturnLabel_107
        CFI (cfiCond182) R6 load(1, XDATA, add(CFA_XSP16, literal(-23)))
        CFI (cfiCond182) VB load(1, XDATA, add(CFA_XSP16, literal(-22)))
        CFI (cfiCond182) V0 load(1, XDATA, add(CFA_XSP16, literal(-21)))
        CFI (cfiCond182) V1 load(1, XDATA, add(CFA_XSP16, literal(-20)))
        CFI (cfiCond182) V2 load(1, XDATA, add(CFA_XSP16, literal(-19)))
        CFI (cfiCond182) V3 load(1, XDATA, add(CFA_XSP16, literal(-18)))
        CFI (cfiCond182) V4 load(1, XDATA, add(CFA_XSP16, literal(-17)))
        CFI (cfiCond182) V5 load(1, XDATA, add(CFA_XSP16, literal(-16)))
        CFI (cfiCond182) V6 load(1, XDATA, add(CFA_XSP16, literal(-15)))
        CFI (cfiCond182) V7 load(1, XDATA, add(CFA_XSP16, literal(-14)))
        CFI (cfiCond182) V8 load(1, XDATA, add(CFA_XSP16, literal(-13)))
        CFI (cfiCond182) V9 load(1, XDATA, add(CFA_XSP16, literal(-12)))
        CFI (cfiCond182) V10 load(1, XDATA, add(CFA_XSP16, literal(-11)))
        CFI (cfiCond182) V11 load(1, XDATA, add(CFA_XSP16, literal(-10)))
        CFI (cfiCond182) V12 load(1, XDATA, add(CFA_XSP16, literal(-9)))
        CFI (cfiCond182) V13 load(1, XDATA, add(CFA_XSP16, literal(-8)))
        CFI (cfiCond182) V14 load(1, XDATA, add(CFA_XSP16, literal(-7)))
        CFI (cfiCond182) R7 load(1, XDATA, add(CFA_XSP16, literal(-6)))
        CFI (cfiCond182) ?RET_LOW load(1, XDATA, add(CFA_XSP16, literal(-5)))
        CFI (cfiCond182) ?RET_HIGH load(1, XDATA, add(CFA_XSP16, literal(-4)))
        CFI (cfiCond182) ?BRET_EXT load(1, XDATA, add(CFA_XSP16, literal(-3)))
        CFI (cfiCond182) DPL0 load(1, XDATA, add(CFA_XSP16, literal(-2)))
        CFI (cfiCond182) DPH0 load(1, XDATA, add(CFA_XSP16, literal(-1)))
        CFI (cfiCond182) CFA_SP SP+0
        CFI (cfiCond182) CFA_XSP16 add(XSP16, 23)
        CFI Block cfiCond183 Using cfiCommon0
        CFI (cfiCond183) NoFunction
        CFI (cfiCond183) Conditional ??CrossCallReturnLabel_108
        CFI (cfiCond183) R6 load(1, XDATA, add(CFA_XSP16, literal(-23)))
        CFI (cfiCond183) VB load(1, XDATA, add(CFA_XSP16, literal(-22)))
        CFI (cfiCond183) V0 load(1, XDATA, add(CFA_XSP16, literal(-21)))
        CFI (cfiCond183) V1 load(1, XDATA, add(CFA_XSP16, literal(-20)))
        CFI (cfiCond183) V2 load(1, XDATA, add(CFA_XSP16, literal(-19)))
        CFI (cfiCond183) V3 load(1, XDATA, add(CFA_XSP16, literal(-18)))
        CFI (cfiCond183) V4 load(1, XDATA, add(CFA_XSP16, literal(-17)))
        CFI (cfiCond183) V5 load(1, XDATA, add(CFA_XSP16, literal(-16)))
        CFI (cfiCond183) V6 load(1, XDATA, add(CFA_XSP16, literal(-15)))
        CFI (cfiCond183) V7 load(1, XDATA, add(CFA_XSP16, literal(-14)))
        CFI (cfiCond183) V8 load(1, XDATA, add(CFA_XSP16, literal(-13)))
        CFI (cfiCond183) V9 load(1, XDATA, add(CFA_XSP16, literal(-12)))
        CFI (cfiCond183) V10 load(1, XDATA, add(CFA_XSP16, literal(-11)))
        CFI (cfiCond183) V11 load(1, XDATA, add(CFA_XSP16, literal(-10)))
        CFI (cfiCond183) V12 load(1, XDATA, add(CFA_XSP16, literal(-9)))
        CFI (cfiCond183) V13 load(1, XDATA, add(CFA_XSP16, literal(-8)))
        CFI (cfiCond183) V14 load(1, XDATA, add(CFA_XSP16, literal(-7)))
        CFI (cfiCond183) R7 load(1, XDATA, add(CFA_XSP16, literal(-6)))
        CFI (cfiCond183) ?RET_LOW load(1, XDATA, add(CFA_XSP16, literal(-5)))
        CFI (cfiCond183) ?RET_HIGH load(1, XDATA, add(CFA_XSP16, literal(-4)))
        CFI (cfiCond183) ?BRET_EXT load(1, XDATA, add(CFA_XSP16, literal(-3)))
        CFI (cfiCond183) DPL0 load(1, XDATA, add(CFA_XSP16, literal(-2)))
        CFI (cfiCond183) DPH0 load(1, XDATA, add(CFA_XSP16, literal(-1)))
        CFI (cfiCond183) CFA_SP SP+0
        CFI (cfiCond183) CFA_XSP16 add(XSP16, 23)
        CFI Block cfiCond184 Using cfiCommon0
        CFI (cfiCond184) NoFunction
        CFI (cfiCond184) Conditional ??CrossCallReturnLabel_110, ??CrossCallReturnLabel_19
        CFI (cfiCond184) R6 load(1, XDATA, add(CFA_XSP16, literal(-23)))
        CFI (cfiCond184) VB load(1, XDATA, add(CFA_XSP16, literal(-22)))
        CFI (cfiCond184) V0 load(1, XDATA, add(CFA_XSP16, literal(-21)))
        CFI (cfiCond184) V1 load(1, XDATA, add(CFA_XSP16, literal(-20)))
        CFI (cfiCond184) V2 load(1, XDATA, add(CFA_XSP16, literal(-19)))
        CFI (cfiCond184) V3 load(1, XDATA, add(CFA_XSP16, literal(-18)))
        CFI (cfiCond184) V4 load(1, XDATA, add(CFA_XSP16, literal(-17)))
        CFI (cfiCond184) V5 load(1, XDATA, add(CFA_XSP16, literal(-16)))
        CFI (cfiCond184) V6 load(1, XDATA, add(CFA_XSP16, literal(-15)))
        CFI (cfiCond184) V7 load(1, XDATA, add(CFA_XSP16, literal(-14)))
        CFI (cfiCond184) V8 load(1, XDATA, add(CFA_XSP16, literal(-13)))
        CFI (cfiCond184) V9 load(1, XDATA, add(CFA_XSP16, literal(-12)))
        CFI (cfiCond184) V10 load(1, XDATA, add(CFA_XSP16, literal(-11)))
        CFI (cfiCond184) V11 load(1, XDATA, add(CFA_XSP16, literal(-10)))
        CFI (cfiCond184) V12 load(1, XDATA, add(CFA_XSP16, literal(-9)))
        CFI (cfiCond184) V13 load(1, XDATA, add(CFA_XSP16, literal(-8)))
        CFI (cfiCond184) V14 load(1, XDATA, add(CFA_XSP16, literal(-7)))
        CFI (cfiCond184) R7 load(1, XDATA, add(CFA_XSP16, literal(-6)))
        CFI (cfiCond184) ?RET_LOW load(1, XDATA, add(CFA_XSP16, literal(-5)))
        CFI (cfiCond184) ?RET_HIGH load(1, XDATA, add(CFA_XSP16, literal(-4)))
        CFI (cfiCond184) ?BRET_EXT load(1, XDATA, add(CFA_XSP16, literal(-3)))
        CFI (cfiCond184) DPL0 load(1, XDATA, add(CFA_XSP16, literal(-2)))
        CFI (cfiCond184) DPH0 load(1, XDATA, add(CFA_XSP16, literal(-1)))
        CFI (cfiCond184) CFA_SP SP+0
        CFI (cfiCond184) CFA_XSP16 add(XSP16, 23)
        CFI Block cfiCond185 Using cfiCommon0
        CFI (cfiCond185) NoFunction
        CFI (cfiCond185) Conditional ??CrossCallReturnLabel_110, ??CrossCallReturnLabel_20
        CFI (cfiCond185) R6 load(1, XDATA, add(CFA_XSP16, literal(-23)))
        CFI (cfiCond185) VB load(1, XDATA, add(CFA_XSP16, literal(-22)))
        CFI (cfiCond185) V0 load(1, XDATA, add(CFA_XSP16, literal(-21)))
        CFI (cfiCond185) V1 load(1, XDATA, add(CFA_XSP16, literal(-20)))
        CFI (cfiCond185) V2 load(1, XDATA, add(CFA_XSP16, literal(-19)))
        CFI (cfiCond185) V3 load(1, XDATA, add(CFA_XSP16, literal(-18)))
        CFI (cfiCond185) V4 load(1, XDATA, add(CFA_XSP16, literal(-17)))
        CFI (cfiCond185) V5 load(1, XDATA, add(CFA_XSP16, literal(-16)))
        CFI (cfiCond185) V6 load(1, XDATA, add(CFA_XSP16, literal(-15)))
        CFI (cfiCond185) V7 load(1, XDATA, add(CFA_XSP16, literal(-14)))
        CFI (cfiCond185) V8 load(1, XDATA, add(CFA_XSP16, literal(-13)))
        CFI (cfiCond185) V9 load(1, XDATA, add(CFA_XSP16, literal(-12)))
        CFI (cfiCond185) V10 load(1, XDATA, add(CFA_XSP16, literal(-11)))
        CFI (cfiCond185) V11 load(1, XDATA, add(CFA_XSP16, literal(-10)))
        CFI (cfiCond185) V12 load(1, XDATA, add(CFA_XSP16, literal(-9)))
        CFI (cfiCond185) V13 load(1, XDATA, add(CFA_XSP16, literal(-8)))
        CFI (cfiCond185) V14 load(1, XDATA, add(CFA_XSP16, literal(-7)))
        CFI (cfiCond185) R7 load(1, XDATA, add(CFA_XSP16, literal(-6)))
        CFI (cfiCond185) ?RET_LOW load(1, XDATA, add(CFA_XSP16, literal(-5)))
        CFI (cfiCond185) ?RET_HIGH load(1, XDATA, add(CFA_XSP16, literal(-4)))
        CFI (cfiCond185) ?BRET_EXT load(1, XDATA, add(CFA_XSP16, literal(-3)))
        CFI (cfiCond185) DPL0 load(1, XDATA, add(CFA_XSP16, literal(-2)))
        CFI (cfiCond185) DPH0 load(1, XDATA, add(CFA_XSP16, literal(-1)))
        CFI (cfiCond185) CFA_SP SP+0
        CFI (cfiCond185) CFA_XSP16 add(XSP16, 23)
        CFI Block cfiCond186 Using cfiCommon0
        CFI (cfiCond186) NoFunction
        CFI (cfiCond186) Conditional ??CrossCallReturnLabel_109, ??CrossCallReturnLabel_115
        CFI (cfiCond186) R6 load(1, XDATA, add(CFA_XSP16, literal(-23)))
        CFI (cfiCond186) VB load(1, XDATA, add(CFA_XSP16, literal(-22)))
        CFI (cfiCond186) V0 load(1, XDATA, add(CFA_XSP16, literal(-21)))
        CFI (cfiCond186) V1 load(1, XDATA, add(CFA_XSP16, literal(-20)))
        CFI (cfiCond186) V2 load(1, XDATA, add(CFA_XSP16, literal(-19)))
        CFI (cfiCond186) V3 load(1, XDATA, add(CFA_XSP16, literal(-18)))
        CFI (cfiCond186) V4 load(1, XDATA, add(CFA_XSP16, literal(-17)))
        CFI (cfiCond186) V5 load(1, XDATA, add(CFA_XSP16, literal(-16)))
        CFI (cfiCond186) V6 load(1, XDATA, add(CFA_XSP16, literal(-15)))
        CFI (cfiCond186) V7 load(1, XDATA, add(CFA_XSP16, literal(-14)))
        CFI (cfiCond186) V8 load(1, XDATA, add(CFA_XSP16, literal(-13)))
        CFI (cfiCond186) V9 load(1, XDATA, add(CFA_XSP16, literal(-12)))
        CFI (cfiCond186) V10 load(1, XDATA, add(CFA_XSP16, literal(-11)))
        CFI (cfiCond186) V11 load(1, XDATA, add(CFA_XSP16, literal(-10)))
        CFI (cfiCond186) V12 load(1, XDATA, add(CFA_XSP16, literal(-9)))
        CFI (cfiCond186) V13 load(1, XDATA, add(CFA_XSP16, literal(-8)))
        CFI (cfiCond186) V14 load(1, XDATA, add(CFA_XSP16, literal(-7)))
        CFI (cfiCond186) R7 load(1, XDATA, add(CFA_XSP16, literal(-6)))
        CFI (cfiCond186) ?RET_LOW load(1, XDATA, add(CFA_XSP16, literal(-5)))
        CFI (cfiCond186) ?RET_HIGH load(1, XDATA, add(CFA_XSP16, literal(-4)))
        CFI (cfiCond186) ?BRET_EXT load(1, XDATA, add(CFA_XSP16, literal(-3)))
        CFI (cfiCond186) DPL0 load(1, XDATA, add(CFA_XSP16, literal(-2)))
        CFI (cfiCond186) DPH0 load(1, XDATA, add(CFA_XSP16, literal(-1)))
        CFI (cfiCond186) CFA_SP SP+0
        CFI (cfiCond186) CFA_XSP16 add(XSP16, 23)
        CFI Block cfiCond187 Using cfiCommon0
        CFI (cfiCond187) NoFunction
        CFI (cfiCond187) Conditional ??CrossCallReturnLabel_109, ??CrossCallReturnLabel_116
        CFI (cfiCond187) R6 load(1, XDATA, add(CFA_XSP16, literal(-23)))
        CFI (cfiCond187) VB load(1, XDATA, add(CFA_XSP16, literal(-22)))
        CFI (cfiCond187) V0 load(1, XDATA, add(CFA_XSP16, literal(-21)))
        CFI (cfiCond187) V1 load(1, XDATA, add(CFA_XSP16, literal(-20)))
        CFI (cfiCond187) V2 load(1, XDATA, add(CFA_XSP16, literal(-19)))
        CFI (cfiCond187) V3 load(1, XDATA, add(CFA_XSP16, literal(-18)))
        CFI (cfiCond187) V4 load(1, XDATA, add(CFA_XSP16, literal(-17)))
        CFI (cfiCond187) V5 load(1, XDATA, add(CFA_XSP16, literal(-16)))
        CFI (cfiCond187) V6 load(1, XDATA, add(CFA_XSP16, literal(-15)))
        CFI (cfiCond187) V7 load(1, XDATA, add(CFA_XSP16, literal(-14)))
        CFI (cfiCond187) V8 load(1, XDATA, add(CFA_XSP16, literal(-13)))
        CFI (cfiCond187) V9 load(1, XDATA, add(CFA_XSP16, literal(-12)))
        CFI (cfiCond187) V10 load(1, XDATA, add(CFA_XSP16, literal(-11)))
        CFI (cfiCond187) V11 load(1, XDATA, add(CFA_XSP16, literal(-10)))
        CFI (cfiCond187) V12 load(1, XDATA, add(CFA_XSP16, literal(-9)))
        CFI (cfiCond187) V13 load(1, XDATA, add(CFA_XSP16, literal(-8)))
        CFI (cfiCond187) V14 load(1, XDATA, add(CFA_XSP16, literal(-7)))
        CFI (cfiCond187) R7 load(1, XDATA, add(CFA_XSP16, literal(-6)))
        CFI (cfiCond187) ?RET_LOW load(1, XDATA, add(CFA_XSP16, literal(-5)))
        CFI (cfiCond187) ?RET_HIGH load(1, XDATA, add(CFA_XSP16, literal(-4)))
        CFI (cfiCond187) ?BRET_EXT load(1, XDATA, add(CFA_XSP16, literal(-3)))
        CFI (cfiCond187) DPL0 load(1, XDATA, add(CFA_XSP16, literal(-2)))
        CFI (cfiCond187) DPH0 load(1, XDATA, add(CFA_XSP16, literal(-1)))
        CFI (cfiCond187) CFA_SP SP+0
        CFI (cfiCond187) CFA_XSP16 add(XSP16, 23)
        CFI Block cfiCond188 Using cfiCommon0
        CFI (cfiCond188) NoFunction
        CFI (cfiCond188) Conditional ??CrossCallReturnLabel_109, ??CrossCallReturnLabel_117
        CFI (cfiCond188) R6 load(1, XDATA, add(CFA_XSP16, literal(-23)))
        CFI (cfiCond188) VB load(1, XDATA, add(CFA_XSP16, literal(-22)))
        CFI (cfiCond188) V0 load(1, XDATA, add(CFA_XSP16, literal(-21)))
        CFI (cfiCond188) V1 load(1, XDATA, add(CFA_XSP16, literal(-20)))
        CFI (cfiCond188) V2 load(1, XDATA, add(CFA_XSP16, literal(-19)))
        CFI (cfiCond188) V3 load(1, XDATA, add(CFA_XSP16, literal(-18)))
        CFI (cfiCond188) V4 load(1, XDATA, add(CFA_XSP16, literal(-17)))
        CFI (cfiCond188) V5 load(1, XDATA, add(CFA_XSP16, literal(-16)))
        CFI (cfiCond188) V6 load(1, XDATA, add(CFA_XSP16, literal(-15)))
        CFI (cfiCond188) V7 load(1, XDATA, add(CFA_XSP16, literal(-14)))
        CFI (cfiCond188) V8 load(1, XDATA, add(CFA_XSP16, literal(-13)))
        CFI (cfiCond188) V9 load(1, XDATA, add(CFA_XSP16, literal(-12)))
        CFI (cfiCond188) V10 load(1, XDATA, add(CFA_XSP16, literal(-11)))
        CFI (cfiCond188) V11 load(1, XDATA, add(CFA_XSP16, literal(-10)))
        CFI (cfiCond188) V12 load(1, XDATA, add(CFA_XSP16, literal(-9)))
        CFI (cfiCond188) V13 load(1, XDATA, add(CFA_XSP16, literal(-8)))
        CFI (cfiCond188) V14 load(1, XDATA, add(CFA_XSP16, literal(-7)))
        CFI (cfiCond188) R7 load(1, XDATA, add(CFA_XSP16, literal(-6)))
        CFI (cfiCond188) ?RET_LOW load(1, XDATA, add(CFA_XSP16, literal(-5)))
        CFI (cfiCond188) ?RET_HIGH load(1, XDATA, add(CFA_XSP16, literal(-4)))
        CFI (cfiCond188) ?BRET_EXT load(1, XDATA, add(CFA_XSP16, literal(-3)))
        CFI (cfiCond188) DPL0 load(1, XDATA, add(CFA_XSP16, literal(-2)))
        CFI (cfiCond188) DPH0 load(1, XDATA, add(CFA_XSP16, literal(-1)))
        CFI (cfiCond188) CFA_SP SP+0
        CFI (cfiCond188) CFA_XSP16 add(XSP16, 23)
        CFI Block cfiCond189 Using cfiCommon0
        CFI (cfiCond189) NoFunction
        CFI (cfiCond189) Conditional ??CrossCallReturnLabel_109, ??CrossCallReturnLabel_118
        CFI (cfiCond189) R6 load(1, XDATA, add(CFA_XSP16, literal(-23)))
        CFI (cfiCond189) VB load(1, XDATA, add(CFA_XSP16, literal(-22)))
        CFI (cfiCond189) V0 load(1, XDATA, add(CFA_XSP16, literal(-21)))
        CFI (cfiCond189) V1 load(1, XDATA, add(CFA_XSP16, literal(-20)))
        CFI (cfiCond189) V2 load(1, XDATA, add(CFA_XSP16, literal(-19)))
        CFI (cfiCond189) V3 load(1, XDATA, add(CFA_XSP16, literal(-18)))
        CFI (cfiCond189) V4 load(1, XDATA, add(CFA_XSP16, literal(-17)))
        CFI (cfiCond189) V5 load(1, XDATA, add(CFA_XSP16, literal(-16)))
        CFI (cfiCond189) V6 load(1, XDATA, add(CFA_XSP16, literal(-15)))
        CFI (cfiCond189) V7 load(1, XDATA, add(CFA_XSP16, literal(-14)))
        CFI (cfiCond189) V8 load(1, XDATA, add(CFA_XSP16, literal(-13)))
        CFI (cfiCond189) V9 load(1, XDATA, add(CFA_XSP16, literal(-12)))
        CFI (cfiCond189) V10 load(1, XDATA, add(CFA_XSP16, literal(-11)))
        CFI (cfiCond189) V11 load(1, XDATA, add(CFA_XSP16, literal(-10)))
        CFI (cfiCond189) V12 load(1, XDATA, add(CFA_XSP16, literal(-9)))
        CFI (cfiCond189) V13 load(1, XDATA, add(CFA_XSP16, literal(-8)))
        CFI (cfiCond189) V14 load(1, XDATA, add(CFA_XSP16, literal(-7)))
        CFI (cfiCond189) R7 load(1, XDATA, add(CFA_XSP16, literal(-6)))
        CFI (cfiCond189) ?RET_LOW load(1, XDATA, add(CFA_XSP16, literal(-5)))
        CFI (cfiCond189) ?RET_HIGH load(1, XDATA, add(CFA_XSP16, literal(-4)))
        CFI (cfiCond189) ?BRET_EXT load(1, XDATA, add(CFA_XSP16, literal(-3)))
        CFI (cfiCond189) DPL0 load(1, XDATA, add(CFA_XSP16, literal(-2)))
        CFI (cfiCond189) DPH0 load(1, XDATA, add(CFA_XSP16, literal(-1)))
        CFI (cfiCond189) CFA_SP SP+0
        CFI (cfiCond189) CFA_XSP16 add(XSP16, 23)
        CFI Block cfiCond190 Using cfiCommon0
        CFI (cfiCond190) NoFunction
        CFI (cfiCond190) Conditional ??CrossCallReturnLabel_109, ??CrossCallReturnLabel_119
        CFI (cfiCond190) R6 load(1, XDATA, add(CFA_XSP16, literal(-23)))
        CFI (cfiCond190) VB load(1, XDATA, add(CFA_XSP16, literal(-22)))
        CFI (cfiCond190) V0 load(1, XDATA, add(CFA_XSP16, literal(-21)))
        CFI (cfiCond190) V1 load(1, XDATA, add(CFA_XSP16, literal(-20)))
        CFI (cfiCond190) V2 load(1, XDATA, add(CFA_XSP16, literal(-19)))
        CFI (cfiCond190) V3 load(1, XDATA, add(CFA_XSP16, literal(-18)))
        CFI (cfiCond190) V4 load(1, XDATA, add(CFA_XSP16, literal(-17)))
        CFI (cfiCond190) V5 load(1, XDATA, add(CFA_XSP16, literal(-16)))
        CFI (cfiCond190) V6 load(1, XDATA, add(CFA_XSP16, literal(-15)))
        CFI (cfiCond190) V7 load(1, XDATA, add(CFA_XSP16, literal(-14)))
        CFI (cfiCond190) V8 load(1, XDATA, add(CFA_XSP16, literal(-13)))
        CFI (cfiCond190) V9 load(1, XDATA, add(CFA_XSP16, literal(-12)))
        CFI (cfiCond190) V10 load(1, XDATA, add(CFA_XSP16, literal(-11)))
        CFI (cfiCond190) V11 load(1, XDATA, add(CFA_XSP16, literal(-10)))
        CFI (cfiCond190) V12 load(1, XDATA, add(CFA_XSP16, literal(-9)))
        CFI (cfiCond190) V13 load(1, XDATA, add(CFA_XSP16, literal(-8)))
        CFI (cfiCond190) V14 load(1, XDATA, add(CFA_XSP16, literal(-7)))
        CFI (cfiCond190) R7 load(1, XDATA, add(CFA_XSP16, literal(-6)))
        CFI (cfiCond190) ?RET_LOW load(1, XDATA, add(CFA_XSP16, literal(-5)))
        CFI (cfiCond190) ?RET_HIGH load(1, XDATA, add(CFA_XSP16, literal(-4)))
        CFI (cfiCond190) ?BRET_EXT load(1, XDATA, add(CFA_XSP16, literal(-3)))
        CFI (cfiCond190) DPL0 load(1, XDATA, add(CFA_XSP16, literal(-2)))
        CFI (cfiCond190) DPH0 load(1, XDATA, add(CFA_XSP16, literal(-1)))
        CFI (cfiCond190) CFA_SP SP+0
        CFI (cfiCond190) CFA_XSP16 add(XSP16, 23)
        CFI Block cfiPicker191 Using cfiCommon1
        CFI (cfiPicker191) NoFunction
        CFI (cfiPicker191) Picker
        MOV     DPL,A
        MOV     A,?V0 + 9
        CFI EndBlock cfiCond181
        CFI EndBlock cfiCond182
        CFI EndBlock cfiCond183
        CFI EndBlock cfiCond184
        CFI EndBlock cfiCond185
        CFI EndBlock cfiCond186
        CFI EndBlock cfiCond187
        CFI EndBlock cfiCond188
        CFI EndBlock cfiCond189
        CFI EndBlock cfiCond190
        CFI EndBlock cfiPicker191
        REQUIRE ??Subroutine55_0
        ; // Fall through to label ??Subroutine55_0

        RSEG BANKED_CODE:CODE:NOROOT(0)
??Subroutine55_0:
        CFI Block cfiCond192 Using cfiCommon0
        CFI NoFunction
        CFI Conditional ??CrossCallReturnLabel_111, ??CrossCallReturnLabel_74
        CFI R6 load(1, XDATA, add(CFA_XSP16, literal(-9)))
        CFI VB load(1, XDATA, add(CFA_XSP16, literal(-8)))
        CFI V0 load(1, XDATA, add(CFA_XSP16, literal(-7)))
        CFI R7 load(1, XDATA, add(CFA_XSP16, literal(-6)))
        CFI ?RET_LOW load(1, XDATA, add(CFA_XSP16, literal(-5)))
        CFI ?RET_HIGH load(1, XDATA, add(CFA_XSP16, literal(-4)))
        CFI ?BRET_EXT load(1, XDATA, add(CFA_XSP16, literal(-3)))
        CFI DPL0 load(1, XDATA, add(CFA_XSP16, literal(-2)))
        CFI DPH0 load(1, XDATA, add(CFA_XSP16, literal(-1)))
        CFI CFA_SP SP+0
        CFI CFA_XSP16 add(XSP16, 9)
        CFI Block cfiCond193 Using cfiCommon0
        CFI (cfiCond193) NoFunction
        CFI (cfiCond193) Conditional ??CrossCallReturnLabel_111, ??CrossCallReturnLabel_75
        CFI (cfiCond193) R6 load(1, XDATA, add(CFA_XSP16, literal(-23)))
        CFI (cfiCond193) VB load(1, XDATA, add(CFA_XSP16, literal(-22)))
        CFI (cfiCond193) V0 load(1, XDATA, add(CFA_XSP16, literal(-21)))
        CFI (cfiCond193) V1 load(1, XDATA, add(CFA_XSP16, literal(-20)))
        CFI (cfiCond193) V2 load(1, XDATA, add(CFA_XSP16, literal(-19)))
        CFI (cfiCond193) V3 load(1, XDATA, add(CFA_XSP16, literal(-18)))
        CFI (cfiCond193) V4 load(1, XDATA, add(CFA_XSP16, literal(-17)))
        CFI (cfiCond193) V5 load(1, XDATA, add(CFA_XSP16, literal(-16)))
        CFI (cfiCond193) V6 load(1, XDATA, add(CFA_XSP16, literal(-15)))
        CFI (cfiCond193) V7 load(1, XDATA, add(CFA_XSP16, literal(-14)))
        CFI (cfiCond193) V8 load(1, XDATA, add(CFA_XSP16, literal(-13)))
        CFI (cfiCond193) V9 load(1, XDATA, add(CFA_XSP16, literal(-12)))
        CFI (cfiCond193) V10 load(1, XDATA, add(CFA_XSP16, literal(-11)))
        CFI (cfiCond193) V11 load(1, XDATA, add(CFA_XSP16, literal(-10)))
        CFI (cfiCond193) V12 load(1, XDATA, add(CFA_XSP16, literal(-9)))
        CFI (cfiCond193) V13 load(1, XDATA, add(CFA_XSP16, literal(-8)))
        CFI (cfiCond193) V14 load(1, XDATA, add(CFA_XSP16, literal(-7)))
        CFI (cfiCond193) R7 load(1, XDATA, add(CFA_XSP16, literal(-6)))
        CFI (cfiCond193) ?RET_LOW load(1, XDATA, add(CFA_XSP16, literal(-5)))
        CFI (cfiCond193) ?RET_HIGH load(1, XDATA, add(CFA_XSP16, literal(-4)))
        CFI (cfiCond193) ?BRET_EXT load(1, XDATA, add(CFA_XSP16, literal(-3)))
        CFI (cfiCond193) DPL0 load(1, XDATA, add(CFA_XSP16, literal(-2)))
        CFI (cfiCond193) DPH0 load(1, XDATA, add(CFA_XSP16, literal(-1)))
        CFI (cfiCond193) CFA_SP SP+0
        CFI (cfiCond193) CFA_XSP16 add(XSP16, 23)
        CFI Block cfiCond194 Using cfiCommon0
        CFI (cfiCond194) NoFunction
        CFI (cfiCond194) Conditional ??CrossCallReturnLabel_111, ??CrossCallReturnLabel_76
        CFI (cfiCond194) R6 load(1, XDATA, add(CFA_XSP16, literal(-23)))
        CFI (cfiCond194) VB load(1, XDATA, add(CFA_XSP16, literal(-22)))
        CFI (cfiCond194) V0 load(1, XDATA, add(CFA_XSP16, literal(-21)))
        CFI (cfiCond194) V1 load(1, XDATA, add(CFA_XSP16, literal(-20)))
        CFI (cfiCond194) V2 load(1, XDATA, add(CFA_XSP16, literal(-19)))
        CFI (cfiCond194) V3 load(1, XDATA, add(CFA_XSP16, literal(-18)))
        CFI (cfiCond194) V4 load(1, XDATA, add(CFA_XSP16, literal(-17)))
        CFI (cfiCond194) V5 load(1, XDATA, add(CFA_XSP16, literal(-16)))
        CFI (cfiCond194) V6 load(1, XDATA, add(CFA_XSP16, literal(-15)))
        CFI (cfiCond194) V7 load(1, XDATA, add(CFA_XSP16, literal(-14)))
        CFI (cfiCond194) V8 load(1, XDATA, add(CFA_XSP16, literal(-13)))
        CFI (cfiCond194) V9 load(1, XDATA, add(CFA_XSP16, literal(-12)))
        CFI (cfiCond194) V10 load(1, XDATA, add(CFA_XSP16, literal(-11)))
        CFI (cfiCond194) V11 load(1, XDATA, add(CFA_XSP16, literal(-10)))
        CFI (cfiCond194) V12 load(1, XDATA, add(CFA_XSP16, literal(-9)))
        CFI (cfiCond194) V13 load(1, XDATA, add(CFA_XSP16, literal(-8)))
        CFI (cfiCond194) V14 load(1, XDATA, add(CFA_XSP16, literal(-7)))
        CFI (cfiCond194) R7 load(1, XDATA, add(CFA_XSP16, literal(-6)))
        CFI (cfiCond194) ?RET_LOW load(1, XDATA, add(CFA_XSP16, literal(-5)))
        CFI (cfiCond194) ?RET_HIGH load(1, XDATA, add(CFA_XSP16, literal(-4)))
        CFI (cfiCond194) ?BRET_EXT load(1, XDATA, add(CFA_XSP16, literal(-3)))
        CFI (cfiCond194) DPL0 load(1, XDATA, add(CFA_XSP16, literal(-2)))
        CFI (cfiCond194) DPH0 load(1, XDATA, add(CFA_XSP16, literal(-1)))
        CFI (cfiCond194) CFA_SP SP+0
        CFI (cfiCond194) CFA_XSP16 add(XSP16, 23)
        CFI Block cfiCond195 Using cfiCommon0
        CFI (cfiCond195) NoFunction
        CFI (cfiCond195) Conditional ??CrossCallReturnLabel_111, ??CrossCallReturnLabel_77
        CFI (cfiCond195) R6 load(1, XDATA, add(CFA_XSP16, literal(-23)))
        CFI (cfiCond195) VB load(1, XDATA, add(CFA_XSP16, literal(-22)))
        CFI (cfiCond195) V0 load(1, XDATA, add(CFA_XSP16, literal(-21)))
        CFI (cfiCond195) V1 load(1, XDATA, add(CFA_XSP16, literal(-20)))
        CFI (cfiCond195) V2 load(1, XDATA, add(CFA_XSP16, literal(-19)))
        CFI (cfiCond195) V3 load(1, XDATA, add(CFA_XSP16, literal(-18)))
        CFI (cfiCond195) V4 load(1, XDATA, add(CFA_XSP16, literal(-17)))
        CFI (cfiCond195) V5 load(1, XDATA, add(CFA_XSP16, literal(-16)))
        CFI (cfiCond195) V6 load(1, XDATA, add(CFA_XSP16, literal(-15)))
        CFI (cfiCond195) V7 load(1, XDATA, add(CFA_XSP16, literal(-14)))
        CFI (cfiCond195) V8 load(1, XDATA, add(CFA_XSP16, literal(-13)))
        CFI (cfiCond195) V9 load(1, XDATA, add(CFA_XSP16, literal(-12)))
        CFI (cfiCond195) V10 load(1, XDATA, add(CFA_XSP16, literal(-11)))
        CFI (cfiCond195) V11 load(1, XDATA, add(CFA_XSP16, literal(-10)))
        CFI (cfiCond195) V12 load(1, XDATA, add(CFA_XSP16, literal(-9)))
        CFI (cfiCond195) V13 load(1, XDATA, add(CFA_XSP16, literal(-8)))
        CFI (cfiCond195) V14 load(1, XDATA, add(CFA_XSP16, literal(-7)))
        CFI (cfiCond195) R7 load(1, XDATA, add(CFA_XSP16, literal(-6)))
        CFI (cfiCond195) ?RET_LOW load(1, XDATA, add(CFA_XSP16, literal(-5)))
        CFI (cfiCond195) ?RET_HIGH load(1, XDATA, add(CFA_XSP16, literal(-4)))
        CFI (cfiCond195) ?BRET_EXT load(1, XDATA, add(CFA_XSP16, literal(-3)))
        CFI (cfiCond195) DPL0 load(1, XDATA, add(CFA_XSP16, literal(-2)))
        CFI (cfiCond195) DPH0 load(1, XDATA, add(CFA_XSP16, literal(-1)))
        CFI (cfiCond195) CFA_SP SP+0
        CFI (cfiCond195) CFA_XSP16 add(XSP16, 23)
        CFI Block cfiCond196 Using cfiCommon0
        CFI (cfiCond196) NoFunction
        CFI (cfiCond196) Conditional ??CrossCallReturnLabel_111, ??CrossCallReturnLabel_73
        CFI (cfiCond196) R6 load(1, XDATA, add(CFA_XSP16, literal(-23)))
        CFI (cfiCond196) VB load(1, XDATA, add(CFA_XSP16, literal(-22)))
        CFI (cfiCond196) V0 load(1, XDATA, add(CFA_XSP16, literal(-21)))
        CFI (cfiCond196) V1 load(1, XDATA, add(CFA_XSP16, literal(-20)))
        CFI (cfiCond196) V2 load(1, XDATA, add(CFA_XSP16, literal(-19)))
        CFI (cfiCond196) V3 load(1, XDATA, add(CFA_XSP16, literal(-18)))
        CFI (cfiCond196) V4 load(1, XDATA, add(CFA_XSP16, literal(-17)))
        CFI (cfiCond196) V5 load(1, XDATA, add(CFA_XSP16, literal(-16)))
        CFI (cfiCond196) V6 load(1, XDATA, add(CFA_XSP16, literal(-15)))
        CFI (cfiCond196) V7 load(1, XDATA, add(CFA_XSP16, literal(-14)))
        CFI (cfiCond196) V8 load(1, XDATA, add(CFA_XSP16, literal(-13)))
        CFI (cfiCond196) V9 load(1, XDATA, add(CFA_XSP16, literal(-12)))
        CFI (cfiCond196) V10 load(1, XDATA, add(CFA_XSP16, literal(-11)))
        CFI (cfiCond196) V11 load(1, XDATA, add(CFA_XSP16, literal(-10)))
        CFI (cfiCond196) V12 load(1, XDATA, add(CFA_XSP16, literal(-9)))
        CFI (cfiCond196) V13 load(1, XDATA, add(CFA_XSP16, literal(-8)))
        CFI (cfiCond196) V14 load(1, XDATA, add(CFA_XSP16, literal(-7)))
        CFI (cfiCond196) R7 load(1, XDATA, add(CFA_XSP16, literal(-6)))
        CFI (cfiCond196) ?RET_LOW load(1, XDATA, add(CFA_XSP16, literal(-5)))
        CFI (cfiCond196) ?RET_HIGH load(1, XDATA, add(CFA_XSP16, literal(-4)))
        CFI (cfiCond196) ?BRET_EXT load(1, XDATA, add(CFA_XSP16, literal(-3)))
        CFI (cfiCond196) DPL0 load(1, XDATA, add(CFA_XSP16, literal(-2)))
        CFI (cfiCond196) DPH0 load(1, XDATA, add(CFA_XSP16, literal(-1)))
        CFI (cfiCond196) CFA_SP SP+0
        CFI (cfiCond196) CFA_XSP16 add(XSP16, 23)
        CFI Block cfiCond197 Using cfiCommon0
        CFI (cfiCond197) NoFunction
        CFI (cfiCond197) Conditional ??CrossCallReturnLabel_106
        CFI (cfiCond197) R6 load(1, XDATA, add(CFA_XSP16, literal(-23)))
        CFI (cfiCond197) VB load(1, XDATA, add(CFA_XSP16, literal(-22)))
        CFI (cfiCond197) V0 load(1, XDATA, add(CFA_XSP16, literal(-21)))
        CFI (cfiCond197) V1 load(1, XDATA, add(CFA_XSP16, literal(-20)))
        CFI (cfiCond197) V2 load(1, XDATA, add(CFA_XSP16, literal(-19)))
        CFI (cfiCond197) V3 load(1, XDATA, add(CFA_XSP16, literal(-18)))
        CFI (cfiCond197) V4 load(1, XDATA, add(CFA_XSP16, literal(-17)))
        CFI (cfiCond197) V5 load(1, XDATA, add(CFA_XSP16, literal(-16)))
        CFI (cfiCond197) V6 load(1, XDATA, add(CFA_XSP16, literal(-15)))
        CFI (cfiCond197) V7 load(1, XDATA, add(CFA_XSP16, literal(-14)))
        CFI (cfiCond197) V8 load(1, XDATA, add(CFA_XSP16, literal(-13)))
        CFI (cfiCond197) V9 load(1, XDATA, add(CFA_XSP16, literal(-12)))
        CFI (cfiCond197) V10 load(1, XDATA, add(CFA_XSP16, literal(-11)))
        CFI (cfiCond197) V11 load(1, XDATA, add(CFA_XSP16, literal(-10)))
        CFI (cfiCond197) V12 load(1, XDATA, add(CFA_XSP16, literal(-9)))
        CFI (cfiCond197) V13 load(1, XDATA, add(CFA_XSP16, literal(-8)))
        CFI (cfiCond197) V14 load(1, XDATA, add(CFA_XSP16, literal(-7)))
        CFI (cfiCond197) R7 load(1, XDATA, add(CFA_XSP16, literal(-6)))
        CFI (cfiCond197) ?RET_LOW load(1, XDATA, add(CFA_XSP16, literal(-5)))
        CFI (cfiCond197) ?RET_HIGH load(1, XDATA, add(CFA_XSP16, literal(-4)))
        CFI (cfiCond197) ?BRET_EXT load(1, XDATA, add(CFA_XSP16, literal(-3)))
        CFI (cfiCond197) DPL0 load(1, XDATA, add(CFA_XSP16, literal(-2)))
        CFI (cfiCond197) DPH0 load(1, XDATA, add(CFA_XSP16, literal(-1)))
        CFI (cfiCond197) CFA_SP SP+0
        CFI (cfiCond197) CFA_XSP16 add(XSP16, 23)
        CFI Block cfiCond198 Using cfiCommon0
        CFI (cfiCond198) NoFunction
        CFI (cfiCond198) Conditional ??CrossCallReturnLabel_107
        CFI (cfiCond198) R6 load(1, XDATA, add(CFA_XSP16, literal(-23)))
        CFI (cfiCond198) VB load(1, XDATA, add(CFA_XSP16, literal(-22)))
        CFI (cfiCond198) V0 load(1, XDATA, add(CFA_XSP16, literal(-21)))
        CFI (cfiCond198) V1 load(1, XDATA, add(CFA_XSP16, literal(-20)))
        CFI (cfiCond198) V2 load(1, XDATA, add(CFA_XSP16, literal(-19)))
        CFI (cfiCond198) V3 load(1, XDATA, add(CFA_XSP16, literal(-18)))
        CFI (cfiCond198) V4 load(1, XDATA, add(CFA_XSP16, literal(-17)))
        CFI (cfiCond198) V5 load(1, XDATA, add(CFA_XSP16, literal(-16)))
        CFI (cfiCond198) V6 load(1, XDATA, add(CFA_XSP16, literal(-15)))
        CFI (cfiCond198) V7 load(1, XDATA, add(CFA_XSP16, literal(-14)))
        CFI (cfiCond198) V8 load(1, XDATA, add(CFA_XSP16, literal(-13)))
        CFI (cfiCond198) V9 load(1, XDATA, add(CFA_XSP16, literal(-12)))
        CFI (cfiCond198) V10 load(1, XDATA, add(CFA_XSP16, literal(-11)))
        CFI (cfiCond198) V11 load(1, XDATA, add(CFA_XSP16, literal(-10)))
        CFI (cfiCond198) V12 load(1, XDATA, add(CFA_XSP16, literal(-9)))
        CFI (cfiCond198) V13 load(1, XDATA, add(CFA_XSP16, literal(-8)))
        CFI (cfiCond198) V14 load(1, XDATA, add(CFA_XSP16, literal(-7)))
        CFI (cfiCond198) R7 load(1, XDATA, add(CFA_XSP16, literal(-6)))
        CFI (cfiCond198) ?RET_LOW load(1, XDATA, add(CFA_XSP16, literal(-5)))
        CFI (cfiCond198) ?RET_HIGH load(1, XDATA, add(CFA_XSP16, literal(-4)))
        CFI (cfiCond198) ?BRET_EXT load(1, XDATA, add(CFA_XSP16, literal(-3)))
        CFI (cfiCond198) DPL0 load(1, XDATA, add(CFA_XSP16, literal(-2)))
        CFI (cfiCond198) DPH0 load(1, XDATA, add(CFA_XSP16, literal(-1)))
        CFI (cfiCond198) CFA_SP SP+0
        CFI (cfiCond198) CFA_XSP16 add(XSP16, 23)
        CFI Block cfiCond199 Using cfiCommon0
        CFI (cfiCond199) NoFunction
        CFI (cfiCond199) Conditional ??CrossCallReturnLabel_108
        CFI (cfiCond199) R6 load(1, XDATA, add(CFA_XSP16, literal(-23)))
        CFI (cfiCond199) VB load(1, XDATA, add(CFA_XSP16, literal(-22)))
        CFI (cfiCond199) V0 load(1, XDATA, add(CFA_XSP16, literal(-21)))
        CFI (cfiCond199) V1 load(1, XDATA, add(CFA_XSP16, literal(-20)))
        CFI (cfiCond199) V2 load(1, XDATA, add(CFA_XSP16, literal(-19)))
        CFI (cfiCond199) V3 load(1, XDATA, add(CFA_XSP16, literal(-18)))
        CFI (cfiCond199) V4 load(1, XDATA, add(CFA_XSP16, literal(-17)))
        CFI (cfiCond199) V5 load(1, XDATA, add(CFA_XSP16, literal(-16)))
        CFI (cfiCond199) V6 load(1, XDATA, add(CFA_XSP16, literal(-15)))
        CFI (cfiCond199) V7 load(1, XDATA, add(CFA_XSP16, literal(-14)))
        CFI (cfiCond199) V8 load(1, XDATA, add(CFA_XSP16, literal(-13)))
        CFI (cfiCond199) V9 load(1, XDATA, add(CFA_XSP16, literal(-12)))
        CFI (cfiCond199) V10 load(1, XDATA, add(CFA_XSP16, literal(-11)))
        CFI (cfiCond199) V11 load(1, XDATA, add(CFA_XSP16, literal(-10)))
        CFI (cfiCond199) V12 load(1, XDATA, add(CFA_XSP16, literal(-9)))
        CFI (cfiCond199) V13 load(1, XDATA, add(CFA_XSP16, literal(-8)))
        CFI (cfiCond199) V14 load(1, XDATA, add(CFA_XSP16, literal(-7)))
        CFI (cfiCond199) R7 load(1, XDATA, add(CFA_XSP16, literal(-6)))
        CFI (cfiCond199) ?RET_LOW load(1, XDATA, add(CFA_XSP16, literal(-5)))
        CFI (cfiCond199) ?RET_HIGH load(1, XDATA, add(CFA_XSP16, literal(-4)))
        CFI (cfiCond199) ?BRET_EXT load(1, XDATA, add(CFA_XSP16, literal(-3)))
        CFI (cfiCond199) DPL0 load(1, XDATA, add(CFA_XSP16, literal(-2)))
        CFI (cfiCond199) DPH0 load(1, XDATA, add(CFA_XSP16, literal(-1)))
        CFI (cfiCond199) CFA_SP SP+0
        CFI (cfiCond199) CFA_XSP16 add(XSP16, 23)
        CFI Block cfiCond200 Using cfiCommon0
        CFI (cfiCond200) NoFunction
        CFI (cfiCond200) Conditional ??CrossCallReturnLabel_110, ??CrossCallReturnLabel_19
        CFI (cfiCond200) R6 load(1, XDATA, add(CFA_XSP16, literal(-23)))
        CFI (cfiCond200) VB load(1, XDATA, add(CFA_XSP16, literal(-22)))
        CFI (cfiCond200) V0 load(1, XDATA, add(CFA_XSP16, literal(-21)))
        CFI (cfiCond200) V1 load(1, XDATA, add(CFA_XSP16, literal(-20)))
        CFI (cfiCond200) V2 load(1, XDATA, add(CFA_XSP16, literal(-19)))
        CFI (cfiCond200) V3 load(1, XDATA, add(CFA_XSP16, literal(-18)))
        CFI (cfiCond200) V4 load(1, XDATA, add(CFA_XSP16, literal(-17)))
        CFI (cfiCond200) V5 load(1, XDATA, add(CFA_XSP16, literal(-16)))
        CFI (cfiCond200) V6 load(1, XDATA, add(CFA_XSP16, literal(-15)))
        CFI (cfiCond200) V7 load(1, XDATA, add(CFA_XSP16, literal(-14)))
        CFI (cfiCond200) V8 load(1, XDATA, add(CFA_XSP16, literal(-13)))
        CFI (cfiCond200) V9 load(1, XDATA, add(CFA_XSP16, literal(-12)))
        CFI (cfiCond200) V10 load(1, XDATA, add(CFA_XSP16, literal(-11)))
        CFI (cfiCond200) V11 load(1, XDATA, add(CFA_XSP16, literal(-10)))
        CFI (cfiCond200) V12 load(1, XDATA, add(CFA_XSP16, literal(-9)))
        CFI (cfiCond200) V13 load(1, XDATA, add(CFA_XSP16, literal(-8)))
        CFI (cfiCond200) V14 load(1, XDATA, add(CFA_XSP16, literal(-7)))
        CFI (cfiCond200) R7 load(1, XDATA, add(CFA_XSP16, literal(-6)))
        CFI (cfiCond200) ?RET_LOW load(1, XDATA, add(CFA_XSP16, literal(-5)))
        CFI (cfiCond200) ?RET_HIGH load(1, XDATA, add(CFA_XSP16, literal(-4)))
        CFI (cfiCond200) ?BRET_EXT load(1, XDATA, add(CFA_XSP16, literal(-3)))
        CFI (cfiCond200) DPL0 load(1, XDATA, add(CFA_XSP16, literal(-2)))
        CFI (cfiCond200) DPH0 load(1, XDATA, add(CFA_XSP16, literal(-1)))
        CFI (cfiCond200) CFA_SP SP+0
        CFI (cfiCond200) CFA_XSP16 add(XSP16, 23)
        CFI Block cfiCond201 Using cfiCommon0
        CFI (cfiCond201) NoFunction
        CFI (cfiCond201) Conditional ??CrossCallReturnLabel_110, ??CrossCallReturnLabel_20
        CFI (cfiCond201) R6 load(1, XDATA, add(CFA_XSP16, literal(-23)))
        CFI (cfiCond201) VB load(1, XDATA, add(CFA_XSP16, literal(-22)))
        CFI (cfiCond201) V0 load(1, XDATA, add(CFA_XSP16, literal(-21)))
        CFI (cfiCond201) V1 load(1, XDATA, add(CFA_XSP16, literal(-20)))
        CFI (cfiCond201) V2 load(1, XDATA, add(CFA_XSP16, literal(-19)))
        CFI (cfiCond201) V3 load(1, XDATA, add(CFA_XSP16, literal(-18)))
        CFI (cfiCond201) V4 load(1, XDATA, add(CFA_XSP16, literal(-17)))
        CFI (cfiCond201) V5 load(1, XDATA, add(CFA_XSP16, literal(-16)))
        CFI (cfiCond201) V6 load(1, XDATA, add(CFA_XSP16, literal(-15)))
        CFI (cfiCond201) V7 load(1, XDATA, add(CFA_XSP16, literal(-14)))
        CFI (cfiCond201) V8 load(1, XDATA, add(CFA_XSP16, literal(-13)))
        CFI (cfiCond201) V9 load(1, XDATA, add(CFA_XSP16, literal(-12)))
        CFI (cfiCond201) V10 load(1, XDATA, add(CFA_XSP16, literal(-11)))
        CFI (cfiCond201) V11 load(1, XDATA, add(CFA_XSP16, literal(-10)))
        CFI (cfiCond201) V12 load(1, XDATA, add(CFA_XSP16, literal(-9)))
        CFI (cfiCond201) V13 load(1, XDATA, add(CFA_XSP16, literal(-8)))
        CFI (cfiCond201) V14 load(1, XDATA, add(CFA_XSP16, literal(-7)))
        CFI (cfiCond201) R7 load(1, XDATA, add(CFA_XSP16, literal(-6)))
        CFI (cfiCond201) ?RET_LOW load(1, XDATA, add(CFA_XSP16, literal(-5)))
        CFI (cfiCond201) ?RET_HIGH load(1, XDATA, add(CFA_XSP16, literal(-4)))
        CFI (cfiCond201) ?BRET_EXT load(1, XDATA, add(CFA_XSP16, literal(-3)))
        CFI (cfiCond201) DPL0 load(1, XDATA, add(CFA_XSP16, literal(-2)))
        CFI (cfiCond201) DPH0 load(1, XDATA, add(CFA_XSP16, literal(-1)))
        CFI (cfiCond201) CFA_SP SP+0
        CFI (cfiCond201) CFA_XSP16 add(XSP16, 23)
        CFI Block cfiCond202 Using cfiCommon0
        CFI (cfiCond202) NoFunction
        CFI (cfiCond202) Conditional ??CrossCallReturnLabel_109, ??CrossCallReturnLabel_115
        CFI (cfiCond202) R6 load(1, XDATA, add(CFA_XSP16, literal(-23)))
        CFI (cfiCond202) VB load(1, XDATA, add(CFA_XSP16, literal(-22)))
        CFI (cfiCond202) V0 load(1, XDATA, add(CFA_XSP16, literal(-21)))
        CFI (cfiCond202) V1 load(1, XDATA, add(CFA_XSP16, literal(-20)))
        CFI (cfiCond202) V2 load(1, XDATA, add(CFA_XSP16, literal(-19)))
        CFI (cfiCond202) V3 load(1, XDATA, add(CFA_XSP16, literal(-18)))
        CFI (cfiCond202) V4 load(1, XDATA, add(CFA_XSP16, literal(-17)))
        CFI (cfiCond202) V5 load(1, XDATA, add(CFA_XSP16, literal(-16)))
        CFI (cfiCond202) V6 load(1, XDATA, add(CFA_XSP16, literal(-15)))
        CFI (cfiCond202) V7 load(1, XDATA, add(CFA_XSP16, literal(-14)))
        CFI (cfiCond202) V8 load(1, XDATA, add(CFA_XSP16, literal(-13)))
        CFI (cfiCond202) V9 load(1, XDATA, add(CFA_XSP16, literal(-12)))
        CFI (cfiCond202) V10 load(1, XDATA, add(CFA_XSP16, literal(-11)))
        CFI (cfiCond202) V11 load(1, XDATA, add(CFA_XSP16, literal(-10)))
        CFI (cfiCond202) V12 load(1, XDATA, add(CFA_XSP16, literal(-9)))
        CFI (cfiCond202) V13 load(1, XDATA, add(CFA_XSP16, literal(-8)))
        CFI (cfiCond202) V14 load(1, XDATA, add(CFA_XSP16, literal(-7)))
        CFI (cfiCond202) R7 load(1, XDATA, add(CFA_XSP16, literal(-6)))
        CFI (cfiCond202) ?RET_LOW load(1, XDATA, add(CFA_XSP16, literal(-5)))
        CFI (cfiCond202) ?RET_HIGH load(1, XDATA, add(CFA_XSP16, literal(-4)))
        CFI (cfiCond202) ?BRET_EXT load(1, XDATA, add(CFA_XSP16, literal(-3)))
        CFI (cfiCond202) DPL0 load(1, XDATA, add(CFA_XSP16, literal(-2)))
        CFI (cfiCond202) DPH0 load(1, XDATA, add(CFA_XSP16, literal(-1)))
        CFI (cfiCond202) CFA_SP SP+0
        CFI (cfiCond202) CFA_XSP16 add(XSP16, 23)
        CFI Block cfiCond203 Using cfiCommon0
        CFI (cfiCond203) NoFunction
        CFI (cfiCond203) Conditional ??CrossCallReturnLabel_109, ??CrossCallReturnLabel_116
        CFI (cfiCond203) R6 load(1, XDATA, add(CFA_XSP16, literal(-23)))
        CFI (cfiCond203) VB load(1, XDATA, add(CFA_XSP16, literal(-22)))
        CFI (cfiCond203) V0 load(1, XDATA, add(CFA_XSP16, literal(-21)))
        CFI (cfiCond203) V1 load(1, XDATA, add(CFA_XSP16, literal(-20)))
        CFI (cfiCond203) V2 load(1, XDATA, add(CFA_XSP16, literal(-19)))
        CFI (cfiCond203) V3 load(1, XDATA, add(CFA_XSP16, literal(-18)))
        CFI (cfiCond203) V4 load(1, XDATA, add(CFA_XSP16, literal(-17)))
        CFI (cfiCond203) V5 load(1, XDATA, add(CFA_XSP16, literal(-16)))
        CFI (cfiCond203) V6 load(1, XDATA, add(CFA_XSP16, literal(-15)))
        CFI (cfiCond203) V7 load(1, XDATA, add(CFA_XSP16, literal(-14)))
        CFI (cfiCond203) V8 load(1, XDATA, add(CFA_XSP16, literal(-13)))
        CFI (cfiCond203) V9 load(1, XDATA, add(CFA_XSP16, literal(-12)))
        CFI (cfiCond203) V10 load(1, XDATA, add(CFA_XSP16, literal(-11)))
        CFI (cfiCond203) V11 load(1, XDATA, add(CFA_XSP16, literal(-10)))
        CFI (cfiCond203) V12 load(1, XDATA, add(CFA_XSP16, literal(-9)))
        CFI (cfiCond203) V13 load(1, XDATA, add(CFA_XSP16, literal(-8)))
        CFI (cfiCond203) V14 load(1, XDATA, add(CFA_XSP16, literal(-7)))
        CFI (cfiCond203) R7 load(1, XDATA, add(CFA_XSP16, literal(-6)))
        CFI (cfiCond203) ?RET_LOW load(1, XDATA, add(CFA_XSP16, literal(-5)))
        CFI (cfiCond203) ?RET_HIGH load(1, XDATA, add(CFA_XSP16, literal(-4)))
        CFI (cfiCond203) ?BRET_EXT load(1, XDATA, add(CFA_XSP16, literal(-3)))
        CFI (cfiCond203) DPL0 load(1, XDATA, add(CFA_XSP16, literal(-2)))
        CFI (cfiCond203) DPH0 load(1, XDATA, add(CFA_XSP16, literal(-1)))
        CFI (cfiCond203) CFA_SP SP+0
        CFI (cfiCond203) CFA_XSP16 add(XSP16, 23)
        CFI Block cfiCond204 Using cfiCommon0
        CFI (cfiCond204) NoFunction
        CFI (cfiCond204) Conditional ??CrossCallReturnLabel_109, ??CrossCallReturnLabel_117
        CFI (cfiCond204) R6 load(1, XDATA, add(CFA_XSP16, literal(-23)))
        CFI (cfiCond204) VB load(1, XDATA, add(CFA_XSP16, literal(-22)))
        CFI (cfiCond204) V0 load(1, XDATA, add(CFA_XSP16, literal(-21)))
        CFI (cfiCond204) V1 load(1, XDATA, add(CFA_XSP16, literal(-20)))
        CFI (cfiCond204) V2 load(1, XDATA, add(CFA_XSP16, literal(-19)))
        CFI (cfiCond204) V3 load(1, XDATA, add(CFA_XSP16, literal(-18)))
        CFI (cfiCond204) V4 load(1, XDATA, add(CFA_XSP16, literal(-17)))
        CFI (cfiCond204) V5 load(1, XDATA, add(CFA_XSP16, literal(-16)))
        CFI (cfiCond204) V6 load(1, XDATA, add(CFA_XSP16, literal(-15)))
        CFI (cfiCond204) V7 load(1, XDATA, add(CFA_XSP16, literal(-14)))
        CFI (cfiCond204) V8 load(1, XDATA, add(CFA_XSP16, literal(-13)))
        CFI (cfiCond204) V9 load(1, XDATA, add(CFA_XSP16, literal(-12)))
        CFI (cfiCond204) V10 load(1, XDATA, add(CFA_XSP16, literal(-11)))
        CFI (cfiCond204) V11 load(1, XDATA, add(CFA_XSP16, literal(-10)))
        CFI (cfiCond204) V12 load(1, XDATA, add(CFA_XSP16, literal(-9)))
        CFI (cfiCond204) V13 load(1, XDATA, add(CFA_XSP16, literal(-8)))
        CFI (cfiCond204) V14 load(1, XDATA, add(CFA_XSP16, literal(-7)))
        CFI (cfiCond204) R7 load(1, XDATA, add(CFA_XSP16, literal(-6)))
        CFI (cfiCond204) ?RET_LOW load(1, XDATA, add(CFA_XSP16, literal(-5)))
        CFI (cfiCond204) ?RET_HIGH load(1, XDATA, add(CFA_XSP16, literal(-4)))
        CFI (cfiCond204) ?BRET_EXT load(1, XDATA, add(CFA_XSP16, literal(-3)))
        CFI (cfiCond204) DPL0 load(1, XDATA, add(CFA_XSP16, literal(-2)))
        CFI (cfiCond204) DPH0 load(1, XDATA, add(CFA_XSP16, literal(-1)))
        CFI (cfiCond204) CFA_SP SP+0
        CFI (cfiCond204) CFA_XSP16 add(XSP16, 23)
        CFI Block cfiCond205 Using cfiCommon0
        CFI (cfiCond205) NoFunction
        CFI (cfiCond205) Conditional ??CrossCallReturnLabel_109, ??CrossCallReturnLabel_118
        CFI (cfiCond205) R6 load(1, XDATA, add(CFA_XSP16, literal(-23)))
        CFI (cfiCond205) VB load(1, XDATA, add(CFA_XSP16, literal(-22)))
        CFI (cfiCond205) V0 load(1, XDATA, add(CFA_XSP16, literal(-21)))
        CFI (cfiCond205) V1 load(1, XDATA, add(CFA_XSP16, literal(-20)))
        CFI (cfiCond205) V2 load(1, XDATA, add(CFA_XSP16, literal(-19)))
        CFI (cfiCond205) V3 load(1, XDATA, add(CFA_XSP16, literal(-18)))
        CFI (cfiCond205) V4 load(1, XDATA, add(CFA_XSP16, literal(-17)))
        CFI (cfiCond205) V5 load(1, XDATA, add(CFA_XSP16, literal(-16)))
        CFI (cfiCond205) V6 load(1, XDATA, add(CFA_XSP16, literal(-15)))
        CFI (cfiCond205) V7 load(1, XDATA, add(CFA_XSP16, literal(-14)))
        CFI (cfiCond205) V8 load(1, XDATA, add(CFA_XSP16, literal(-13)))
        CFI (cfiCond205) V9 load(1, XDATA, add(CFA_XSP16, literal(-12)))
        CFI (cfiCond205) V10 load(1, XDATA, add(CFA_XSP16, literal(-11)))
        CFI (cfiCond205) V11 load(1, XDATA, add(CFA_XSP16, literal(-10)))
        CFI (cfiCond205) V12 load(1, XDATA, add(CFA_XSP16, literal(-9)))
        CFI (cfiCond205) V13 load(1, XDATA, add(CFA_XSP16, literal(-8)))
        CFI (cfiCond205) V14 load(1, XDATA, add(CFA_XSP16, literal(-7)))
        CFI (cfiCond205) R7 load(1, XDATA, add(CFA_XSP16, literal(-6)))
        CFI (cfiCond205) ?RET_LOW load(1, XDATA, add(CFA_XSP16, literal(-5)))
        CFI (cfiCond205) ?RET_HIGH load(1, XDATA, add(CFA_XSP16, literal(-4)))
        CFI (cfiCond205) ?BRET_EXT load(1, XDATA, add(CFA_XSP16, literal(-3)))
        CFI (cfiCond205) DPL0 load(1, XDATA, add(CFA_XSP16, literal(-2)))
        CFI (cfiCond205) DPH0 load(1, XDATA, add(CFA_XSP16, literal(-1)))
        CFI (cfiCond205) CFA_SP SP+0
        CFI (cfiCond205) CFA_XSP16 add(XSP16, 23)
        CFI Block cfiCond206 Using cfiCommon0
        CFI (cfiCond206) NoFunction
        CFI (cfiCond206) Conditional ??CrossCallReturnLabel_109, ??CrossCallReturnLabel_119
        CFI (cfiCond206) R6 load(1, XDATA, add(CFA_XSP16, literal(-23)))
        CFI (cfiCond206) VB load(1, XDATA, add(CFA_XSP16, literal(-22)))
        CFI (cfiCond206) V0 load(1, XDATA, add(CFA_XSP16, literal(-21)))
        CFI (cfiCond206) V1 load(1, XDATA, add(CFA_XSP16, literal(-20)))
        CFI (cfiCond206) V2 load(1, XDATA, add(CFA_XSP16, literal(-19)))
        CFI (cfiCond206) V3 load(1, XDATA, add(CFA_XSP16, literal(-18)))
        CFI (cfiCond206) V4 load(1, XDATA, add(CFA_XSP16, literal(-17)))
        CFI (cfiCond206) V5 load(1, XDATA, add(CFA_XSP16, literal(-16)))
        CFI (cfiCond206) V6 load(1, XDATA, add(CFA_XSP16, literal(-15)))
        CFI (cfiCond206) V7 load(1, XDATA, add(CFA_XSP16, literal(-14)))
        CFI (cfiCond206) V8 load(1, XDATA, add(CFA_XSP16, literal(-13)))
        CFI (cfiCond206) V9 load(1, XDATA, add(CFA_XSP16, literal(-12)))
        CFI (cfiCond206) V10 load(1, XDATA, add(CFA_XSP16, literal(-11)))
        CFI (cfiCond206) V11 load(1, XDATA, add(CFA_XSP16, literal(-10)))
        CFI (cfiCond206) V12 load(1, XDATA, add(CFA_XSP16, literal(-9)))
        CFI (cfiCond206) V13 load(1, XDATA, add(CFA_XSP16, literal(-8)))
        CFI (cfiCond206) V14 load(1, XDATA, add(CFA_XSP16, literal(-7)))
        CFI (cfiCond206) R7 load(1, XDATA, add(CFA_XSP16, literal(-6)))
        CFI (cfiCond206) ?RET_LOW load(1, XDATA, add(CFA_XSP16, literal(-5)))
        CFI (cfiCond206) ?RET_HIGH load(1, XDATA, add(CFA_XSP16, literal(-4)))
        CFI (cfiCond206) ?BRET_EXT load(1, XDATA, add(CFA_XSP16, literal(-3)))
        CFI (cfiCond206) DPL0 load(1, XDATA, add(CFA_XSP16, literal(-2)))
        CFI (cfiCond206) DPH0 load(1, XDATA, add(CFA_XSP16, literal(-1)))
        CFI (cfiCond206) CFA_SP SP+0
        CFI (cfiCond206) CFA_XSP16 add(XSP16, 23)
        CFI Block cfiPicker207 Using cfiCommon1
        CFI (cfiPicker207) NoFunction
        CFI (cfiPicker207) Picker
        ADDC    A,#0x0
        MOV     DPH,A
        RET
        CFI EndBlock cfiCond192
        CFI EndBlock cfiCond193
        CFI EndBlock cfiCond194
        CFI EndBlock cfiCond195
        CFI EndBlock cfiCond196
        CFI EndBlock cfiCond197
        CFI EndBlock cfiCond198
        CFI EndBlock cfiCond199
        CFI EndBlock cfiCond200
        CFI EndBlock cfiCond201
        CFI EndBlock cfiCond202
        CFI EndBlock cfiCond203
        CFI EndBlock cfiCond204
        CFI EndBlock cfiCond205
        CFI EndBlock cfiCond206
        CFI EndBlock cfiPicker207

        RSEG BANKED_CODE:CODE:NOROOT(0)
?Subroutine8:
        CFI Block cfiCond208 Using cfiCommon0
        CFI NoFunction
        CFI Conditional ??CrossCallReturnLabel_7
        CFI R6 load(1, XDATA, add(CFA_XSP16, literal(-23)))
        CFI VB load(1, XDATA, add(CFA_XSP16, literal(-22)))
        CFI V0 load(1, XDATA, add(CFA_XSP16, literal(-21)))
        CFI V1 load(1, XDATA, add(CFA_XSP16, literal(-20)))
        CFI V2 load(1, XDATA, add(CFA_XSP16, literal(-19)))
        CFI V3 load(1, XDATA, add(CFA_XSP16, literal(-18)))
        CFI V4 load(1, XDATA, add(CFA_XSP16, literal(-17)))
        CFI V5 load(1, XDATA, add(CFA_XSP16, literal(-16)))
        CFI V6 load(1, XDATA, add(CFA_XSP16, literal(-15)))
        CFI V7 load(1, XDATA, add(CFA_XSP16, literal(-14)))
        CFI V8 load(1, XDATA, add(CFA_XSP16, literal(-13)))
        CFI V9 load(1, XDATA, add(CFA_XSP16, literal(-12)))
        CFI V10 load(1, XDATA, add(CFA_XSP16, literal(-11)))
        CFI V11 load(1, XDATA, add(CFA_XSP16, literal(-10)))
        CFI V12 load(1, XDATA, add(CFA_XSP16, literal(-9)))
        CFI V13 load(1, XDATA, add(CFA_XSP16, literal(-8)))
        CFI V14 load(1, XDATA, add(CFA_XSP16, literal(-7)))
        CFI R7 load(1, XDATA, add(CFA_XSP16, literal(-6)))
        CFI ?RET_LOW load(1, XDATA, add(CFA_XSP16, literal(-5)))
        CFI ?RET_HIGH load(1, XDATA, add(CFA_XSP16, literal(-4)))
        CFI ?BRET_EXT load(1, XDATA, add(CFA_XSP16, literal(-3)))
        CFI DPL0 load(1, XDATA, add(CFA_XSP16, literal(-2)))
        CFI DPH0 load(1, XDATA, add(CFA_XSP16, literal(-1)))
        CFI CFA_SP SP+0
        CFI CFA_XSP16 add(XSP16, 23)
        CFI Block cfiCond209 Using cfiCommon0
        CFI (cfiCond209) NoFunction
        CFI (cfiCond209) Conditional ??CrossCallReturnLabel_8
        CFI (cfiCond209) R6 load(1, XDATA, add(CFA_XSP16, literal(-23)))
        CFI (cfiCond209) VB load(1, XDATA, add(CFA_XSP16, literal(-22)))
        CFI (cfiCond209) V0 load(1, XDATA, add(CFA_XSP16, literal(-21)))
        CFI (cfiCond209) V1 load(1, XDATA, add(CFA_XSP16, literal(-20)))
        CFI (cfiCond209) V2 load(1, XDATA, add(CFA_XSP16, literal(-19)))
        CFI (cfiCond209) V3 load(1, XDATA, add(CFA_XSP16, literal(-18)))
        CFI (cfiCond209) V4 load(1, XDATA, add(CFA_XSP16, literal(-17)))
        CFI (cfiCond209) V5 load(1, XDATA, add(CFA_XSP16, literal(-16)))
        CFI (cfiCond209) V6 load(1, XDATA, add(CFA_XSP16, literal(-15)))
        CFI (cfiCond209) V7 load(1, XDATA, add(CFA_XSP16, literal(-14)))
        CFI (cfiCond209) V8 load(1, XDATA, add(CFA_XSP16, literal(-13)))
        CFI (cfiCond209) V9 load(1, XDATA, add(CFA_XSP16, literal(-12)))
        CFI (cfiCond209) V10 load(1, XDATA, add(CFA_XSP16, literal(-11)))
        CFI (cfiCond209) V11 load(1, XDATA, add(CFA_XSP16, literal(-10)))
        CFI (cfiCond209) V12 load(1, XDATA, add(CFA_XSP16, literal(-9)))
        CFI (cfiCond209) V13 load(1, XDATA, add(CFA_XSP16, literal(-8)))
        CFI (cfiCond209) V14 load(1, XDATA, add(CFA_XSP16, literal(-7)))
        CFI (cfiCond209) R7 load(1, XDATA, add(CFA_XSP16, literal(-6)))
        CFI (cfiCond209) ?RET_LOW load(1, XDATA, add(CFA_XSP16, literal(-5)))
        CFI (cfiCond209) ?RET_HIGH load(1, XDATA, add(CFA_XSP16, literal(-4)))
        CFI (cfiCond209) ?BRET_EXT load(1, XDATA, add(CFA_XSP16, literal(-3)))
        CFI (cfiCond209) DPL0 load(1, XDATA, add(CFA_XSP16, literal(-2)))
        CFI (cfiCond209) DPH0 load(1, XDATA, add(CFA_XSP16, literal(-1)))
        CFI (cfiCond209) CFA_SP SP+0
        CFI (cfiCond209) CFA_XSP16 add(XSP16, 23)
        CFI Block cfiPicker210 Using cfiCommon1
        CFI (cfiPicker210) NoFunction
        CFI (cfiPicker210) Picker
        LCALL   ?Subroutine37 & 0xFFFF
??CrossCallReturnLabel_123:
        RET
        CFI EndBlock cfiCond208
        CFI EndBlock cfiCond209
        CFI EndBlock cfiPicker210

        RSEG BANKED_CODE:CODE:NOROOT(0)
?Subroutine37:
        CFI Block cfiCond211 Using cfiCommon0
        CFI NoFunction
        CFI Conditional ??CrossCallReturnLabel_123, ??CrossCallReturnLabel_7
        CFI R6 load(1, XDATA, add(CFA_XSP16, literal(-23)))
        CFI VB load(1, XDATA, add(CFA_XSP16, literal(-22)))
        CFI V0 load(1, XDATA, add(CFA_XSP16, literal(-21)))
        CFI V1 load(1, XDATA, add(CFA_XSP16, literal(-20)))
        CFI V2 load(1, XDATA, add(CFA_XSP16, literal(-19)))
        CFI V3 load(1, XDATA, add(CFA_XSP16, literal(-18)))
        CFI V4 load(1, XDATA, add(CFA_XSP16, literal(-17)))
        CFI V5 load(1, XDATA, add(CFA_XSP16, literal(-16)))
        CFI V6 load(1, XDATA, add(CFA_XSP16, literal(-15)))
        CFI V7 load(1, XDATA, add(CFA_XSP16, literal(-14)))
        CFI V8 load(1, XDATA, add(CFA_XSP16, literal(-13)))
        CFI V9 load(1, XDATA, add(CFA_XSP16, literal(-12)))
        CFI V10 load(1, XDATA, add(CFA_XSP16, literal(-11)))
        CFI V11 load(1, XDATA, add(CFA_XSP16, literal(-10)))
        CFI V12 load(1, XDATA, add(CFA_XSP16, literal(-9)))
        CFI V13 load(1, XDATA, add(CFA_XSP16, literal(-8)))
        CFI V14 load(1, XDATA, add(CFA_XSP16, literal(-7)))
        CFI R7 load(1, XDATA, add(CFA_XSP16, literal(-6)))
        CFI ?RET_LOW load(1, XDATA, add(CFA_XSP16, literal(-5)))
        CFI ?RET_HIGH load(1, XDATA, add(CFA_XSP16, literal(-4)))
        CFI ?BRET_EXT load(1, XDATA, add(CFA_XSP16, literal(-3)))
        CFI DPL0 load(1, XDATA, add(CFA_XSP16, literal(-2)))
        CFI DPH0 load(1, XDATA, add(CFA_XSP16, literal(-1)))
        CFI CFA_SP SP+0
        CFI CFA_XSP16 add(XSP16, 23)
        CFI Block cfiCond212 Using cfiCommon0
        CFI (cfiCond212) NoFunction
        CFI (cfiCond212) Conditional ??CrossCallReturnLabel_123, ??CrossCallReturnLabel_8
        CFI (cfiCond212) R6 load(1, XDATA, add(CFA_XSP16, literal(-23)))
        CFI (cfiCond212) VB load(1, XDATA, add(CFA_XSP16, literal(-22)))
        CFI (cfiCond212) V0 load(1, XDATA, add(CFA_XSP16, literal(-21)))
        CFI (cfiCond212) V1 load(1, XDATA, add(CFA_XSP16, literal(-20)))
        CFI (cfiCond212) V2 load(1, XDATA, add(CFA_XSP16, literal(-19)))
        CFI (cfiCond212) V3 load(1, XDATA, add(CFA_XSP16, literal(-18)))
        CFI (cfiCond212) V4 load(1, XDATA, add(CFA_XSP16, literal(-17)))
        CFI (cfiCond212) V5 load(1, XDATA, add(CFA_XSP16, literal(-16)))
        CFI (cfiCond212) V6 load(1, XDATA, add(CFA_XSP16, literal(-15)))
        CFI (cfiCond212) V7 load(1, XDATA, add(CFA_XSP16, literal(-14)))
        CFI (cfiCond212) V8 load(1, XDATA, add(CFA_XSP16, literal(-13)))
        CFI (cfiCond212) V9 load(1, XDATA, add(CFA_XSP16, literal(-12)))
        CFI (cfiCond212) V10 load(1, XDATA, add(CFA_XSP16, literal(-11)))
        CFI (cfiCond212) V11 load(1, XDATA, add(CFA_XSP16, literal(-10)))
        CFI (cfiCond212) V12 load(1, XDATA, add(CFA_XSP16, literal(-9)))
        CFI (cfiCond212) V13 load(1, XDATA, add(CFA_XSP16, literal(-8)))
        CFI (cfiCond212) V14 load(1, XDATA, add(CFA_XSP16, literal(-7)))
        CFI (cfiCond212) R7 load(1, XDATA, add(CFA_XSP16, literal(-6)))
        CFI (cfiCond212) ?RET_LOW load(1, XDATA, add(CFA_XSP16, literal(-5)))
        CFI (cfiCond212) ?RET_HIGH load(1, XDATA, add(CFA_XSP16, literal(-4)))
        CFI (cfiCond212) ?BRET_EXT load(1, XDATA, add(CFA_XSP16, literal(-3)))
        CFI (cfiCond212) DPL0 load(1, XDATA, add(CFA_XSP16, literal(-2)))
        CFI (cfiCond212) DPH0 load(1, XDATA, add(CFA_XSP16, literal(-1)))
        CFI (cfiCond212) CFA_SP SP+0
        CFI (cfiCond212) CFA_XSP16 add(XSP16, 23)
        CFI Block cfiCond213 Using cfiCommon0
        CFI (cfiCond213) NoFunction
        CFI (cfiCond213) Conditional ??CrossCallReturnLabel_124, ??CrossCallReturnLabel_112
        CFI (cfiCond213) R6 load(1, XDATA, add(CFA_XSP16, literal(-23)))
        CFI (cfiCond213) VB load(1, XDATA, add(CFA_XSP16, literal(-22)))
        CFI (cfiCond213) V0 load(1, XDATA, add(CFA_XSP16, literal(-21)))
        CFI (cfiCond213) V1 load(1, XDATA, add(CFA_XSP16, literal(-20)))
        CFI (cfiCond213) V2 load(1, XDATA, add(CFA_XSP16, literal(-19)))
        CFI (cfiCond213) V3 load(1, XDATA, add(CFA_XSP16, literal(-18)))
        CFI (cfiCond213) V4 load(1, XDATA, add(CFA_XSP16, literal(-17)))
        CFI (cfiCond213) V5 load(1, XDATA, add(CFA_XSP16, literal(-16)))
        CFI (cfiCond213) V6 load(1, XDATA, add(CFA_XSP16, literal(-15)))
        CFI (cfiCond213) V7 load(1, XDATA, add(CFA_XSP16, literal(-14)))
        CFI (cfiCond213) V8 load(1, XDATA, add(CFA_XSP16, literal(-13)))
        CFI (cfiCond213) V9 load(1, XDATA, add(CFA_XSP16, literal(-12)))
        CFI (cfiCond213) V10 load(1, XDATA, add(CFA_XSP16, literal(-11)))
        CFI (cfiCond213) V11 load(1, XDATA, add(CFA_XSP16, literal(-10)))
        CFI (cfiCond213) V12 load(1, XDATA, add(CFA_XSP16, literal(-9)))
        CFI (cfiCond213) V13 load(1, XDATA, add(CFA_XSP16, literal(-8)))
        CFI (cfiCond213) V14 load(1, XDATA, add(CFA_XSP16, literal(-7)))
        CFI (cfiCond213) R7 load(1, XDATA, add(CFA_XSP16, literal(-6)))
        CFI (cfiCond213) ?RET_LOW load(1, XDATA, add(CFA_XSP16, literal(-5)))
        CFI (cfiCond213) ?RET_HIGH load(1, XDATA, add(CFA_XSP16, literal(-4)))
        CFI (cfiCond213) ?BRET_EXT load(1, XDATA, add(CFA_XSP16, literal(-3)))
        CFI (cfiCond213) DPL0 load(1, XDATA, add(CFA_XSP16, literal(-2)))
        CFI (cfiCond213) DPH0 load(1, XDATA, add(CFA_XSP16, literal(-1)))
        CFI (cfiCond213) CFA_SP SP+0
        CFI (cfiCond213) CFA_XSP16 add(XSP16, 23)
        CFI Block cfiCond214 Using cfiCommon0
        CFI (cfiCond214) NoFunction
        CFI (cfiCond214) Conditional ??CrossCallReturnLabel_124, ??CrossCallReturnLabel_113
        CFI (cfiCond214) R6 load(1, XDATA, add(CFA_XSP16, literal(-23)))
        CFI (cfiCond214) VB load(1, XDATA, add(CFA_XSP16, literal(-22)))
        CFI (cfiCond214) V0 load(1, XDATA, add(CFA_XSP16, literal(-21)))
        CFI (cfiCond214) V1 load(1, XDATA, add(CFA_XSP16, literal(-20)))
        CFI (cfiCond214) V2 load(1, XDATA, add(CFA_XSP16, literal(-19)))
        CFI (cfiCond214) V3 load(1, XDATA, add(CFA_XSP16, literal(-18)))
        CFI (cfiCond214) V4 load(1, XDATA, add(CFA_XSP16, literal(-17)))
        CFI (cfiCond214) V5 load(1, XDATA, add(CFA_XSP16, literal(-16)))
        CFI (cfiCond214) V6 load(1, XDATA, add(CFA_XSP16, literal(-15)))
        CFI (cfiCond214) V7 load(1, XDATA, add(CFA_XSP16, literal(-14)))
        CFI (cfiCond214) V8 load(1, XDATA, add(CFA_XSP16, literal(-13)))
        CFI (cfiCond214) V9 load(1, XDATA, add(CFA_XSP16, literal(-12)))
        CFI (cfiCond214) V10 load(1, XDATA, add(CFA_XSP16, literal(-11)))
        CFI (cfiCond214) V11 load(1, XDATA, add(CFA_XSP16, literal(-10)))
        CFI (cfiCond214) V12 load(1, XDATA, add(CFA_XSP16, literal(-9)))
        CFI (cfiCond214) V13 load(1, XDATA, add(CFA_XSP16, literal(-8)))
        CFI (cfiCond214) V14 load(1, XDATA, add(CFA_XSP16, literal(-7)))
        CFI (cfiCond214) R7 load(1, XDATA, add(CFA_XSP16, literal(-6)))
        CFI (cfiCond214) ?RET_LOW load(1, XDATA, add(CFA_XSP16, literal(-5)))
        CFI (cfiCond214) ?RET_HIGH load(1, XDATA, add(CFA_XSP16, literal(-4)))
        CFI (cfiCond214) ?BRET_EXT load(1, XDATA, add(CFA_XSP16, literal(-3)))
        CFI (cfiCond214) DPL0 load(1, XDATA, add(CFA_XSP16, literal(-2)))
        CFI (cfiCond214) DPH0 load(1, XDATA, add(CFA_XSP16, literal(-1)))
        CFI (cfiCond214) CFA_SP SP+0
        CFI (cfiCond214) CFA_XSP16 add(XSP16, 23)
        CFI Block cfiCond215 Using cfiCommon0
        CFI (cfiCond215) NoFunction
        CFI (cfiCond215) Conditional ??CrossCallReturnLabel_124, ??CrossCallReturnLabel_114
        CFI (cfiCond215) R6 load(1, XDATA, add(CFA_XSP16, literal(-23)))
        CFI (cfiCond215) VB load(1, XDATA, add(CFA_XSP16, literal(-22)))
        CFI (cfiCond215) V0 load(1, XDATA, add(CFA_XSP16, literal(-21)))
        CFI (cfiCond215) V1 load(1, XDATA, add(CFA_XSP16, literal(-20)))
        CFI (cfiCond215) V2 load(1, XDATA, add(CFA_XSP16, literal(-19)))
        CFI (cfiCond215) V3 load(1, XDATA, add(CFA_XSP16, literal(-18)))
        CFI (cfiCond215) V4 load(1, XDATA, add(CFA_XSP16, literal(-17)))
        CFI (cfiCond215) V5 load(1, XDATA, add(CFA_XSP16, literal(-16)))
        CFI (cfiCond215) V6 load(1, XDATA, add(CFA_XSP16, literal(-15)))
        CFI (cfiCond215) V7 load(1, XDATA, add(CFA_XSP16, literal(-14)))
        CFI (cfiCond215) V8 load(1, XDATA, add(CFA_XSP16, literal(-13)))
        CFI (cfiCond215) V9 load(1, XDATA, add(CFA_XSP16, literal(-12)))
        CFI (cfiCond215) V10 load(1, XDATA, add(CFA_XSP16, literal(-11)))
        CFI (cfiCond215) V11 load(1, XDATA, add(CFA_XSP16, literal(-10)))
        CFI (cfiCond215) V12 load(1, XDATA, add(CFA_XSP16, literal(-9)))
        CFI (cfiCond215) V13 load(1, XDATA, add(CFA_XSP16, literal(-8)))
        CFI (cfiCond215) V14 load(1, XDATA, add(CFA_XSP16, literal(-7)))
        CFI (cfiCond215) R7 load(1, XDATA, add(CFA_XSP16, literal(-6)))
        CFI (cfiCond215) ?RET_LOW load(1, XDATA, add(CFA_XSP16, literal(-5)))
        CFI (cfiCond215) ?RET_HIGH load(1, XDATA, add(CFA_XSP16, literal(-4)))
        CFI (cfiCond215) ?BRET_EXT load(1, XDATA, add(CFA_XSP16, literal(-3)))
        CFI (cfiCond215) DPL0 load(1, XDATA, add(CFA_XSP16, literal(-2)))
        CFI (cfiCond215) DPH0 load(1, XDATA, add(CFA_XSP16, literal(-1)))
        CFI (cfiCond215) CFA_SP SP+0
        CFI (cfiCond215) CFA_XSP16 add(XSP16, 23)
        CFI Block cfiCond216 Using cfiCommon0
        CFI (cfiCond216) NoFunction
        CFI (cfiCond216) Conditional ??CrossCallReturnLabel_125, ??CrossCallReturnLabel_115
        CFI (cfiCond216) R6 load(1, XDATA, add(CFA_XSP16, literal(-23)))
        CFI (cfiCond216) VB load(1, XDATA, add(CFA_XSP16, literal(-22)))
        CFI (cfiCond216) V0 load(1, XDATA, add(CFA_XSP16, literal(-21)))
        CFI (cfiCond216) V1 load(1, XDATA, add(CFA_XSP16, literal(-20)))
        CFI (cfiCond216) V2 load(1, XDATA, add(CFA_XSP16, literal(-19)))
        CFI (cfiCond216) V3 load(1, XDATA, add(CFA_XSP16, literal(-18)))
        CFI (cfiCond216) V4 load(1, XDATA, add(CFA_XSP16, literal(-17)))
        CFI (cfiCond216) V5 load(1, XDATA, add(CFA_XSP16, literal(-16)))
        CFI (cfiCond216) V6 load(1, XDATA, add(CFA_XSP16, literal(-15)))
        CFI (cfiCond216) V7 load(1, XDATA, add(CFA_XSP16, literal(-14)))
        CFI (cfiCond216) V8 load(1, XDATA, add(CFA_XSP16, literal(-13)))
        CFI (cfiCond216) V9 load(1, XDATA, add(CFA_XSP16, literal(-12)))
        CFI (cfiCond216) V10 load(1, XDATA, add(CFA_XSP16, literal(-11)))
        CFI (cfiCond216) V11 load(1, XDATA, add(CFA_XSP16, literal(-10)))
        CFI (cfiCond216) V12 load(1, XDATA, add(CFA_XSP16, literal(-9)))
        CFI (cfiCond216) V13 load(1, XDATA, add(CFA_XSP16, literal(-8)))
        CFI (cfiCond216) V14 load(1, XDATA, add(CFA_XSP16, literal(-7)))
        CFI (cfiCond216) R7 load(1, XDATA, add(CFA_XSP16, literal(-6)))
        CFI (cfiCond216) ?RET_LOW load(1, XDATA, add(CFA_XSP16, literal(-5)))
        CFI (cfiCond216) ?RET_HIGH load(1, XDATA, add(CFA_XSP16, literal(-4)))
        CFI (cfiCond216) ?BRET_EXT load(1, XDATA, add(CFA_XSP16, literal(-3)))
        CFI (cfiCond216) DPL0 load(1, XDATA, add(CFA_XSP16, literal(-2)))
        CFI (cfiCond216) DPH0 load(1, XDATA, add(CFA_XSP16, literal(-1)))
        CFI (cfiCond216) CFA_SP SP+0
        CFI (cfiCond216) CFA_XSP16 add(XSP16, 23)
        CFI Block cfiCond217 Using cfiCommon0
        CFI (cfiCond217) NoFunction
        CFI (cfiCond217) Conditional ??CrossCallReturnLabel_125, ??CrossCallReturnLabel_116
        CFI (cfiCond217) R6 load(1, XDATA, add(CFA_XSP16, literal(-23)))
        CFI (cfiCond217) VB load(1, XDATA, add(CFA_XSP16, literal(-22)))
        CFI (cfiCond217) V0 load(1, XDATA, add(CFA_XSP16, literal(-21)))
        CFI (cfiCond217) V1 load(1, XDATA, add(CFA_XSP16, literal(-20)))
        CFI (cfiCond217) V2 load(1, XDATA, add(CFA_XSP16, literal(-19)))
        CFI (cfiCond217) V3 load(1, XDATA, add(CFA_XSP16, literal(-18)))
        CFI (cfiCond217) V4 load(1, XDATA, add(CFA_XSP16, literal(-17)))
        CFI (cfiCond217) V5 load(1, XDATA, add(CFA_XSP16, literal(-16)))
        CFI (cfiCond217) V6 load(1, XDATA, add(CFA_XSP16, literal(-15)))
        CFI (cfiCond217) V7 load(1, XDATA, add(CFA_XSP16, literal(-14)))
        CFI (cfiCond217) V8 load(1, XDATA, add(CFA_XSP16, literal(-13)))
        CFI (cfiCond217) V9 load(1, XDATA, add(CFA_XSP16, literal(-12)))
        CFI (cfiCond217) V10 load(1, XDATA, add(CFA_XSP16, literal(-11)))
        CFI (cfiCond217) V11 load(1, XDATA, add(CFA_XSP16, literal(-10)))
        CFI (cfiCond217) V12 load(1, XDATA, add(CFA_XSP16, literal(-9)))
        CFI (cfiCond217) V13 load(1, XDATA, add(CFA_XSP16, literal(-8)))
        CFI (cfiCond217) V14 load(1, XDATA, add(CFA_XSP16, literal(-7)))
        CFI (cfiCond217) R7 load(1, XDATA, add(CFA_XSP16, literal(-6)))
        CFI (cfiCond217) ?RET_LOW load(1, XDATA, add(CFA_XSP16, literal(-5)))
        CFI (cfiCond217) ?RET_HIGH load(1, XDATA, add(CFA_XSP16, literal(-4)))
        CFI (cfiCond217) ?BRET_EXT load(1, XDATA, add(CFA_XSP16, literal(-3)))
        CFI (cfiCond217) DPL0 load(1, XDATA, add(CFA_XSP16, literal(-2)))
        CFI (cfiCond217) DPH0 load(1, XDATA, add(CFA_XSP16, literal(-1)))
        CFI (cfiCond217) CFA_SP SP+0
        CFI (cfiCond217) CFA_XSP16 add(XSP16, 23)
        CFI Block cfiCond218 Using cfiCommon0
        CFI (cfiCond218) NoFunction
        CFI (cfiCond218) Conditional ??CrossCallReturnLabel_125, ??CrossCallReturnLabel_117
        CFI (cfiCond218) R6 load(1, XDATA, add(CFA_XSP16, literal(-23)))
        CFI (cfiCond218) VB load(1, XDATA, add(CFA_XSP16, literal(-22)))
        CFI (cfiCond218) V0 load(1, XDATA, add(CFA_XSP16, literal(-21)))
        CFI (cfiCond218) V1 load(1, XDATA, add(CFA_XSP16, literal(-20)))
        CFI (cfiCond218) V2 load(1, XDATA, add(CFA_XSP16, literal(-19)))
        CFI (cfiCond218) V3 load(1, XDATA, add(CFA_XSP16, literal(-18)))
        CFI (cfiCond218) V4 load(1, XDATA, add(CFA_XSP16, literal(-17)))
        CFI (cfiCond218) V5 load(1, XDATA, add(CFA_XSP16, literal(-16)))
        CFI (cfiCond218) V6 load(1, XDATA, add(CFA_XSP16, literal(-15)))
        CFI (cfiCond218) V7 load(1, XDATA, add(CFA_XSP16, literal(-14)))
        CFI (cfiCond218) V8 load(1, XDATA, add(CFA_XSP16, literal(-13)))
        CFI (cfiCond218) V9 load(1, XDATA, add(CFA_XSP16, literal(-12)))
        CFI (cfiCond218) V10 load(1, XDATA, add(CFA_XSP16, literal(-11)))
        CFI (cfiCond218) V11 load(1, XDATA, add(CFA_XSP16, literal(-10)))
        CFI (cfiCond218) V12 load(1, XDATA, add(CFA_XSP16, literal(-9)))
        CFI (cfiCond218) V13 load(1, XDATA, add(CFA_XSP16, literal(-8)))
        CFI (cfiCond218) V14 load(1, XDATA, add(CFA_XSP16, literal(-7)))
        CFI (cfiCond218) R7 load(1, XDATA, add(CFA_XSP16, literal(-6)))
        CFI (cfiCond218) ?RET_LOW load(1, XDATA, add(CFA_XSP16, literal(-5)))
        CFI (cfiCond218) ?RET_HIGH load(1, XDATA, add(CFA_XSP16, literal(-4)))
        CFI (cfiCond218) ?BRET_EXT load(1, XDATA, add(CFA_XSP16, literal(-3)))
        CFI (cfiCond218) DPL0 load(1, XDATA, add(CFA_XSP16, literal(-2)))
        CFI (cfiCond218) DPH0 load(1, XDATA, add(CFA_XSP16, literal(-1)))
        CFI (cfiCond218) CFA_SP SP+0
        CFI (cfiCond218) CFA_XSP16 add(XSP16, 23)
        CFI Block cfiCond219 Using cfiCommon0
        CFI (cfiCond219) NoFunction
        CFI (cfiCond219) Conditional ??CrossCallReturnLabel_125, ??CrossCallReturnLabel_118
        CFI (cfiCond219) R6 load(1, XDATA, add(CFA_XSP16, literal(-23)))
        CFI (cfiCond219) VB load(1, XDATA, add(CFA_XSP16, literal(-22)))
        CFI (cfiCond219) V0 load(1, XDATA, add(CFA_XSP16, literal(-21)))
        CFI (cfiCond219) V1 load(1, XDATA, add(CFA_XSP16, literal(-20)))
        CFI (cfiCond219) V2 load(1, XDATA, add(CFA_XSP16, literal(-19)))
        CFI (cfiCond219) V3 load(1, XDATA, add(CFA_XSP16, literal(-18)))
        CFI (cfiCond219) V4 load(1, XDATA, add(CFA_XSP16, literal(-17)))
        CFI (cfiCond219) V5 load(1, XDATA, add(CFA_XSP16, literal(-16)))
        CFI (cfiCond219) V6 load(1, XDATA, add(CFA_XSP16, literal(-15)))
        CFI (cfiCond219) V7 load(1, XDATA, add(CFA_XSP16, literal(-14)))
        CFI (cfiCond219) V8 load(1, XDATA, add(CFA_XSP16, literal(-13)))
        CFI (cfiCond219) V9 load(1, XDATA, add(CFA_XSP16, literal(-12)))
        CFI (cfiCond219) V10 load(1, XDATA, add(CFA_XSP16, literal(-11)))
        CFI (cfiCond219) V11 load(1, XDATA, add(CFA_XSP16, literal(-10)))
        CFI (cfiCond219) V12 load(1, XDATA, add(CFA_XSP16, literal(-9)))
        CFI (cfiCond219) V13 load(1, XDATA, add(CFA_XSP16, literal(-8)))
        CFI (cfiCond219) V14 load(1, XDATA, add(CFA_XSP16, literal(-7)))
        CFI (cfiCond219) R7 load(1, XDATA, add(CFA_XSP16, literal(-6)))
        CFI (cfiCond219) ?RET_LOW load(1, XDATA, add(CFA_XSP16, literal(-5)))
        CFI (cfiCond219) ?RET_HIGH load(1, XDATA, add(CFA_XSP16, literal(-4)))
        CFI (cfiCond219) ?BRET_EXT load(1, XDATA, add(CFA_XSP16, literal(-3)))
        CFI (cfiCond219) DPL0 load(1, XDATA, add(CFA_XSP16, literal(-2)))
        CFI (cfiCond219) DPH0 load(1, XDATA, add(CFA_XSP16, literal(-1)))
        CFI (cfiCond219) CFA_SP SP+0
        CFI (cfiCond219) CFA_XSP16 add(XSP16, 23)
        CFI Block cfiCond220 Using cfiCommon0
        CFI (cfiCond220) NoFunction
        CFI (cfiCond220) Conditional ??CrossCallReturnLabel_125, ??CrossCallReturnLabel_119
        CFI (cfiCond220) R6 load(1, XDATA, add(CFA_XSP16, literal(-23)))
        CFI (cfiCond220) VB load(1, XDATA, add(CFA_XSP16, literal(-22)))
        CFI (cfiCond220) V0 load(1, XDATA, add(CFA_XSP16, literal(-21)))
        CFI (cfiCond220) V1 load(1, XDATA, add(CFA_XSP16, literal(-20)))
        CFI (cfiCond220) V2 load(1, XDATA, add(CFA_XSP16, literal(-19)))
        CFI (cfiCond220) V3 load(1, XDATA, add(CFA_XSP16, literal(-18)))
        CFI (cfiCond220) V4 load(1, XDATA, add(CFA_XSP16, literal(-17)))
        CFI (cfiCond220) V5 load(1, XDATA, add(CFA_XSP16, literal(-16)))
        CFI (cfiCond220) V6 load(1, XDATA, add(CFA_XSP16, literal(-15)))
        CFI (cfiCond220) V7 load(1, XDATA, add(CFA_XSP16, literal(-14)))
        CFI (cfiCond220) V8 load(1, XDATA, add(CFA_XSP16, literal(-13)))
        CFI (cfiCond220) V9 load(1, XDATA, add(CFA_XSP16, literal(-12)))
        CFI (cfiCond220) V10 load(1, XDATA, add(CFA_XSP16, literal(-11)))
        CFI (cfiCond220) V11 load(1, XDATA, add(CFA_XSP16, literal(-10)))
        CFI (cfiCond220) V12 load(1, XDATA, add(CFA_XSP16, literal(-9)))
        CFI (cfiCond220) V13 load(1, XDATA, add(CFA_XSP16, literal(-8)))
        CFI (cfiCond220) V14 load(1, XDATA, add(CFA_XSP16, literal(-7)))
        CFI (cfiCond220) R7 load(1, XDATA, add(CFA_XSP16, literal(-6)))
        CFI (cfiCond220) ?RET_LOW load(1, XDATA, add(CFA_XSP16, literal(-5)))
        CFI (cfiCond220) ?RET_HIGH load(1, XDATA, add(CFA_XSP16, literal(-4)))
        CFI (cfiCond220) ?BRET_EXT load(1, XDATA, add(CFA_XSP16, literal(-3)))
        CFI (cfiCond220) DPL0 load(1, XDATA, add(CFA_XSP16, literal(-2)))
        CFI (cfiCond220) DPH0 load(1, XDATA, add(CFA_XSP16, literal(-1)))
        CFI (cfiCond220) CFA_SP SP+0
        CFI (cfiCond220) CFA_XSP16 add(XSP16, 23)
        CFI Block cfiCond221 Using cfiCommon0
        CFI (cfiCond221) NoFunction
        CFI (cfiCond221) Conditional ??CrossCallReturnLabel_125, ??CrossCallReturnLabel_120
        CFI (cfiCond221) R6 load(1, XDATA, add(CFA_XSP16, literal(-23)))
        CFI (cfiCond221) VB load(1, XDATA, add(CFA_XSP16, literal(-22)))
        CFI (cfiCond221) V0 load(1, XDATA, add(CFA_XSP16, literal(-21)))
        CFI (cfiCond221) V1 load(1, XDATA, add(CFA_XSP16, literal(-20)))
        CFI (cfiCond221) V2 load(1, XDATA, add(CFA_XSP16, literal(-19)))
        CFI (cfiCond221) V3 load(1, XDATA, add(CFA_XSP16, literal(-18)))
        CFI (cfiCond221) V4 load(1, XDATA, add(CFA_XSP16, literal(-17)))
        CFI (cfiCond221) V5 load(1, XDATA, add(CFA_XSP16, literal(-16)))
        CFI (cfiCond221) V6 load(1, XDATA, add(CFA_XSP16, literal(-15)))
        CFI (cfiCond221) V7 load(1, XDATA, add(CFA_XSP16, literal(-14)))
        CFI (cfiCond221) V8 load(1, XDATA, add(CFA_XSP16, literal(-13)))
        CFI (cfiCond221) V9 load(1, XDATA, add(CFA_XSP16, literal(-12)))
        CFI (cfiCond221) V10 load(1, XDATA, add(CFA_XSP16, literal(-11)))
        CFI (cfiCond221) V11 load(1, XDATA, add(CFA_XSP16, literal(-10)))
        CFI (cfiCond221) V12 load(1, XDATA, add(CFA_XSP16, literal(-9)))
        CFI (cfiCond221) V13 load(1, XDATA, add(CFA_XSP16, literal(-8)))
        CFI (cfiCond221) V14 load(1, XDATA, add(CFA_XSP16, literal(-7)))
        CFI (cfiCond221) R7 load(1, XDATA, add(CFA_XSP16, literal(-6)))
        CFI (cfiCond221) ?RET_LOW load(1, XDATA, add(CFA_XSP16, literal(-5)))
        CFI (cfiCond221) ?RET_HIGH load(1, XDATA, add(CFA_XSP16, literal(-4)))
        CFI (cfiCond221) ?BRET_EXT load(1, XDATA, add(CFA_XSP16, literal(-3)))
        CFI (cfiCond221) DPL0 load(1, XDATA, add(CFA_XSP16, literal(-2)))
        CFI (cfiCond221) DPH0 load(1, XDATA, add(CFA_XSP16, literal(-1)))
        CFI (cfiCond221) CFA_SP SP+0
        CFI (cfiCond221) CFA_XSP16 add(XSP16, 23)
        CFI Block cfiCond222 Using cfiCommon0
        CFI (cfiCond222) NoFunction
        CFI (cfiCond222) Conditional ??CrossCallReturnLabel_125, ??CrossCallReturnLabel_121
        CFI (cfiCond222) R6 load(1, XDATA, add(CFA_XSP16, literal(-23)))
        CFI (cfiCond222) VB load(1, XDATA, add(CFA_XSP16, literal(-22)))
        CFI (cfiCond222) V0 load(1, XDATA, add(CFA_XSP16, literal(-21)))
        CFI (cfiCond222) V1 load(1, XDATA, add(CFA_XSP16, literal(-20)))
        CFI (cfiCond222) V2 load(1, XDATA, add(CFA_XSP16, literal(-19)))
        CFI (cfiCond222) V3 load(1, XDATA, add(CFA_XSP16, literal(-18)))
        CFI (cfiCond222) V4 load(1, XDATA, add(CFA_XSP16, literal(-17)))
        CFI (cfiCond222) V5 load(1, XDATA, add(CFA_XSP16, literal(-16)))
        CFI (cfiCond222) V6 load(1, XDATA, add(CFA_XSP16, literal(-15)))
        CFI (cfiCond222) V7 load(1, XDATA, add(CFA_XSP16, literal(-14)))
        CFI (cfiCond222) V8 load(1, XDATA, add(CFA_XSP16, literal(-13)))
        CFI (cfiCond222) V9 load(1, XDATA, add(CFA_XSP16, literal(-12)))
        CFI (cfiCond222) V10 load(1, XDATA, add(CFA_XSP16, literal(-11)))
        CFI (cfiCond222) V11 load(1, XDATA, add(CFA_XSP16, literal(-10)))
        CFI (cfiCond222) V12 load(1, XDATA, add(CFA_XSP16, literal(-9)))
        CFI (cfiCond222) V13 load(1, XDATA, add(CFA_XSP16, literal(-8)))
        CFI (cfiCond222) V14 load(1, XDATA, add(CFA_XSP16, literal(-7)))
        CFI (cfiCond222) R7 load(1, XDATA, add(CFA_XSP16, literal(-6)))
        CFI (cfiCond222) ?RET_LOW load(1, XDATA, add(CFA_XSP16, literal(-5)))
        CFI (cfiCond222) ?RET_HIGH load(1, XDATA, add(CFA_XSP16, literal(-4)))
        CFI (cfiCond222) ?BRET_EXT load(1, XDATA, add(CFA_XSP16, literal(-3)))
        CFI (cfiCond222) DPL0 load(1, XDATA, add(CFA_XSP16, literal(-2)))
        CFI (cfiCond222) DPH0 load(1, XDATA, add(CFA_XSP16, literal(-1)))
        CFI (cfiCond222) CFA_SP SP+0
        CFI (cfiCond222) CFA_XSP16 add(XSP16, 23)
        CFI Block cfiCond223 Using cfiCommon0
        CFI (cfiCond223) NoFunction
        CFI (cfiCond223) Conditional ??CrossCallReturnLabel_125, ??CrossCallReturnLabel_122
        CFI (cfiCond223) R6 load(1, XDATA, add(CFA_XSP16, literal(-23)))
        CFI (cfiCond223) VB load(1, XDATA, add(CFA_XSP16, literal(-22)))
        CFI (cfiCond223) V0 load(1, XDATA, add(CFA_XSP16, literal(-21)))
        CFI (cfiCond223) V1 load(1, XDATA, add(CFA_XSP16, literal(-20)))
        CFI (cfiCond223) V2 load(1, XDATA, add(CFA_XSP16, literal(-19)))
        CFI (cfiCond223) V3 load(1, XDATA, add(CFA_XSP16, literal(-18)))
        CFI (cfiCond223) V4 load(1, XDATA, add(CFA_XSP16, literal(-17)))
        CFI (cfiCond223) V5 load(1, XDATA, add(CFA_XSP16, literal(-16)))
        CFI (cfiCond223) V6 load(1, XDATA, add(CFA_XSP16, literal(-15)))
        CFI (cfiCond223) V7 load(1, XDATA, add(CFA_XSP16, literal(-14)))
        CFI (cfiCond223) V8 load(1, XDATA, add(CFA_XSP16, literal(-13)))
        CFI (cfiCond223) V9 load(1, XDATA, add(CFA_XSP16, literal(-12)))
        CFI (cfiCond223) V10 load(1, XDATA, add(CFA_XSP16, literal(-11)))
        CFI (cfiCond223) V11 load(1, XDATA, add(CFA_XSP16, literal(-10)))
        CFI (cfiCond223) V12 load(1, XDATA, add(CFA_XSP16, literal(-9)))
        CFI (cfiCond223) V13 load(1, XDATA, add(CFA_XSP16, literal(-8)))
        CFI (cfiCond223) V14 load(1, XDATA, add(CFA_XSP16, literal(-7)))
        CFI (cfiCond223) R7 load(1, XDATA, add(CFA_XSP16, literal(-6)))
        CFI (cfiCond223) ?RET_LOW load(1, XDATA, add(CFA_XSP16, literal(-5)))
        CFI (cfiCond223) ?RET_HIGH load(1, XDATA, add(CFA_XSP16, literal(-4)))
        CFI (cfiCond223) ?BRET_EXT load(1, XDATA, add(CFA_XSP16, literal(-3)))
        CFI (cfiCond223) DPL0 load(1, XDATA, add(CFA_XSP16, literal(-2)))
        CFI (cfiCond223) DPH0 load(1, XDATA, add(CFA_XSP16, literal(-1)))
        CFI (cfiCond223) CFA_SP SP+0
        CFI (cfiCond223) CFA_XSP16 add(XSP16, 23)
        CFI Block cfiPicker224 Using cfiCommon1
        CFI (cfiPicker224) NoFunction
        CFI (cfiPicker224) Picker
        LCALL   ?Subroutine45 & 0xFFFF
??CrossCallReturnLabel_127:
        INC     DPTR
        MOV     ?V0 + 2,DPL
        MOV     ?V0 + 3,DPH
        RET
        CFI EndBlock cfiCond211
        CFI EndBlock cfiCond212
        CFI EndBlock cfiCond213
        CFI EndBlock cfiCond214
        CFI EndBlock cfiCond215
        CFI EndBlock cfiCond216
        CFI EndBlock cfiCond217
        CFI EndBlock cfiCond218
        CFI EndBlock cfiCond219
        CFI EndBlock cfiCond220
        CFI EndBlock cfiCond221
        CFI EndBlock cfiCond222
        CFI EndBlock cfiCond223
        CFI EndBlock cfiPicker224

        RSEG BANKED_CODE:CODE:NOROOT(0)
?Subroutine2:
        CFI Block cfiCond225 Using cfiCommon0
        CFI NoFunction
        CFI Conditional ??CrossCallReturnLabel_112
        CFI R6 load(1, XDATA, add(CFA_XSP16, literal(-23)))
        CFI VB load(1, XDATA, add(CFA_XSP16, literal(-22)))
        CFI V0 load(1, XDATA, add(CFA_XSP16, literal(-21)))
        CFI V1 load(1, XDATA, add(CFA_XSP16, literal(-20)))
        CFI V2 load(1, XDATA, add(CFA_XSP16, literal(-19)))
        CFI V3 load(1, XDATA, add(CFA_XSP16, literal(-18)))
        CFI V4 load(1, XDATA, add(CFA_XSP16, literal(-17)))
        CFI V5 load(1, XDATA, add(CFA_XSP16, literal(-16)))
        CFI V6 load(1, XDATA, add(CFA_XSP16, literal(-15)))
        CFI V7 load(1, XDATA, add(CFA_XSP16, literal(-14)))
        CFI V8 load(1, XDATA, add(CFA_XSP16, literal(-13)))
        CFI V9 load(1, XDATA, add(CFA_XSP16, literal(-12)))
        CFI V10 load(1, XDATA, add(CFA_XSP16, literal(-11)))
        CFI V11 load(1, XDATA, add(CFA_XSP16, literal(-10)))
        CFI V12 load(1, XDATA, add(CFA_XSP16, literal(-9)))
        CFI V13 load(1, XDATA, add(CFA_XSP16, literal(-8)))
        CFI V14 load(1, XDATA, add(CFA_XSP16, literal(-7)))
        CFI R7 load(1, XDATA, add(CFA_XSP16, literal(-6)))
        CFI ?RET_LOW load(1, XDATA, add(CFA_XSP16, literal(-5)))
        CFI ?RET_HIGH load(1, XDATA, add(CFA_XSP16, literal(-4)))
        CFI ?BRET_EXT load(1, XDATA, add(CFA_XSP16, literal(-3)))
        CFI DPL0 load(1, XDATA, add(CFA_XSP16, literal(-2)))
        CFI DPH0 load(1, XDATA, add(CFA_XSP16, literal(-1)))
        CFI CFA_SP SP+0
        CFI CFA_XSP16 add(XSP16, 23)
        CFI Block cfiCond226 Using cfiCommon0
        CFI (cfiCond226) NoFunction
        CFI (cfiCond226) Conditional ??CrossCallReturnLabel_113
        CFI (cfiCond226) R6 load(1, XDATA, add(CFA_XSP16, literal(-23)))
        CFI (cfiCond226) VB load(1, XDATA, add(CFA_XSP16, literal(-22)))
        CFI (cfiCond226) V0 load(1, XDATA, add(CFA_XSP16, literal(-21)))
        CFI (cfiCond226) V1 load(1, XDATA, add(CFA_XSP16, literal(-20)))
        CFI (cfiCond226) V2 load(1, XDATA, add(CFA_XSP16, literal(-19)))
        CFI (cfiCond226) V3 load(1, XDATA, add(CFA_XSP16, literal(-18)))
        CFI (cfiCond226) V4 load(1, XDATA, add(CFA_XSP16, literal(-17)))
        CFI (cfiCond226) V5 load(1, XDATA, add(CFA_XSP16, literal(-16)))
        CFI (cfiCond226) V6 load(1, XDATA, add(CFA_XSP16, literal(-15)))
        CFI (cfiCond226) V7 load(1, XDATA, add(CFA_XSP16, literal(-14)))
        CFI (cfiCond226) V8 load(1, XDATA, add(CFA_XSP16, literal(-13)))
        CFI (cfiCond226) V9 load(1, XDATA, add(CFA_XSP16, literal(-12)))
        CFI (cfiCond226) V10 load(1, XDATA, add(CFA_XSP16, literal(-11)))
        CFI (cfiCond226) V11 load(1, XDATA, add(CFA_XSP16, literal(-10)))
        CFI (cfiCond226) V12 load(1, XDATA, add(CFA_XSP16, literal(-9)))
        CFI (cfiCond226) V13 load(1, XDATA, add(CFA_XSP16, literal(-8)))
        CFI (cfiCond226) V14 load(1, XDATA, add(CFA_XSP16, literal(-7)))
        CFI (cfiCond226) R7 load(1, XDATA, add(CFA_XSP16, literal(-6)))
        CFI (cfiCond226) ?RET_LOW load(1, XDATA, add(CFA_XSP16, literal(-5)))
        CFI (cfiCond226) ?RET_HIGH load(1, XDATA, add(CFA_XSP16, literal(-4)))
        CFI (cfiCond226) ?BRET_EXT load(1, XDATA, add(CFA_XSP16, literal(-3)))
        CFI (cfiCond226) DPL0 load(1, XDATA, add(CFA_XSP16, literal(-2)))
        CFI (cfiCond226) DPH0 load(1, XDATA, add(CFA_XSP16, literal(-1)))
        CFI (cfiCond226) CFA_SP SP+0
        CFI (cfiCond226) CFA_XSP16 add(XSP16, 23)
        CFI Block cfiPicker227 Using cfiCommon1
        CFI (cfiPicker227) NoFunction
        CFI (cfiPicker227) Picker
        INC     R0
        INC     R0
        CFI EndBlock cfiCond225
        CFI EndBlock cfiCond226
        CFI EndBlock cfiPicker227
        REQUIRE ??Subroutine56_0
        ; // Fall through to label ??Subroutine56_0

        RSEG BANKED_CODE:CODE:NOROOT(0)
??Subroutine56_0:
        CFI Block cfiCond228 Using cfiCommon0
        CFI NoFunction
        CFI Conditional ??CrossCallReturnLabel_114
        CFI R6 load(1, XDATA, add(CFA_XSP16, literal(-23)))
        CFI VB load(1, XDATA, add(CFA_XSP16, literal(-22)))
        CFI V0 load(1, XDATA, add(CFA_XSP16, literal(-21)))
        CFI V1 load(1, XDATA, add(CFA_XSP16, literal(-20)))
        CFI V2 load(1, XDATA, add(CFA_XSP16, literal(-19)))
        CFI V3 load(1, XDATA, add(CFA_XSP16, literal(-18)))
        CFI V4 load(1, XDATA, add(CFA_XSP16, literal(-17)))
        CFI V5 load(1, XDATA, add(CFA_XSP16, literal(-16)))
        CFI V6 load(1, XDATA, add(CFA_XSP16, literal(-15)))
        CFI V7 load(1, XDATA, add(CFA_XSP16, literal(-14)))
        CFI V8 load(1, XDATA, add(CFA_XSP16, literal(-13)))
        CFI V9 load(1, XDATA, add(CFA_XSP16, literal(-12)))
        CFI V10 load(1, XDATA, add(CFA_XSP16, literal(-11)))
        CFI V11 load(1, XDATA, add(CFA_XSP16, literal(-10)))
        CFI V12 load(1, XDATA, add(CFA_XSP16, literal(-9)))
        CFI V13 load(1, XDATA, add(CFA_XSP16, literal(-8)))
        CFI V14 load(1, XDATA, add(CFA_XSP16, literal(-7)))
        CFI R7 load(1, XDATA, add(CFA_XSP16, literal(-6)))
        CFI ?RET_LOW load(1, XDATA, add(CFA_XSP16, literal(-5)))
        CFI ?RET_HIGH load(1, XDATA, add(CFA_XSP16, literal(-4)))
        CFI ?BRET_EXT load(1, XDATA, add(CFA_XSP16, literal(-3)))
        CFI DPL0 load(1, XDATA, add(CFA_XSP16, literal(-2)))
        CFI DPH0 load(1, XDATA, add(CFA_XSP16, literal(-1)))
        CFI CFA_SP SP+0
        CFI CFA_XSP16 add(XSP16, 23)
        CFI Block cfiCond229 Using cfiCommon0
        CFI (cfiCond229) NoFunction
        CFI (cfiCond229) Conditional ??CrossCallReturnLabel_112
        CFI (cfiCond229) R6 load(1, XDATA, add(CFA_XSP16, literal(-23)))
        CFI (cfiCond229) VB load(1, XDATA, add(CFA_XSP16, literal(-22)))
        CFI (cfiCond229) V0 load(1, XDATA, add(CFA_XSP16, literal(-21)))
        CFI (cfiCond229) V1 load(1, XDATA, add(CFA_XSP16, literal(-20)))
        CFI (cfiCond229) V2 load(1, XDATA, add(CFA_XSP16, literal(-19)))
        CFI (cfiCond229) V3 load(1, XDATA, add(CFA_XSP16, literal(-18)))
        CFI (cfiCond229) V4 load(1, XDATA, add(CFA_XSP16, literal(-17)))
        CFI (cfiCond229) V5 load(1, XDATA, add(CFA_XSP16, literal(-16)))
        CFI (cfiCond229) V6 load(1, XDATA, add(CFA_XSP16, literal(-15)))
        CFI (cfiCond229) V7 load(1, XDATA, add(CFA_XSP16, literal(-14)))
        CFI (cfiCond229) V8 load(1, XDATA, add(CFA_XSP16, literal(-13)))
        CFI (cfiCond229) V9 load(1, XDATA, add(CFA_XSP16, literal(-12)))
        CFI (cfiCond229) V10 load(1, XDATA, add(CFA_XSP16, literal(-11)))
        CFI (cfiCond229) V11 load(1, XDATA, add(CFA_XSP16, literal(-10)))
        CFI (cfiCond229) V12 load(1, XDATA, add(CFA_XSP16, literal(-9)))
        CFI (cfiCond229) V13 load(1, XDATA, add(CFA_XSP16, literal(-8)))
        CFI (cfiCond229) V14 load(1, XDATA, add(CFA_XSP16, literal(-7)))
        CFI (cfiCond229) R7 load(1, XDATA, add(CFA_XSP16, literal(-6)))
        CFI (cfiCond229) ?RET_LOW load(1, XDATA, add(CFA_XSP16, literal(-5)))
        CFI (cfiCond229) ?RET_HIGH load(1, XDATA, add(CFA_XSP16, literal(-4)))
        CFI (cfiCond229) ?BRET_EXT load(1, XDATA, add(CFA_XSP16, literal(-3)))
        CFI (cfiCond229) DPL0 load(1, XDATA, add(CFA_XSP16, literal(-2)))
        CFI (cfiCond229) DPH0 load(1, XDATA, add(CFA_XSP16, literal(-1)))
        CFI (cfiCond229) CFA_SP SP+0
        CFI (cfiCond229) CFA_XSP16 add(XSP16, 23)
        CFI Block cfiCond230 Using cfiCommon0
        CFI (cfiCond230) NoFunction
        CFI (cfiCond230) Conditional ??CrossCallReturnLabel_113
        CFI (cfiCond230) R6 load(1, XDATA, add(CFA_XSP16, literal(-23)))
        CFI (cfiCond230) VB load(1, XDATA, add(CFA_XSP16, literal(-22)))
        CFI (cfiCond230) V0 load(1, XDATA, add(CFA_XSP16, literal(-21)))
        CFI (cfiCond230) V1 load(1, XDATA, add(CFA_XSP16, literal(-20)))
        CFI (cfiCond230) V2 load(1, XDATA, add(CFA_XSP16, literal(-19)))
        CFI (cfiCond230) V3 load(1, XDATA, add(CFA_XSP16, literal(-18)))
        CFI (cfiCond230) V4 load(1, XDATA, add(CFA_XSP16, literal(-17)))
        CFI (cfiCond230) V5 load(1, XDATA, add(CFA_XSP16, literal(-16)))
        CFI (cfiCond230) V6 load(1, XDATA, add(CFA_XSP16, literal(-15)))
        CFI (cfiCond230) V7 load(1, XDATA, add(CFA_XSP16, literal(-14)))
        CFI (cfiCond230) V8 load(1, XDATA, add(CFA_XSP16, literal(-13)))
        CFI (cfiCond230) V9 load(1, XDATA, add(CFA_XSP16, literal(-12)))
        CFI (cfiCond230) V10 load(1, XDATA, add(CFA_XSP16, literal(-11)))
        CFI (cfiCond230) V11 load(1, XDATA, add(CFA_XSP16, literal(-10)))
        CFI (cfiCond230) V12 load(1, XDATA, add(CFA_XSP16, literal(-9)))
        CFI (cfiCond230) V13 load(1, XDATA, add(CFA_XSP16, literal(-8)))
        CFI (cfiCond230) V14 load(1, XDATA, add(CFA_XSP16, literal(-7)))
        CFI (cfiCond230) R7 load(1, XDATA, add(CFA_XSP16, literal(-6)))
        CFI (cfiCond230) ?RET_LOW load(1, XDATA, add(CFA_XSP16, literal(-5)))
        CFI (cfiCond230) ?RET_HIGH load(1, XDATA, add(CFA_XSP16, literal(-4)))
        CFI (cfiCond230) ?BRET_EXT load(1, XDATA, add(CFA_XSP16, literal(-3)))
        CFI (cfiCond230) DPL0 load(1, XDATA, add(CFA_XSP16, literal(-2)))
        CFI (cfiCond230) DPH0 load(1, XDATA, add(CFA_XSP16, literal(-1)))
        CFI (cfiCond230) CFA_SP SP+0
        CFI (cfiCond230) CFA_XSP16 add(XSP16, 23)
        CFI Block cfiPicker231 Using cfiCommon1
        CFI (cfiPicker231) NoFunction
        CFI (cfiPicker231) Picker
        MOV     A,?V0 + 9
        LCALL   ?Subroutine46 & 0xFFFF
??CrossCallReturnLabel_151:
        LCALL   ?Subroutine37 & 0xFFFF
??CrossCallReturnLabel_124:
        MOV     DPL,R0
        MOV     DPH,R1
        INC     DPTR
        RET
        CFI EndBlock cfiCond228
        CFI EndBlock cfiCond229
        CFI EndBlock cfiCond230
        CFI EndBlock cfiPicker231

        RSEG BANKED_CODE:CODE:NOROOT(0)
?Subroutine1:
        CFI Block cfiCond232 Using cfiCommon0
        CFI NoFunction
        CFI Conditional ??CrossCallReturnLabel_115
        CFI R6 load(1, XDATA, add(CFA_XSP16, literal(-23)))
        CFI VB load(1, XDATA, add(CFA_XSP16, literal(-22)))
        CFI V0 load(1, XDATA, add(CFA_XSP16, literal(-21)))
        CFI V1 load(1, XDATA, add(CFA_XSP16, literal(-20)))
        CFI V2 load(1, XDATA, add(CFA_XSP16, literal(-19)))
        CFI V3 load(1, XDATA, add(CFA_XSP16, literal(-18)))
        CFI V4 load(1, XDATA, add(CFA_XSP16, literal(-17)))
        CFI V5 load(1, XDATA, add(CFA_XSP16, literal(-16)))
        CFI V6 load(1, XDATA, add(CFA_XSP16, literal(-15)))
        CFI V7 load(1, XDATA, add(CFA_XSP16, literal(-14)))
        CFI V8 load(1, XDATA, add(CFA_XSP16, literal(-13)))
        CFI V9 load(1, XDATA, add(CFA_XSP16, literal(-12)))
        CFI V10 load(1, XDATA, add(CFA_XSP16, literal(-11)))
        CFI V11 load(1, XDATA, add(CFA_XSP16, literal(-10)))
        CFI V12 load(1, XDATA, add(CFA_XSP16, literal(-9)))
        CFI V13 load(1, XDATA, add(CFA_XSP16, literal(-8)))
        CFI V14 load(1, XDATA, add(CFA_XSP16, literal(-7)))
        CFI R7 load(1, XDATA, add(CFA_XSP16, literal(-6)))
        CFI ?RET_LOW load(1, XDATA, add(CFA_XSP16, literal(-5)))
        CFI ?RET_HIGH load(1, XDATA, add(CFA_XSP16, literal(-4)))
        CFI ?BRET_EXT load(1, XDATA, add(CFA_XSP16, literal(-3)))
        CFI DPL0 load(1, XDATA, add(CFA_XSP16, literal(-2)))
        CFI DPH0 load(1, XDATA, add(CFA_XSP16, literal(-1)))
        CFI CFA_SP SP+0
        CFI CFA_XSP16 add(XSP16, 23)
        CFI Block cfiCond233 Using cfiCommon0
        CFI (cfiCond233) NoFunction
        CFI (cfiCond233) Conditional ??CrossCallReturnLabel_116
        CFI (cfiCond233) R6 load(1, XDATA, add(CFA_XSP16, literal(-23)))
        CFI (cfiCond233) VB load(1, XDATA, add(CFA_XSP16, literal(-22)))
        CFI (cfiCond233) V0 load(1, XDATA, add(CFA_XSP16, literal(-21)))
        CFI (cfiCond233) V1 load(1, XDATA, add(CFA_XSP16, literal(-20)))
        CFI (cfiCond233) V2 load(1, XDATA, add(CFA_XSP16, literal(-19)))
        CFI (cfiCond233) V3 load(1, XDATA, add(CFA_XSP16, literal(-18)))
        CFI (cfiCond233) V4 load(1, XDATA, add(CFA_XSP16, literal(-17)))
        CFI (cfiCond233) V5 load(1, XDATA, add(CFA_XSP16, literal(-16)))
        CFI (cfiCond233) V6 load(1, XDATA, add(CFA_XSP16, literal(-15)))
        CFI (cfiCond233) V7 load(1, XDATA, add(CFA_XSP16, literal(-14)))
        CFI (cfiCond233) V8 load(1, XDATA, add(CFA_XSP16, literal(-13)))
        CFI (cfiCond233) V9 load(1, XDATA, add(CFA_XSP16, literal(-12)))
        CFI (cfiCond233) V10 load(1, XDATA, add(CFA_XSP16, literal(-11)))
        CFI (cfiCond233) V11 load(1, XDATA, add(CFA_XSP16, literal(-10)))
        CFI (cfiCond233) V12 load(1, XDATA, add(CFA_XSP16, literal(-9)))
        CFI (cfiCond233) V13 load(1, XDATA, add(CFA_XSP16, literal(-8)))
        CFI (cfiCond233) V14 load(1, XDATA, add(CFA_XSP16, literal(-7)))
        CFI (cfiCond233) R7 load(1, XDATA, add(CFA_XSP16, literal(-6)))
        CFI (cfiCond233) ?RET_LOW load(1, XDATA, add(CFA_XSP16, literal(-5)))
        CFI (cfiCond233) ?RET_HIGH load(1, XDATA, add(CFA_XSP16, literal(-4)))
        CFI (cfiCond233) ?BRET_EXT load(1, XDATA, add(CFA_XSP16, literal(-3)))
        CFI (cfiCond233) DPL0 load(1, XDATA, add(CFA_XSP16, literal(-2)))
        CFI (cfiCond233) DPH0 load(1, XDATA, add(CFA_XSP16, literal(-1)))
        CFI (cfiCond233) CFA_SP SP+0
        CFI (cfiCond233) CFA_XSP16 add(XSP16, 23)
        CFI Block cfiCond234 Using cfiCommon0
        CFI (cfiCond234) NoFunction
        CFI (cfiCond234) Conditional ??CrossCallReturnLabel_117
        CFI (cfiCond234) R6 load(1, XDATA, add(CFA_XSP16, literal(-23)))
        CFI (cfiCond234) VB load(1, XDATA, add(CFA_XSP16, literal(-22)))
        CFI (cfiCond234) V0 load(1, XDATA, add(CFA_XSP16, literal(-21)))
        CFI (cfiCond234) V1 load(1, XDATA, add(CFA_XSP16, literal(-20)))
        CFI (cfiCond234) V2 load(1, XDATA, add(CFA_XSP16, literal(-19)))
        CFI (cfiCond234) V3 load(1, XDATA, add(CFA_XSP16, literal(-18)))
        CFI (cfiCond234) V4 load(1, XDATA, add(CFA_XSP16, literal(-17)))
        CFI (cfiCond234) V5 load(1, XDATA, add(CFA_XSP16, literal(-16)))
        CFI (cfiCond234) V6 load(1, XDATA, add(CFA_XSP16, literal(-15)))
        CFI (cfiCond234) V7 load(1, XDATA, add(CFA_XSP16, literal(-14)))
        CFI (cfiCond234) V8 load(1, XDATA, add(CFA_XSP16, literal(-13)))
        CFI (cfiCond234) V9 load(1, XDATA, add(CFA_XSP16, literal(-12)))
        CFI (cfiCond234) V10 load(1, XDATA, add(CFA_XSP16, literal(-11)))
        CFI (cfiCond234) V11 load(1, XDATA, add(CFA_XSP16, literal(-10)))
        CFI (cfiCond234) V12 load(1, XDATA, add(CFA_XSP16, literal(-9)))
        CFI (cfiCond234) V13 load(1, XDATA, add(CFA_XSP16, literal(-8)))
        CFI (cfiCond234) V14 load(1, XDATA, add(CFA_XSP16, literal(-7)))
        CFI (cfiCond234) R7 load(1, XDATA, add(CFA_XSP16, literal(-6)))
        CFI (cfiCond234) ?RET_LOW load(1, XDATA, add(CFA_XSP16, literal(-5)))
        CFI (cfiCond234) ?RET_HIGH load(1, XDATA, add(CFA_XSP16, literal(-4)))
        CFI (cfiCond234) ?BRET_EXT load(1, XDATA, add(CFA_XSP16, literal(-3)))
        CFI (cfiCond234) DPL0 load(1, XDATA, add(CFA_XSP16, literal(-2)))
        CFI (cfiCond234) DPH0 load(1, XDATA, add(CFA_XSP16, literal(-1)))
        CFI (cfiCond234) CFA_SP SP+0
        CFI (cfiCond234) CFA_XSP16 add(XSP16, 23)
        CFI Block cfiCond235 Using cfiCommon0
        CFI (cfiCond235) NoFunction
        CFI (cfiCond235) Conditional ??CrossCallReturnLabel_118
        CFI (cfiCond235) R6 load(1, XDATA, add(CFA_XSP16, literal(-23)))
        CFI (cfiCond235) VB load(1, XDATA, add(CFA_XSP16, literal(-22)))
        CFI (cfiCond235) V0 load(1, XDATA, add(CFA_XSP16, literal(-21)))
        CFI (cfiCond235) V1 load(1, XDATA, add(CFA_XSP16, literal(-20)))
        CFI (cfiCond235) V2 load(1, XDATA, add(CFA_XSP16, literal(-19)))
        CFI (cfiCond235) V3 load(1, XDATA, add(CFA_XSP16, literal(-18)))
        CFI (cfiCond235) V4 load(1, XDATA, add(CFA_XSP16, literal(-17)))
        CFI (cfiCond235) V5 load(1, XDATA, add(CFA_XSP16, literal(-16)))
        CFI (cfiCond235) V6 load(1, XDATA, add(CFA_XSP16, literal(-15)))
        CFI (cfiCond235) V7 load(1, XDATA, add(CFA_XSP16, literal(-14)))
        CFI (cfiCond235) V8 load(1, XDATA, add(CFA_XSP16, literal(-13)))
        CFI (cfiCond235) V9 load(1, XDATA, add(CFA_XSP16, literal(-12)))
        CFI (cfiCond235) V10 load(1, XDATA, add(CFA_XSP16, literal(-11)))
        CFI (cfiCond235) V11 load(1, XDATA, add(CFA_XSP16, literal(-10)))
        CFI (cfiCond235) V12 load(1, XDATA, add(CFA_XSP16, literal(-9)))
        CFI (cfiCond235) V13 load(1, XDATA, add(CFA_XSP16, literal(-8)))
        CFI (cfiCond235) V14 load(1, XDATA, add(CFA_XSP16, literal(-7)))
        CFI (cfiCond235) R7 load(1, XDATA, add(CFA_XSP16, literal(-6)))
        CFI (cfiCond235) ?RET_LOW load(1, XDATA, add(CFA_XSP16, literal(-5)))
        CFI (cfiCond235) ?RET_HIGH load(1, XDATA, add(CFA_XSP16, literal(-4)))
        CFI (cfiCond235) ?BRET_EXT load(1, XDATA, add(CFA_XSP16, literal(-3)))
        CFI (cfiCond235) DPL0 load(1, XDATA, add(CFA_XSP16, literal(-2)))
        CFI (cfiCond235) DPH0 load(1, XDATA, add(CFA_XSP16, literal(-1)))
        CFI (cfiCond235) CFA_SP SP+0
        CFI (cfiCond235) CFA_XSP16 add(XSP16, 23)
        CFI Block cfiCond236 Using cfiCommon0
        CFI (cfiCond236) NoFunction
        CFI (cfiCond236) Conditional ??CrossCallReturnLabel_119
        CFI (cfiCond236) R6 load(1, XDATA, add(CFA_XSP16, literal(-23)))
        CFI (cfiCond236) VB load(1, XDATA, add(CFA_XSP16, literal(-22)))
        CFI (cfiCond236) V0 load(1, XDATA, add(CFA_XSP16, literal(-21)))
        CFI (cfiCond236) V1 load(1, XDATA, add(CFA_XSP16, literal(-20)))
        CFI (cfiCond236) V2 load(1, XDATA, add(CFA_XSP16, literal(-19)))
        CFI (cfiCond236) V3 load(1, XDATA, add(CFA_XSP16, literal(-18)))
        CFI (cfiCond236) V4 load(1, XDATA, add(CFA_XSP16, literal(-17)))
        CFI (cfiCond236) V5 load(1, XDATA, add(CFA_XSP16, literal(-16)))
        CFI (cfiCond236) V6 load(1, XDATA, add(CFA_XSP16, literal(-15)))
        CFI (cfiCond236) V7 load(1, XDATA, add(CFA_XSP16, literal(-14)))
        CFI (cfiCond236) V8 load(1, XDATA, add(CFA_XSP16, literal(-13)))
        CFI (cfiCond236) V9 load(1, XDATA, add(CFA_XSP16, literal(-12)))
        CFI (cfiCond236) V10 load(1, XDATA, add(CFA_XSP16, literal(-11)))
        CFI (cfiCond236) V11 load(1, XDATA, add(CFA_XSP16, literal(-10)))
        CFI (cfiCond236) V12 load(1, XDATA, add(CFA_XSP16, literal(-9)))
        CFI (cfiCond236) V13 load(1, XDATA, add(CFA_XSP16, literal(-8)))
        CFI (cfiCond236) V14 load(1, XDATA, add(CFA_XSP16, literal(-7)))
        CFI (cfiCond236) R7 load(1, XDATA, add(CFA_XSP16, literal(-6)))
        CFI (cfiCond236) ?RET_LOW load(1, XDATA, add(CFA_XSP16, literal(-5)))
        CFI (cfiCond236) ?RET_HIGH load(1, XDATA, add(CFA_XSP16, literal(-4)))
        CFI (cfiCond236) ?BRET_EXT load(1, XDATA, add(CFA_XSP16, literal(-3)))
        CFI (cfiCond236) DPL0 load(1, XDATA, add(CFA_XSP16, literal(-2)))
        CFI (cfiCond236) DPH0 load(1, XDATA, add(CFA_XSP16, literal(-1)))
        CFI (cfiCond236) CFA_SP SP+0
        CFI (cfiCond236) CFA_XSP16 add(XSP16, 23)
        CFI Block cfiPicker237 Using cfiCommon1
        CFI (cfiPicker237) NoFunction
        CFI (cfiPicker237) Picker
        LCALL   ?Subroutine43 & 0xFFFF
        CFI EndBlock cfiCond232
        CFI EndBlock cfiCond233
        CFI EndBlock cfiCond234
        CFI EndBlock cfiCond235
        CFI EndBlock cfiCond236
        CFI EndBlock cfiPicker237
??CrossCallReturnLabel_109:
        REQUIRE ??Subroutine57_0
        ; // Fall through to label ??Subroutine57_0

        RSEG BANKED_CODE:CODE:NOROOT(0)
??Subroutine57_0:
        CFI Block cfiCond238 Using cfiCommon0
        CFI NoFunction
        CFI Conditional ??CrossCallReturnLabel_120
        CFI R6 load(1, XDATA, add(CFA_XSP16, literal(-23)))
        CFI VB load(1, XDATA, add(CFA_XSP16, literal(-22)))
        CFI V0 load(1, XDATA, add(CFA_XSP16, literal(-21)))
        CFI V1 load(1, XDATA, add(CFA_XSP16, literal(-20)))
        CFI V2 load(1, XDATA, add(CFA_XSP16, literal(-19)))
        CFI V3 load(1, XDATA, add(CFA_XSP16, literal(-18)))
        CFI V4 load(1, XDATA, add(CFA_XSP16, literal(-17)))
        CFI V5 load(1, XDATA, add(CFA_XSP16, literal(-16)))
        CFI V6 load(1, XDATA, add(CFA_XSP16, literal(-15)))
        CFI V7 load(1, XDATA, add(CFA_XSP16, literal(-14)))
        CFI V8 load(1, XDATA, add(CFA_XSP16, literal(-13)))
        CFI V9 load(1, XDATA, add(CFA_XSP16, literal(-12)))
        CFI V10 load(1, XDATA, add(CFA_XSP16, literal(-11)))
        CFI V11 load(1, XDATA, add(CFA_XSP16, literal(-10)))
        CFI V12 load(1, XDATA, add(CFA_XSP16, literal(-9)))
        CFI V13 load(1, XDATA, add(CFA_XSP16, literal(-8)))
        CFI V14 load(1, XDATA, add(CFA_XSP16, literal(-7)))
        CFI R7 load(1, XDATA, add(CFA_XSP16, literal(-6)))
        CFI ?RET_LOW load(1, XDATA, add(CFA_XSP16, literal(-5)))
        CFI ?RET_HIGH load(1, XDATA, add(CFA_XSP16, literal(-4)))
        CFI ?BRET_EXT load(1, XDATA, add(CFA_XSP16, literal(-3)))
        CFI DPL0 load(1, XDATA, add(CFA_XSP16, literal(-2)))
        CFI DPH0 load(1, XDATA, add(CFA_XSP16, literal(-1)))
        CFI CFA_SP SP+0
        CFI CFA_XSP16 add(XSP16, 23)
        CFI Block cfiCond239 Using cfiCommon0
        CFI (cfiCond239) NoFunction
        CFI (cfiCond239) Conditional ??CrossCallReturnLabel_121
        CFI (cfiCond239) R6 load(1, XDATA, add(CFA_XSP16, literal(-23)))
        CFI (cfiCond239) VB load(1, XDATA, add(CFA_XSP16, literal(-22)))
        CFI (cfiCond239) V0 load(1, XDATA, add(CFA_XSP16, literal(-21)))
        CFI (cfiCond239) V1 load(1, XDATA, add(CFA_XSP16, literal(-20)))
        CFI (cfiCond239) V2 load(1, XDATA, add(CFA_XSP16, literal(-19)))
        CFI (cfiCond239) V3 load(1, XDATA, add(CFA_XSP16, literal(-18)))
        CFI (cfiCond239) V4 load(1, XDATA, add(CFA_XSP16, literal(-17)))
        CFI (cfiCond239) V5 load(1, XDATA, add(CFA_XSP16, literal(-16)))
        CFI (cfiCond239) V6 load(1, XDATA, add(CFA_XSP16, literal(-15)))
        CFI (cfiCond239) V7 load(1, XDATA, add(CFA_XSP16, literal(-14)))
        CFI (cfiCond239) V8 load(1, XDATA, add(CFA_XSP16, literal(-13)))
        CFI (cfiCond239) V9 load(1, XDATA, add(CFA_XSP16, literal(-12)))
        CFI (cfiCond239) V10 load(1, XDATA, add(CFA_XSP16, literal(-11)))
        CFI (cfiCond239) V11 load(1, XDATA, add(CFA_XSP16, literal(-10)))
        CFI (cfiCond239) V12 load(1, XDATA, add(CFA_XSP16, literal(-9)))
        CFI (cfiCond239) V13 load(1, XDATA, add(CFA_XSP16, literal(-8)))
        CFI (cfiCond239) V14 load(1, XDATA, add(CFA_XSP16, literal(-7)))
        CFI (cfiCond239) R7 load(1, XDATA, add(CFA_XSP16, literal(-6)))
        CFI (cfiCond239) ?RET_LOW load(1, XDATA, add(CFA_XSP16, literal(-5)))
        CFI (cfiCond239) ?RET_HIGH load(1, XDATA, add(CFA_XSP16, literal(-4)))
        CFI (cfiCond239) ?BRET_EXT load(1, XDATA, add(CFA_XSP16, literal(-3)))
        CFI (cfiCond239) DPL0 load(1, XDATA, add(CFA_XSP16, literal(-2)))
        CFI (cfiCond239) DPH0 load(1, XDATA, add(CFA_XSP16, literal(-1)))
        CFI (cfiCond239) CFA_SP SP+0
        CFI (cfiCond239) CFA_XSP16 add(XSP16, 23)
        CFI Block cfiCond240 Using cfiCommon0
        CFI (cfiCond240) NoFunction
        CFI (cfiCond240) Conditional ??CrossCallReturnLabel_122
        CFI (cfiCond240) R6 load(1, XDATA, add(CFA_XSP16, literal(-23)))
        CFI (cfiCond240) VB load(1, XDATA, add(CFA_XSP16, literal(-22)))
        CFI (cfiCond240) V0 load(1, XDATA, add(CFA_XSP16, literal(-21)))
        CFI (cfiCond240) V1 load(1, XDATA, add(CFA_XSP16, literal(-20)))
        CFI (cfiCond240) V2 load(1, XDATA, add(CFA_XSP16, literal(-19)))
        CFI (cfiCond240) V3 load(1, XDATA, add(CFA_XSP16, literal(-18)))
        CFI (cfiCond240) V4 load(1, XDATA, add(CFA_XSP16, literal(-17)))
        CFI (cfiCond240) V5 load(1, XDATA, add(CFA_XSP16, literal(-16)))
        CFI (cfiCond240) V6 load(1, XDATA, add(CFA_XSP16, literal(-15)))
        CFI (cfiCond240) V7 load(1, XDATA, add(CFA_XSP16, literal(-14)))
        CFI (cfiCond240) V8 load(1, XDATA, add(CFA_XSP16, literal(-13)))
        CFI (cfiCond240) V9 load(1, XDATA, add(CFA_XSP16, literal(-12)))
        CFI (cfiCond240) V10 load(1, XDATA, add(CFA_XSP16, literal(-11)))
        CFI (cfiCond240) V11 load(1, XDATA, add(CFA_XSP16, literal(-10)))
        CFI (cfiCond240) V12 load(1, XDATA, add(CFA_XSP16, literal(-9)))
        CFI (cfiCond240) V13 load(1, XDATA, add(CFA_XSP16, literal(-8)))
        CFI (cfiCond240) V14 load(1, XDATA, add(CFA_XSP16, literal(-7)))
        CFI (cfiCond240) R7 load(1, XDATA, add(CFA_XSP16, literal(-6)))
        CFI (cfiCond240) ?RET_LOW load(1, XDATA, add(CFA_XSP16, literal(-5)))
        CFI (cfiCond240) ?RET_HIGH load(1, XDATA, add(CFA_XSP16, literal(-4)))
        CFI (cfiCond240) ?BRET_EXT load(1, XDATA, add(CFA_XSP16, literal(-3)))
        CFI (cfiCond240) DPL0 load(1, XDATA, add(CFA_XSP16, literal(-2)))
        CFI (cfiCond240) DPH0 load(1, XDATA, add(CFA_XSP16, literal(-1)))
        CFI (cfiCond240) CFA_SP SP+0
        CFI (cfiCond240) CFA_XSP16 add(XSP16, 23)
        CFI Block cfiCond241 Using cfiCommon0
        CFI (cfiCond241) NoFunction
        CFI (cfiCond241) Conditional ??CrossCallReturnLabel_115
        CFI (cfiCond241) R6 load(1, XDATA, add(CFA_XSP16, literal(-23)))
        CFI (cfiCond241) VB load(1, XDATA, add(CFA_XSP16, literal(-22)))
        CFI (cfiCond241) V0 load(1, XDATA, add(CFA_XSP16, literal(-21)))
        CFI (cfiCond241) V1 load(1, XDATA, add(CFA_XSP16, literal(-20)))
        CFI (cfiCond241) V2 load(1, XDATA, add(CFA_XSP16, literal(-19)))
        CFI (cfiCond241) V3 load(1, XDATA, add(CFA_XSP16, literal(-18)))
        CFI (cfiCond241) V4 load(1, XDATA, add(CFA_XSP16, literal(-17)))
        CFI (cfiCond241) V5 load(1, XDATA, add(CFA_XSP16, literal(-16)))
        CFI (cfiCond241) V6 load(1, XDATA, add(CFA_XSP16, literal(-15)))
        CFI (cfiCond241) V7 load(1, XDATA, add(CFA_XSP16, literal(-14)))
        CFI (cfiCond241) V8 load(1, XDATA, add(CFA_XSP16, literal(-13)))
        CFI (cfiCond241) V9 load(1, XDATA, add(CFA_XSP16, literal(-12)))
        CFI (cfiCond241) V10 load(1, XDATA, add(CFA_XSP16, literal(-11)))
        CFI (cfiCond241) V11 load(1, XDATA, add(CFA_XSP16, literal(-10)))
        CFI (cfiCond241) V12 load(1, XDATA, add(CFA_XSP16, literal(-9)))
        CFI (cfiCond241) V13 load(1, XDATA, add(CFA_XSP16, literal(-8)))
        CFI (cfiCond241) V14 load(1, XDATA, add(CFA_XSP16, literal(-7)))
        CFI (cfiCond241) R7 load(1, XDATA, add(CFA_XSP16, literal(-6)))
        CFI (cfiCond241) ?RET_LOW load(1, XDATA, add(CFA_XSP16, literal(-5)))
        CFI (cfiCond241) ?RET_HIGH load(1, XDATA, add(CFA_XSP16, literal(-4)))
        CFI (cfiCond241) ?BRET_EXT load(1, XDATA, add(CFA_XSP16, literal(-3)))
        CFI (cfiCond241) DPL0 load(1, XDATA, add(CFA_XSP16, literal(-2)))
        CFI (cfiCond241) DPH0 load(1, XDATA, add(CFA_XSP16, literal(-1)))
        CFI (cfiCond241) CFA_SP SP+0
        CFI (cfiCond241) CFA_XSP16 add(XSP16, 23)
        CFI Block cfiCond242 Using cfiCommon0
        CFI (cfiCond242) NoFunction
        CFI (cfiCond242) Conditional ??CrossCallReturnLabel_116
        CFI (cfiCond242) R6 load(1, XDATA, add(CFA_XSP16, literal(-23)))
        CFI (cfiCond242) VB load(1, XDATA, add(CFA_XSP16, literal(-22)))
        CFI (cfiCond242) V0 load(1, XDATA, add(CFA_XSP16, literal(-21)))
        CFI (cfiCond242) V1 load(1, XDATA, add(CFA_XSP16, literal(-20)))
        CFI (cfiCond242) V2 load(1, XDATA, add(CFA_XSP16, literal(-19)))
        CFI (cfiCond242) V3 load(1, XDATA, add(CFA_XSP16, literal(-18)))
        CFI (cfiCond242) V4 load(1, XDATA, add(CFA_XSP16, literal(-17)))
        CFI (cfiCond242) V5 load(1, XDATA, add(CFA_XSP16, literal(-16)))
        CFI (cfiCond242) V6 load(1, XDATA, add(CFA_XSP16, literal(-15)))
        CFI (cfiCond242) V7 load(1, XDATA, add(CFA_XSP16, literal(-14)))
        CFI (cfiCond242) V8 load(1, XDATA, add(CFA_XSP16, literal(-13)))
        CFI (cfiCond242) V9 load(1, XDATA, add(CFA_XSP16, literal(-12)))
        CFI (cfiCond242) V10 load(1, XDATA, add(CFA_XSP16, literal(-11)))
        CFI (cfiCond242) V11 load(1, XDATA, add(CFA_XSP16, literal(-10)))
        CFI (cfiCond242) V12 load(1, XDATA, add(CFA_XSP16, literal(-9)))
        CFI (cfiCond242) V13 load(1, XDATA, add(CFA_XSP16, literal(-8)))
        CFI (cfiCond242) V14 load(1, XDATA, add(CFA_XSP16, literal(-7)))
        CFI (cfiCond242) R7 load(1, XDATA, add(CFA_XSP16, literal(-6)))
        CFI (cfiCond242) ?RET_LOW load(1, XDATA, add(CFA_XSP16, literal(-5)))
        CFI (cfiCond242) ?RET_HIGH load(1, XDATA, add(CFA_XSP16, literal(-4)))
        CFI (cfiCond242) ?BRET_EXT load(1, XDATA, add(CFA_XSP16, literal(-3)))
        CFI (cfiCond242) DPL0 load(1, XDATA, add(CFA_XSP16, literal(-2)))
        CFI (cfiCond242) DPH0 load(1, XDATA, add(CFA_XSP16, literal(-1)))
        CFI (cfiCond242) CFA_SP SP+0
        CFI (cfiCond242) CFA_XSP16 add(XSP16, 23)
        CFI Block cfiCond243 Using cfiCommon0
        CFI (cfiCond243) NoFunction
        CFI (cfiCond243) Conditional ??CrossCallReturnLabel_117
        CFI (cfiCond243) R6 load(1, XDATA, add(CFA_XSP16, literal(-23)))
        CFI (cfiCond243) VB load(1, XDATA, add(CFA_XSP16, literal(-22)))
        CFI (cfiCond243) V0 load(1, XDATA, add(CFA_XSP16, literal(-21)))
        CFI (cfiCond243) V1 load(1, XDATA, add(CFA_XSP16, literal(-20)))
        CFI (cfiCond243) V2 load(1, XDATA, add(CFA_XSP16, literal(-19)))
        CFI (cfiCond243) V3 load(1, XDATA, add(CFA_XSP16, literal(-18)))
        CFI (cfiCond243) V4 load(1, XDATA, add(CFA_XSP16, literal(-17)))
        CFI (cfiCond243) V5 load(1, XDATA, add(CFA_XSP16, literal(-16)))
        CFI (cfiCond243) V6 load(1, XDATA, add(CFA_XSP16, literal(-15)))
        CFI (cfiCond243) V7 load(1, XDATA, add(CFA_XSP16, literal(-14)))
        CFI (cfiCond243) V8 load(1, XDATA, add(CFA_XSP16, literal(-13)))
        CFI (cfiCond243) V9 load(1, XDATA, add(CFA_XSP16, literal(-12)))
        CFI (cfiCond243) V10 load(1, XDATA, add(CFA_XSP16, literal(-11)))
        CFI (cfiCond243) V11 load(1, XDATA, add(CFA_XSP16, literal(-10)))
        CFI (cfiCond243) V12 load(1, XDATA, add(CFA_XSP16, literal(-9)))
        CFI (cfiCond243) V13 load(1, XDATA, add(CFA_XSP16, literal(-8)))
        CFI (cfiCond243) V14 load(1, XDATA, add(CFA_XSP16, literal(-7)))
        CFI (cfiCond243) R7 load(1, XDATA, add(CFA_XSP16, literal(-6)))
        CFI (cfiCond243) ?RET_LOW load(1, XDATA, add(CFA_XSP16, literal(-5)))
        CFI (cfiCond243) ?RET_HIGH load(1, XDATA, add(CFA_XSP16, literal(-4)))
        CFI (cfiCond243) ?BRET_EXT load(1, XDATA, add(CFA_XSP16, literal(-3)))
        CFI (cfiCond243) DPL0 load(1, XDATA, add(CFA_XSP16, literal(-2)))
        CFI (cfiCond243) DPH0 load(1, XDATA, add(CFA_XSP16, literal(-1)))
        CFI (cfiCond243) CFA_SP SP+0
        CFI (cfiCond243) CFA_XSP16 add(XSP16, 23)
        CFI Block cfiCond244 Using cfiCommon0
        CFI (cfiCond244) NoFunction
        CFI (cfiCond244) Conditional ??CrossCallReturnLabel_118
        CFI (cfiCond244) R6 load(1, XDATA, add(CFA_XSP16, literal(-23)))
        CFI (cfiCond244) VB load(1, XDATA, add(CFA_XSP16, literal(-22)))
        CFI (cfiCond244) V0 load(1, XDATA, add(CFA_XSP16, literal(-21)))
        CFI (cfiCond244) V1 load(1, XDATA, add(CFA_XSP16, literal(-20)))
        CFI (cfiCond244) V2 load(1, XDATA, add(CFA_XSP16, literal(-19)))
        CFI (cfiCond244) V3 load(1, XDATA, add(CFA_XSP16, literal(-18)))
        CFI (cfiCond244) V4 load(1, XDATA, add(CFA_XSP16, literal(-17)))
        CFI (cfiCond244) V5 load(1, XDATA, add(CFA_XSP16, literal(-16)))
        CFI (cfiCond244) V6 load(1, XDATA, add(CFA_XSP16, literal(-15)))
        CFI (cfiCond244) V7 load(1, XDATA, add(CFA_XSP16, literal(-14)))
        CFI (cfiCond244) V8 load(1, XDATA, add(CFA_XSP16, literal(-13)))
        CFI (cfiCond244) V9 load(1, XDATA, add(CFA_XSP16, literal(-12)))
        CFI (cfiCond244) V10 load(1, XDATA, add(CFA_XSP16, literal(-11)))
        CFI (cfiCond244) V11 load(1, XDATA, add(CFA_XSP16, literal(-10)))
        CFI (cfiCond244) V12 load(1, XDATA, add(CFA_XSP16, literal(-9)))
        CFI (cfiCond244) V13 load(1, XDATA, add(CFA_XSP16, literal(-8)))
        CFI (cfiCond244) V14 load(1, XDATA, add(CFA_XSP16, literal(-7)))
        CFI (cfiCond244) R7 load(1, XDATA, add(CFA_XSP16, literal(-6)))
        CFI (cfiCond244) ?RET_LOW load(1, XDATA, add(CFA_XSP16, literal(-5)))
        CFI (cfiCond244) ?RET_HIGH load(1, XDATA, add(CFA_XSP16, literal(-4)))
        CFI (cfiCond244) ?BRET_EXT load(1, XDATA, add(CFA_XSP16, literal(-3)))
        CFI (cfiCond244) DPL0 load(1, XDATA, add(CFA_XSP16, literal(-2)))
        CFI (cfiCond244) DPH0 load(1, XDATA, add(CFA_XSP16, literal(-1)))
        CFI (cfiCond244) CFA_SP SP+0
        CFI (cfiCond244) CFA_XSP16 add(XSP16, 23)
        CFI Block cfiCond245 Using cfiCommon0
        CFI (cfiCond245) NoFunction
        CFI (cfiCond245) Conditional ??CrossCallReturnLabel_119
        CFI (cfiCond245) R6 load(1, XDATA, add(CFA_XSP16, literal(-23)))
        CFI (cfiCond245) VB load(1, XDATA, add(CFA_XSP16, literal(-22)))
        CFI (cfiCond245) V0 load(1, XDATA, add(CFA_XSP16, literal(-21)))
        CFI (cfiCond245) V1 load(1, XDATA, add(CFA_XSP16, literal(-20)))
        CFI (cfiCond245) V2 load(1, XDATA, add(CFA_XSP16, literal(-19)))
        CFI (cfiCond245) V3 load(1, XDATA, add(CFA_XSP16, literal(-18)))
        CFI (cfiCond245) V4 load(1, XDATA, add(CFA_XSP16, literal(-17)))
        CFI (cfiCond245) V5 load(1, XDATA, add(CFA_XSP16, literal(-16)))
        CFI (cfiCond245) V6 load(1, XDATA, add(CFA_XSP16, literal(-15)))
        CFI (cfiCond245) V7 load(1, XDATA, add(CFA_XSP16, literal(-14)))
        CFI (cfiCond245) V8 load(1, XDATA, add(CFA_XSP16, literal(-13)))
        CFI (cfiCond245) V9 load(1, XDATA, add(CFA_XSP16, literal(-12)))
        CFI (cfiCond245) V10 load(1, XDATA, add(CFA_XSP16, literal(-11)))
        CFI (cfiCond245) V11 load(1, XDATA, add(CFA_XSP16, literal(-10)))
        CFI (cfiCond245) V12 load(1, XDATA, add(CFA_XSP16, literal(-9)))
        CFI (cfiCond245) V13 load(1, XDATA, add(CFA_XSP16, literal(-8)))
        CFI (cfiCond245) V14 load(1, XDATA, add(CFA_XSP16, literal(-7)))
        CFI (cfiCond245) R7 load(1, XDATA, add(CFA_XSP16, literal(-6)))
        CFI (cfiCond245) ?RET_LOW load(1, XDATA, add(CFA_XSP16, literal(-5)))
        CFI (cfiCond245) ?RET_HIGH load(1, XDATA, add(CFA_XSP16, literal(-4)))
        CFI (cfiCond245) ?BRET_EXT load(1, XDATA, add(CFA_XSP16, literal(-3)))
        CFI (cfiCond245) DPL0 load(1, XDATA, add(CFA_XSP16, literal(-2)))
        CFI (cfiCond245) DPH0 load(1, XDATA, add(CFA_XSP16, literal(-1)))
        CFI (cfiCond245) CFA_SP SP+0
        CFI (cfiCond245) CFA_XSP16 add(XSP16, 23)
        CFI Block cfiPicker246 Using cfiCommon1
        CFI (cfiPicker246) NoFunction
        CFI (cfiPicker246) Picker
        LCALL   ?Subroutine37 & 0xFFFF
??CrossCallReturnLabel_125:
        MOV     A,?V0 + 8
        RET
        CFI EndBlock cfiCond238
        CFI EndBlock cfiCond239
        CFI EndBlock cfiCond240
        CFI EndBlock cfiCond241
        CFI EndBlock cfiCond242
        CFI EndBlock cfiCond243
        CFI EndBlock cfiCond244
        CFI EndBlock cfiCond245
        CFI EndBlock cfiPicker246
//  758 
//  759 /**************************************************************************************************
//  760  * @fn          MT_AfDataRetrieve
//  761  *
//  762  * @brief   Process AF Data Retrieve command to incrementally read out a very large
//  763  *          incoming AF message.
//  764  *
//  765  * input parameters
//  766  *
//  767  * @param pBuf - pointer to the received buffer
//  768  *
//  769  * output parameters
//  770  *
//  771  * @param rtrn - AF-Status of the operation.
//  772  *
//  773  * @return      None.
//  774  **************************************************************************************************
//  775  */

        RSEG BANKED_CODE:CODE:NOROOT(0)
//  776 void MT_AfDataRetrieve(uint8 *pBuf)
MT_AfDataRetrieve:
        CFI Block cfiBlock247 Using cfiCommon0
        CFI Function MT_AfDataRetrieve
        CODE
//  777 {
        FUNCALL MT_AfDataRetrieve, osal_mem_free
        LOCFRAME ISTACK, 0, STACK
        LOCFRAME PSTACK, 0, STACK
        LOCFRAME XSTACK, 21, STACK
        LOCFRAME IOVERLAY, 0, STATIC
        LOCFRAME DOVERLAY, 0, STATIC
        ARGFRAME ISTACK, 0, STACK
        ARGFRAME PSTACK, 0, STACK
        ARGFRAME XSTACK, 21, STACK
        ARGFRAME IOVERLAY, 0, STATIC
        ARGFRAME DOVERLAY, 0, STATIC
        FUNCALL MT_AfDataRetrieve, MT_BuildAndSendZToolResponse
        LOCFRAME ISTACK, 0, STACK
        LOCFRAME PSTACK, 0, STACK
        LOCFRAME XSTACK, 21, STACK
        LOCFRAME IOVERLAY, 0, STATIC
        LOCFRAME DOVERLAY, 0, STATIC
        ARGFRAME ISTACK, 0, STACK
        ARGFRAME PSTACK, 0, STACK
        ARGFRAME XSTACK, 21, STACK
        ARGFRAME IOVERLAY, 0, STATIC
        ARGFRAME DOVERLAY, 0, STATIC
        FUNCALL MT_AfDataRetrieve, osal_mem_alloc
        LOCFRAME ISTACK, 0, STACK
        LOCFRAME PSTACK, 0, STACK
        LOCFRAME XSTACK, 21, STACK
        LOCFRAME IOVERLAY, 0, STATIC
        LOCFRAME DOVERLAY, 0, STATIC
        ARGFRAME ISTACK, 0, STACK
        ARGFRAME PSTACK, 0, STACK
        ARGFRAME XSTACK, 21, STACK
        ARGFRAME IOVERLAY, 0, STATIC
        ARGFRAME DOVERLAY, 0, STATIC
        FUNCALL MT_AfDataRetrieve, osal_memcpy
        LOCFRAME ISTACK, 0, STACK
        LOCFRAME PSTACK, 0, STACK
        LOCFRAME XSTACK, 24, STACK
        LOCFRAME IOVERLAY, 0, STATIC
        LOCFRAME DOVERLAY, 0, STATIC
        ARGFRAME ISTACK, 0, STACK
        ARGFRAME PSTACK, 0, STACK
        ARGFRAME XSTACK, 24, STACK
        ARGFRAME IOVERLAY, 0, STATIC
        ARGFRAME DOVERLAY, 0, STATIC
        FUNCALL MT_AfDataRetrieve, MT_BuildAndSendZToolResponse
        LOCFRAME ISTACK, 0, STACK
        LOCFRAME PSTACK, 0, STACK
        LOCFRAME XSTACK, 21, STACK
        LOCFRAME IOVERLAY, 0, STATIC
        LOCFRAME DOVERLAY, 0, STATIC
        ARGFRAME ISTACK, 0, STACK
        ARGFRAME PSTACK, 0, STACK
        ARGFRAME XSTACK, 21, STACK
        ARGFRAME IOVERLAY, 0, STATIC
        ARGFRAME DOVERLAY, 0, STATIC
        FUNCALL MT_AfDataRetrieve, osal_mem_free
        LOCFRAME ISTACK, 0, STACK
        LOCFRAME PSTACK, 0, STACK
        LOCFRAME XSTACK, 21, STACK
        LOCFRAME IOVERLAY, 0, STATIC
        LOCFRAME DOVERLAY, 0, STATIC
        ARGFRAME ISTACK, 0, STACK
        ARGFRAME PSTACK, 0, STACK
        ARGFRAME XSTACK, 21, STACK
        ARGFRAME IOVERLAY, 0, STATIC
        ARGFRAME DOVERLAY, 0, STATIC
        MOV     A,#-0x15
        LCALL   ?BANKED_ENTER_XDATA
        CFI DPH0 load(1, XDATA, add(CFA_XSP16, literal(-1)))
        CFI DPL0 load(1, XDATA, add(CFA_XSP16, literal(-2)))
        CFI ?BRET_EXT load(1, XDATA, add(CFA_XSP16, literal(-3)))
        CFI ?RET_HIGH load(1, XDATA, add(CFA_XSP16, literal(-4)))
        CFI ?RET_LOW load(1, XDATA, add(CFA_XSP16, literal(-5)))
        CFI R7 load(1, XDATA, add(CFA_XSP16, literal(-6)))
        CFI V12 load(1, XDATA, add(CFA_XSP16, literal(-7)))
        CFI V11 load(1, XDATA, add(CFA_XSP16, literal(-8)))
        CFI V10 load(1, XDATA, add(CFA_XSP16, literal(-9)))
        CFI V9 load(1, XDATA, add(CFA_XSP16, literal(-10)))
        CFI V8 load(1, XDATA, add(CFA_XSP16, literal(-11)))
        CFI V7 load(1, XDATA, add(CFA_XSP16, literal(-12)))
        CFI V6 load(1, XDATA, add(CFA_XSP16, literal(-13)))
        CFI V5 load(1, XDATA, add(CFA_XSP16, literal(-14)))
        CFI V4 load(1, XDATA, add(CFA_XSP16, literal(-15)))
        CFI V3 load(1, XDATA, add(CFA_XSP16, literal(-16)))
        CFI V2 load(1, XDATA, add(CFA_XSP16, literal(-17)))
        CFI V1 load(1, XDATA, add(CFA_XSP16, literal(-18)))
        CFI V0 load(1, XDATA, add(CFA_XSP16, literal(-19)))
        CFI VB load(1, XDATA, add(CFA_XSP16, literal(-20)))
        CFI R6 load(1, XDATA, add(CFA_XSP16, literal(-21)))
        CFI CFA_SP SP+0
        CFI CFA_XSP16 add(XSP16, 21)
        ; Saved register size: 21
        ; Auto size: 0
        MOV     ?V0 + 0,R2
//  778   #define MT_AF_RTV_HDR_SZ  2
//  779 
//  780   uint32 timestamp;
//  781   mtAfInMsgList_t *pPrev, *pItem = pMtAfInMsgList;
        MOV     DPTR,#pMtAfInMsgList
        LCALL   ?Subroutine11 & 0xFFFF
//  782   uint8 rtrn = afStatus_FAILED;
??CrossCallReturnLabel_15:
        MOV     R2,#0x1
//  783   uint8 len = 0;
        MOV     ?V0 + 12,#0x0
//  784 
//  785   pBuf += MT_RPC_FRAME_HDR_SZ;
        MOV     A,?V0 + 0
        ADD     A,#0x3
        MOV     ?V0 + 0,A
        MOV     A,R3
        LCALL   ?Subroutine24 & 0xFFFF
//  786   timestamp = BUILD_UINT32(pBuf[0], pBuf[1], pBuf[2], pBuf[3]);
??CrossCallReturnLabel_30:
        MOVX    A,@DPTR
        MOV     ?V0 + 4,A
        CLR     A
        MOV     ?V0 + 5,A
        MOV     ?V0 + 6,A
        MOV     ?V0 + 7,A
        INC     DPTR
        MOVX    A,@DPTR
        MOV     ?V0 + 8,A
        CLR     A
        MOV     ?V0 + 9,A
        MOV     ?V0 + 10,A
        MOV     ?V0 + 11,A
        MOV     A,#0x8
        MOV     R0,#?V0 + 8
        LCALL   ?L_SHL
        MOV     R0,#?V0 + 4
        MOV     R1,#?V0 + 8
        LCALL   ?L_ADD
        MOV     DPL,?V0 + 0
        MOV     DPH,?V0 + 1
        INC     DPTR
        INC     DPTR
        MOVX    A,@DPTR
        MOV     ?V0 + 8,A
        CLR     A
        MOV     ?V0 + 9,A
        MOV     A,#0x10
        MOV     R0,#?V0 + 8
        LCALL   ?L_SHL
        MOV     R0,#?V0 + 4
        MOV     R1,#?V0 + 8
        LCALL   ?L_ADD
        MOV     DPL,?V0 + 0
        MOV     DPH,?V0 + 1
        INC     DPTR
        INC     DPTR
        INC     DPTR
        MOVX    A,@DPTR
        MOV     ?V0 + 8,A
        CLR     A
        MOV     ?V0 + 10,A
        MOV     A,#0x18
        MOV     R0,#?V0 + 8
        LCALL   ?L_SHL
        MOV     R0,#?V0 + 4
        MOV     R1,#?V0 + 8
        LCALL   ?L_ADD
        SJMP    ??CrossCallReturnLabel_16
//  787 
//  788   while (pItem != NULL)
//  789   {
//  790     pPrev = pItem;
//  791     if (pItem->timestamp == timestamp)
//  792     {
//  793       break;
//  794     }
//  795     pItem = pItem->next;
??MT_AfDataRetrieve_0:
        MOV     DPL,R4
        MOV     DPH,R5
        LCALL   ?Subroutine11 & 0xFFFF
??CrossCallReturnLabel_16:
        MOV     A,?V0 + 2
        ORL     A,?V0 + 3
        JZ      ??MT_AfDataRetrieve_1
        MOV     R4,?V0 + 2
        MOV     R5,?V0 + 3
        MOV     DPL,R4
        MOV     DPH,R5
        INC     DPTR
        INC     DPTR
        INC     DPTR
        INC     DPTR
        MOV     R0,#?V0 + 4
        LCALL   ?L_EQ_X
        JNZ     ??MT_AfDataRetrieve_0
//  796   }
//  797 
//  798   if (pItem != NULL)
//  799   {
//  800     uint16 idx;
//  801     uint8 *pRsp;
//  802 
//  803     pBuf += 4;
        MOV     A,?V0 + 0
        ADD     A,#0x4
        MOV     ?V0 + 0,A
        MOV     A,?V0 + 1
        LCALL   ?Subroutine24 & 0xFFFF
//  804     idx = BUILD_UINT16(pBuf[0], pBuf[1]);
??CrossCallReturnLabel_31:
        LCALL   ?Subroutine6 & 0xFFFF
??CrossCallReturnLabel_3:
        MOV     ?V0 + 4,A
        CLR     A
        ADDC    A,R1
        MOV     ?V0 + 5,A
//  805     len = pBuf[2];
        MOV     DPL,?V0 + 0
        MOV     DPH,?V0 + 1
        INC     DPTR
        INC     DPTR
        MOVX    A,@DPTR
        MOV     ?V0 + 12,A
//  806 
//  807     if (len == 0)  // Indication to delete the afIncomingMSGPacket.
        JNZ     ??MT_AfDataRetrieve_2
//  808     {
//  809       if (pMtAfInMsgList == pItem)
        LCALL   ?Subroutine16 & 0xFFFF
??CrossCallReturnLabel_138:
        MOV     A,R4
        XRL     A,R0
        JNZ     ??MT_AfDataRetrieve_3
        MOV     A,R5
        XRL     A,R1
??MT_AfDataRetrieve_3:
        MOV     DPL,R4
        MOV     DPH,R5
        JNZ     ??MT_AfDataRetrieve_4
//  810       {
//  811         pMtAfInMsgList = pItem->next;
        LCALL   ?Subroutine15 & 0xFFFF
//  812       }
??CrossCallReturnLabel_22:
        SJMP    ??MT_AfDataRetrieve_5
//  813       else
//  814       {
//  815         pPrev->next = pItem->next;
??MT_AfDataRetrieve_4:
        LCALL   ??Subroutine59_0 & 0xFFFF
//  816       }
??CrossCallReturnLabel_135:
        MOV     DPL,R4
        MOV     DPH,R5
??MT_AfDataRetrieve_5:
        LCALL   ?Subroutine33 & 0xFFFF
//  817       (void)osal_mem_free(pItem);
??CrossCallReturnLabel_58:
        ; Setup parameters for call to function osal_mem_free
        MOV     R2,?V0 + 2
        MOV     R3,?V0 + 3
        LCALL   ??osal_mem_free?relay
//  818       rtrn = afStatus_SUCCESS;
        MOV     R2,#0x0
//  819     }
//  820     else if ((pRsp = osal_mem_alloc(len + MT_AF_RTV_HDR_SZ)) == NULL)
//  821     {
//  822       rtrn = afStatus_MEM_FAIL;
//  823       len = 0;
//  824     }
//  825     else
//  826     {
//  827       pRsp[0] = ZSuccess;
//  828       pRsp[1] = len;
//  829       (void)osal_memcpy(pRsp + MT_AF_RTV_HDR_SZ, pItem->data+idx, len);
//  830       MT_BuildAndSendZToolResponse(((uint8)MT_RPC_CMD_SRSP | (uint8)MT_RPC_SYS_AF),
//  831                                            MT_AF_DATA_RETRIEVE, len + MT_AF_RTV_HDR_SZ, pRsp);
//  832       (void)osal_mem_free(pRsp);
//  833       return;
//  834     }
//  835   }
//  836 
//  837   pBuf[0] = rtrn;
??MT_AfDataRetrieve_1:
        MOV     A,R2
        MOV     DPL,?V0 + 0
        MOV     DPH,?V0 + 1
        MOVX    @DPTR,A
//  838   pBuf[1] = len;
        INC     DPTR
        MOV     A,?V0 + 12
        MOVX    @DPTR,A
//  839   MT_BuildAndSendZToolResponse(((uint8)MT_RPC_CMD_SRSP | (uint8)MT_RPC_SYS_AF),
//  840                                        MT_AF_DATA_RETRIEVE, MT_AF_RTV_HDR_SZ, pBuf);
        ; Setup parameters for call to function MT_BuildAndSendZToolResponse
        MOV     R4,?V0 + 0
        MOV     R5,?V0 + 1
        MOV     R3,#0x2
        MOV     R2,#0x12
        MOV     R1,#0x64
        LCALL   ??MT_BuildAndSendZToolResponse?relay
//  841 }
??MT_AfDataRetrieve_6:
        MOV     R7,#0xd
        LJMP    ?BANKED_LEAVE_XDATA
??MT_AfDataRetrieve_2:
        ; Setup parameters for call to function osal_mem_alloc
        ADD     A,#0x2
        MOV     R2,A
        CLR     A
        LCALL   ??Subroutine49_0 & 0xFFFF
??CrossCallReturnLabel_84:
        MOV     ?V0 + 6,R2
        MOV     ?V0 + 7,R3
        MOV     R6,?V0 + 6
        MOV     R7,?V0 + 7
        MOV     A,R6
        ORL     A,R7
        JNZ     ??MT_AfDataRetrieve_7
        MOV     R2,#0x10
        MOV     ?V0 + 12,#0x0
        SJMP    ??MT_AfDataRetrieve_1
??MT_AfDataRetrieve_7:
        MOV     DPL,R6
        MOV     DPH,R7
        CLR     A
        MOVX    @DPTR,A
        INC     DPTR
        MOV     A,?V0 + 12
        MOVX    @DPTR,A
        ; Setup parameters for call to function osal_memcpy
        MOV     DPL,?V0 + 2
        MOV     DPH,?V0 + 3
        INC     DPTR
        INC     DPTR
        MOVX    A,@DPTR
        ADD     A,?V0 + 4
        MOV     ?V0 + 0,A
        INC     DPTR
        MOVX    A,@DPTR
        ADDC    A,?V0 + 5
        MOV     ?V0 + 1,A
        MOV     ?V0 + 2,#0x0
        MOV     R0,#?V0 + 0
        LCALL   ?PUSH_XSTACK_I_THREE
        CFI CFA_XSP16 add(XSP16, 24)
        MOV     ?V0 + 0,?V0 + 12
        MOV     R4,?V0 + 0
        MOV     R5,#0x0
        MOV     A,R6
        ADD     A,#0x2
        INC     R2
        INC     R2
        MOV     A,R7
        ADDC    A,#0x0
        LCALL   ?Subroutine35 & 0xFFFF
??CrossCallReturnLabel_128:
        LCALL   ?DEALLOC_XSTACK8
        CFI CFA_XSP16 add(XSP16, 21)
        ; Setup parameters for call to function MT_BuildAndSendZToolResponse
        MOV     A,R6
        MOV     R4,A
        MOV     A,R7
        MOV     R5,A
        MOV     A,#0x2
        ADD     A,?V0 + 12
        MOV     R3,A
        MOV     R2,#0x12
        MOV     R1,#0x64
        LCALL   ??MT_BuildAndSendZToolResponse?relay
        ; Setup parameters for call to function osal_mem_free
        MOV     A,R6
        MOV     R2,A
        MOV     A,R7
        MOV     R3,A
        LCALL   ??osal_mem_free?relay
        SJMP    ??MT_AfDataRetrieve_6
        CFI EndBlock cfiBlock247

        RSEG BANKED_CODE:CODE:NOROOT(0)
?Subroutine35:
        CFI Block cfiCond248 Using cfiCommon0
        CFI NoFunction
        CFI Conditional ??CrossCallReturnLabel_128
        CFI R6 load(1, XDATA, add(CFA_XSP16, literal(-21)))
        CFI VB load(1, XDATA, add(CFA_XSP16, literal(-20)))
        CFI V0 load(1, XDATA, add(CFA_XSP16, literal(-19)))
        CFI V1 load(1, XDATA, add(CFA_XSP16, literal(-18)))
        CFI V2 load(1, XDATA, add(CFA_XSP16, literal(-17)))
        CFI V3 load(1, XDATA, add(CFA_XSP16, literal(-16)))
        CFI V4 load(1, XDATA, add(CFA_XSP16, literal(-15)))
        CFI V5 load(1, XDATA, add(CFA_XSP16, literal(-14)))
        CFI V6 load(1, XDATA, add(CFA_XSP16, literal(-13)))
        CFI V7 load(1, XDATA, add(CFA_XSP16, literal(-12)))
        CFI V8 load(1, XDATA, add(CFA_XSP16, literal(-11)))
        CFI V9 load(1, XDATA, add(CFA_XSP16, literal(-10)))
        CFI V10 load(1, XDATA, add(CFA_XSP16, literal(-9)))
        CFI V11 load(1, XDATA, add(CFA_XSP16, literal(-8)))
        CFI V12 load(1, XDATA, add(CFA_XSP16, literal(-7)))
        CFI R7 load(1, XDATA, add(CFA_XSP16, literal(-6)))
        CFI ?RET_LOW load(1, XDATA, add(CFA_XSP16, literal(-5)))
        CFI ?RET_HIGH load(1, XDATA, add(CFA_XSP16, literal(-4)))
        CFI ?BRET_EXT load(1, XDATA, add(CFA_XSP16, literal(-3)))
        CFI DPL0 load(1, XDATA, add(CFA_XSP16, literal(-2)))
        CFI DPH0 load(1, XDATA, add(CFA_XSP16, literal(-1)))
        CFI CFA_SP SP+0
        CFI CFA_XSP16 add(XSP16, 24)
        CFI Block cfiCond249 Using cfiCommon0
        CFI (cfiCond249) NoFunction
        CFI (cfiCond249) Conditional ??CrossCallReturnLabel_129
        CFI (cfiCond249) R6 load(1, XDATA, add(CFA_XSP16, literal(-11)))
        CFI (cfiCond249) VB load(1, XDATA, add(CFA_XSP16, literal(-10)))
        CFI (cfiCond249) V0 load(1, XDATA, add(CFA_XSP16, literal(-9)))
        CFI (cfiCond249) V1 load(1, XDATA, add(CFA_XSP16, literal(-8)))
        CFI (cfiCond249) V2 load(1, XDATA, add(CFA_XSP16, literal(-7)))
        CFI (cfiCond249) R7 load(1, XDATA, add(CFA_XSP16, literal(-6)))
        CFI (cfiCond249) ?RET_LOW load(1, XDATA, add(CFA_XSP16, literal(-5)))
        CFI (cfiCond249) ?RET_HIGH load(1, XDATA, add(CFA_XSP16, literal(-4)))
        CFI (cfiCond249) ?BRET_EXT load(1, XDATA, add(CFA_XSP16, literal(-3)))
        CFI (cfiCond249) DPL0 load(1, XDATA, add(CFA_XSP16, literal(-2)))
        CFI (cfiCond249) DPH0 load(1, XDATA, add(CFA_XSP16, literal(-1)))
        CFI (cfiCond249) CFA_SP SP+0
        CFI (cfiCond249) CFA_XSP16 add(XSP16, 15)
        CFI Block cfiPicker250 Using cfiCommon1
        CFI (cfiPicker250) NoFunction
        CFI (cfiPicker250) Picker
        MOV     R3,A
        CFI EndBlock cfiCond248
        CFI EndBlock cfiCond249
        CFI EndBlock cfiPicker250
        REQUIRE ??Subroutine58_0
        ; // Fall through to label ??Subroutine58_0

        RSEG BANKED_CODE:CODE:NOROOT(0)
??Subroutine58_0:
        CFI Block cfiCond251 Using cfiCommon0
        CFI NoFunction
        CFI Conditional ??CrossCallReturnLabel_130
        CFI R6 load(1, XDATA, add(CFA_XSP16, literal(-22)))
        CFI VB load(1, XDATA, add(CFA_XSP16, literal(-21)))
        CFI V0 load(1, XDATA, add(CFA_XSP16, literal(-20)))
        CFI V1 load(1, XDATA, add(CFA_XSP16, literal(-19)))
        CFI V2 load(1, XDATA, add(CFA_XSP16, literal(-18)))
        CFI V3 load(1, XDATA, add(CFA_XSP16, literal(-17)))
        CFI V4 load(1, XDATA, add(CFA_XSP16, literal(-16)))
        CFI V5 load(1, XDATA, add(CFA_XSP16, literal(-15)))
        CFI V6 load(1, XDATA, add(CFA_XSP16, literal(-14)))
        CFI V7 load(1, XDATA, add(CFA_XSP16, literal(-13)))
        CFI V8 load(1, XDATA, add(CFA_XSP16, literal(-12)))
        CFI V9 load(1, XDATA, add(CFA_XSP16, literal(-11)))
        CFI V10 load(1, XDATA, add(CFA_XSP16, literal(-10)))
        CFI V11 load(1, XDATA, add(CFA_XSP16, literal(-9)))
        CFI V12 load(1, XDATA, add(CFA_XSP16, literal(-8)))
        CFI V13 load(1, XDATA, add(CFA_XSP16, literal(-7)))
        CFI R7 load(1, XDATA, add(CFA_XSP16, literal(-6)))
        CFI ?RET_LOW load(1, XDATA, add(CFA_XSP16, literal(-5)))
        CFI ?RET_HIGH load(1, XDATA, add(CFA_XSP16, literal(-4)))
        CFI ?BRET_EXT load(1, XDATA, add(CFA_XSP16, literal(-3)))
        CFI DPL0 load(1, XDATA, add(CFA_XSP16, literal(-2)))
        CFI DPH0 load(1, XDATA, add(CFA_XSP16, literal(-1)))
        CFI CFA_SP SP+0
        CFI CFA_XSP16 add(XSP16, 39)
        CFI Block cfiCond252 Using cfiCommon0
        CFI (cfiCond252) NoFunction
        CFI (cfiCond252) Conditional ??CrossCallReturnLabel_131
        CFI (cfiCond252) R6 load(1, XDATA, add(CFA_XSP16, literal(-22)))
        CFI (cfiCond252) VB load(1, XDATA, add(CFA_XSP16, literal(-21)))
        CFI (cfiCond252) V0 load(1, XDATA, add(CFA_XSP16, literal(-20)))
        CFI (cfiCond252) V1 load(1, XDATA, add(CFA_XSP16, literal(-19)))
        CFI (cfiCond252) V2 load(1, XDATA, add(CFA_XSP16, literal(-18)))
        CFI (cfiCond252) V3 load(1, XDATA, add(CFA_XSP16, literal(-17)))
        CFI (cfiCond252) V4 load(1, XDATA, add(CFA_XSP16, literal(-16)))
        CFI (cfiCond252) V5 load(1, XDATA, add(CFA_XSP16, literal(-15)))
        CFI (cfiCond252) V6 load(1, XDATA, add(CFA_XSP16, literal(-14)))
        CFI (cfiCond252) V7 load(1, XDATA, add(CFA_XSP16, literal(-13)))
        CFI (cfiCond252) V8 load(1, XDATA, add(CFA_XSP16, literal(-12)))
        CFI (cfiCond252) V9 load(1, XDATA, add(CFA_XSP16, literal(-11)))
        CFI (cfiCond252) V10 load(1, XDATA, add(CFA_XSP16, literal(-10)))
        CFI (cfiCond252) V11 load(1, XDATA, add(CFA_XSP16, literal(-9)))
        CFI (cfiCond252) V12 load(1, XDATA, add(CFA_XSP16, literal(-8)))
        CFI (cfiCond252) V13 load(1, XDATA, add(CFA_XSP16, literal(-7)))
        CFI (cfiCond252) R7 load(1, XDATA, add(CFA_XSP16, literal(-6)))
        CFI (cfiCond252) ?RET_LOW load(1, XDATA, add(CFA_XSP16, literal(-5)))
        CFI (cfiCond252) ?RET_HIGH load(1, XDATA, add(CFA_XSP16, literal(-4)))
        CFI (cfiCond252) ?BRET_EXT load(1, XDATA, add(CFA_XSP16, literal(-3)))
        CFI (cfiCond252) DPL0 load(1, XDATA, add(CFA_XSP16, literal(-2)))
        CFI (cfiCond252) DPH0 load(1, XDATA, add(CFA_XSP16, literal(-1)))
        CFI (cfiCond252) CFA_SP SP+0
        CFI (cfiCond252) CFA_XSP16 add(XSP16, 39)
        CFI Block cfiCond253 Using cfiCommon0
        CFI (cfiCond253) NoFunction
        CFI (cfiCond253) Conditional ??CrossCallReturnLabel_132
        CFI (cfiCond253) R6 load(1, XDATA, add(CFA_XSP16, literal(-23)))
        CFI (cfiCond253) VB load(1, XDATA, add(CFA_XSP16, literal(-22)))
        CFI (cfiCond253) V0 load(1, XDATA, add(CFA_XSP16, literal(-21)))
        CFI (cfiCond253) V1 load(1, XDATA, add(CFA_XSP16, literal(-20)))
        CFI (cfiCond253) V2 load(1, XDATA, add(CFA_XSP16, literal(-19)))
        CFI (cfiCond253) V3 load(1, XDATA, add(CFA_XSP16, literal(-18)))
        CFI (cfiCond253) V4 load(1, XDATA, add(CFA_XSP16, literal(-17)))
        CFI (cfiCond253) V5 load(1, XDATA, add(CFA_XSP16, literal(-16)))
        CFI (cfiCond253) V6 load(1, XDATA, add(CFA_XSP16, literal(-15)))
        CFI (cfiCond253) V7 load(1, XDATA, add(CFA_XSP16, literal(-14)))
        CFI (cfiCond253) V8 load(1, XDATA, add(CFA_XSP16, literal(-13)))
        CFI (cfiCond253) V9 load(1, XDATA, add(CFA_XSP16, literal(-12)))
        CFI (cfiCond253) V10 load(1, XDATA, add(CFA_XSP16, literal(-11)))
        CFI (cfiCond253) V11 load(1, XDATA, add(CFA_XSP16, literal(-10)))
        CFI (cfiCond253) V12 load(1, XDATA, add(CFA_XSP16, literal(-9)))
        CFI (cfiCond253) V13 load(1, XDATA, add(CFA_XSP16, literal(-8)))
        CFI (cfiCond253) V14 load(1, XDATA, add(CFA_XSP16, literal(-7)))
        CFI (cfiCond253) R7 load(1, XDATA, add(CFA_XSP16, literal(-6)))
        CFI (cfiCond253) ?RET_LOW load(1, XDATA, add(CFA_XSP16, literal(-5)))
        CFI (cfiCond253) ?RET_HIGH load(1, XDATA, add(CFA_XSP16, literal(-4)))
        CFI (cfiCond253) ?BRET_EXT load(1, XDATA, add(CFA_XSP16, literal(-3)))
        CFI (cfiCond253) DPL0 load(1, XDATA, add(CFA_XSP16, literal(-2)))
        CFI (cfiCond253) DPH0 load(1, XDATA, add(CFA_XSP16, literal(-1)))
        CFI (cfiCond253) CFA_SP SP+0
        CFI (cfiCond253) CFA_XSP16 add(XSP16, 26)
        CFI Block cfiCond254 Using cfiCommon0
        CFI (cfiCond254) NoFunction
        CFI (cfiCond254) Conditional ??CrossCallReturnLabel_133
        CFI (cfiCond254) R6 load(1, XDATA, add(CFA_XSP16, literal(-23)))
        CFI (cfiCond254) VB load(1, XDATA, add(CFA_XSP16, literal(-22)))
        CFI (cfiCond254) V0 load(1, XDATA, add(CFA_XSP16, literal(-21)))
        CFI (cfiCond254) V1 load(1, XDATA, add(CFA_XSP16, literal(-20)))
        CFI (cfiCond254) V2 load(1, XDATA, add(CFA_XSP16, literal(-19)))
        CFI (cfiCond254) V3 load(1, XDATA, add(CFA_XSP16, literal(-18)))
        CFI (cfiCond254) V4 load(1, XDATA, add(CFA_XSP16, literal(-17)))
        CFI (cfiCond254) V5 load(1, XDATA, add(CFA_XSP16, literal(-16)))
        CFI (cfiCond254) V6 load(1, XDATA, add(CFA_XSP16, literal(-15)))
        CFI (cfiCond254) V7 load(1, XDATA, add(CFA_XSP16, literal(-14)))
        CFI (cfiCond254) V8 load(1, XDATA, add(CFA_XSP16, literal(-13)))
        CFI (cfiCond254) V9 load(1, XDATA, add(CFA_XSP16, literal(-12)))
        CFI (cfiCond254) V10 load(1, XDATA, add(CFA_XSP16, literal(-11)))
        CFI (cfiCond254) V11 load(1, XDATA, add(CFA_XSP16, literal(-10)))
        CFI (cfiCond254) V12 load(1, XDATA, add(CFA_XSP16, literal(-9)))
        CFI (cfiCond254) V13 load(1, XDATA, add(CFA_XSP16, literal(-8)))
        CFI (cfiCond254) V14 load(1, XDATA, add(CFA_XSP16, literal(-7)))
        CFI (cfiCond254) R7 load(1, XDATA, add(CFA_XSP16, literal(-6)))
        CFI (cfiCond254) ?RET_LOW load(1, XDATA, add(CFA_XSP16, literal(-5)))
        CFI (cfiCond254) ?RET_HIGH load(1, XDATA, add(CFA_XSP16, literal(-4)))
        CFI (cfiCond254) ?BRET_EXT load(1, XDATA, add(CFA_XSP16, literal(-3)))
        CFI (cfiCond254) DPL0 load(1, XDATA, add(CFA_XSP16, literal(-2)))
        CFI (cfiCond254) DPH0 load(1, XDATA, add(CFA_XSP16, literal(-1)))
        CFI (cfiCond254) CFA_SP SP+0
        CFI (cfiCond254) CFA_XSP16 add(XSP16, 26)
        CFI Block cfiCond255 Using cfiCommon0
        CFI (cfiCond255) NoFunction
        CFI (cfiCond255) Conditional ??CrossCallReturnLabel_128
        CFI (cfiCond255) R6 load(1, XDATA, add(CFA_XSP16, literal(-21)))
        CFI (cfiCond255) VB load(1, XDATA, add(CFA_XSP16, literal(-20)))
        CFI (cfiCond255) V0 load(1, XDATA, add(CFA_XSP16, literal(-19)))
        CFI (cfiCond255) V1 load(1, XDATA, add(CFA_XSP16, literal(-18)))
        CFI (cfiCond255) V2 load(1, XDATA, add(CFA_XSP16, literal(-17)))
        CFI (cfiCond255) V3 load(1, XDATA, add(CFA_XSP16, literal(-16)))
        CFI (cfiCond255) V4 load(1, XDATA, add(CFA_XSP16, literal(-15)))
        CFI (cfiCond255) V5 load(1, XDATA, add(CFA_XSP16, literal(-14)))
        CFI (cfiCond255) V6 load(1, XDATA, add(CFA_XSP16, literal(-13)))
        CFI (cfiCond255) V7 load(1, XDATA, add(CFA_XSP16, literal(-12)))
        CFI (cfiCond255) V8 load(1, XDATA, add(CFA_XSP16, literal(-11)))
        CFI (cfiCond255) V9 load(1, XDATA, add(CFA_XSP16, literal(-10)))
        CFI (cfiCond255) V10 load(1, XDATA, add(CFA_XSP16, literal(-9)))
        CFI (cfiCond255) V11 load(1, XDATA, add(CFA_XSP16, literal(-8)))
        CFI (cfiCond255) V12 load(1, XDATA, add(CFA_XSP16, literal(-7)))
        CFI (cfiCond255) R7 load(1, XDATA, add(CFA_XSP16, literal(-6)))
        CFI (cfiCond255) ?RET_LOW load(1, XDATA, add(CFA_XSP16, literal(-5)))
        CFI (cfiCond255) ?RET_HIGH load(1, XDATA, add(CFA_XSP16, literal(-4)))
        CFI (cfiCond255) ?BRET_EXT load(1, XDATA, add(CFA_XSP16, literal(-3)))
        CFI (cfiCond255) DPL0 load(1, XDATA, add(CFA_XSP16, literal(-2)))
        CFI (cfiCond255) DPH0 load(1, XDATA, add(CFA_XSP16, literal(-1)))
        CFI (cfiCond255) CFA_SP SP+0
        CFI (cfiCond255) CFA_XSP16 add(XSP16, 24)
        CFI Block cfiCond256 Using cfiCommon0
        CFI (cfiCond256) NoFunction
        CFI (cfiCond256) Conditional ??CrossCallReturnLabel_129
        CFI (cfiCond256) R6 load(1, XDATA, add(CFA_XSP16, literal(-11)))
        CFI (cfiCond256) VB load(1, XDATA, add(CFA_XSP16, literal(-10)))
        CFI (cfiCond256) V0 load(1, XDATA, add(CFA_XSP16, literal(-9)))
        CFI (cfiCond256) V1 load(1, XDATA, add(CFA_XSP16, literal(-8)))
        CFI (cfiCond256) V2 load(1, XDATA, add(CFA_XSP16, literal(-7)))
        CFI (cfiCond256) R7 load(1, XDATA, add(CFA_XSP16, literal(-6)))
        CFI (cfiCond256) ?RET_LOW load(1, XDATA, add(CFA_XSP16, literal(-5)))
        CFI (cfiCond256) ?RET_HIGH load(1, XDATA, add(CFA_XSP16, literal(-4)))
        CFI (cfiCond256) ?BRET_EXT load(1, XDATA, add(CFA_XSP16, literal(-3)))
        CFI (cfiCond256) DPL0 load(1, XDATA, add(CFA_XSP16, literal(-2)))
        CFI (cfiCond256) DPH0 load(1, XDATA, add(CFA_XSP16, literal(-1)))
        CFI (cfiCond256) CFA_SP SP+0
        CFI (cfiCond256) CFA_XSP16 add(XSP16, 15)
        CFI Block cfiPicker257 Using cfiCommon1
        CFI (cfiPicker257) NoFunction
        CFI (cfiPicker257) Picker
        LCALL   ??osal_memcpy?relay
        MOV     A,#0x3
        RET
        CFI EndBlock cfiCond251
        CFI EndBlock cfiCond252
        CFI EndBlock cfiCond253
        CFI EndBlock cfiCond254
        CFI EndBlock cfiCond255
        CFI EndBlock cfiCond256
        CFI EndBlock cfiPicker257

        RSEG BANKED_CODE:CODE:NOROOT(0)
?Subroutine24:
        CFI Block cfiCond258 Using cfiCommon0
        CFI NoFunction
        CFI Conditional ??CrossCallReturnLabel_30
        CFI R6 load(1, XDATA, add(CFA_XSP16, literal(-21)))
        CFI VB load(1, XDATA, add(CFA_XSP16, literal(-20)))
        CFI V0 load(1, XDATA, add(CFA_XSP16, literal(-19)))
        CFI V1 load(1, XDATA, add(CFA_XSP16, literal(-18)))
        CFI V2 load(1, XDATA, add(CFA_XSP16, literal(-17)))
        CFI V3 load(1, XDATA, add(CFA_XSP16, literal(-16)))
        CFI V4 load(1, XDATA, add(CFA_XSP16, literal(-15)))
        CFI V5 load(1, XDATA, add(CFA_XSP16, literal(-14)))
        CFI V6 load(1, XDATA, add(CFA_XSP16, literal(-13)))
        CFI V7 load(1, XDATA, add(CFA_XSP16, literal(-12)))
        CFI V8 load(1, XDATA, add(CFA_XSP16, literal(-11)))
        CFI V9 load(1, XDATA, add(CFA_XSP16, literal(-10)))
        CFI V10 load(1, XDATA, add(CFA_XSP16, literal(-9)))
        CFI V11 load(1, XDATA, add(CFA_XSP16, literal(-8)))
        CFI V12 load(1, XDATA, add(CFA_XSP16, literal(-7)))
        CFI R7 load(1, XDATA, add(CFA_XSP16, literal(-6)))
        CFI ?RET_LOW load(1, XDATA, add(CFA_XSP16, literal(-5)))
        CFI ?RET_HIGH load(1, XDATA, add(CFA_XSP16, literal(-4)))
        CFI ?BRET_EXT load(1, XDATA, add(CFA_XSP16, literal(-3)))
        CFI DPL0 load(1, XDATA, add(CFA_XSP16, literal(-2)))
        CFI DPH0 load(1, XDATA, add(CFA_XSP16, literal(-1)))
        CFI CFA_SP SP+0
        CFI CFA_XSP16 add(XSP16, 21)
        CFI Block cfiCond259 Using cfiCommon0
        CFI (cfiCond259) NoFunction
        CFI (cfiCond259) Conditional ??CrossCallReturnLabel_31
        CFI (cfiCond259) R6 load(1, XDATA, add(CFA_XSP16, literal(-21)))
        CFI (cfiCond259) VB load(1, XDATA, add(CFA_XSP16, literal(-20)))
        CFI (cfiCond259) V0 load(1, XDATA, add(CFA_XSP16, literal(-19)))
        CFI (cfiCond259) V1 load(1, XDATA, add(CFA_XSP16, literal(-18)))
        CFI (cfiCond259) V2 load(1, XDATA, add(CFA_XSP16, literal(-17)))
        CFI (cfiCond259) V3 load(1, XDATA, add(CFA_XSP16, literal(-16)))
        CFI (cfiCond259) V4 load(1, XDATA, add(CFA_XSP16, literal(-15)))
        CFI (cfiCond259) V5 load(1, XDATA, add(CFA_XSP16, literal(-14)))
        CFI (cfiCond259) V6 load(1, XDATA, add(CFA_XSP16, literal(-13)))
        CFI (cfiCond259) V7 load(1, XDATA, add(CFA_XSP16, literal(-12)))
        CFI (cfiCond259) V8 load(1, XDATA, add(CFA_XSP16, literal(-11)))
        CFI (cfiCond259) V9 load(1, XDATA, add(CFA_XSP16, literal(-10)))
        CFI (cfiCond259) V10 load(1, XDATA, add(CFA_XSP16, literal(-9)))
        CFI (cfiCond259) V11 load(1, XDATA, add(CFA_XSP16, literal(-8)))
        CFI (cfiCond259) V12 load(1, XDATA, add(CFA_XSP16, literal(-7)))
        CFI (cfiCond259) R7 load(1, XDATA, add(CFA_XSP16, literal(-6)))
        CFI (cfiCond259) ?RET_LOW load(1, XDATA, add(CFA_XSP16, literal(-5)))
        CFI (cfiCond259) ?RET_HIGH load(1, XDATA, add(CFA_XSP16, literal(-4)))
        CFI (cfiCond259) ?BRET_EXT load(1, XDATA, add(CFA_XSP16, literal(-3)))
        CFI (cfiCond259) DPL0 load(1, XDATA, add(CFA_XSP16, literal(-2)))
        CFI (cfiCond259) DPH0 load(1, XDATA, add(CFA_XSP16, literal(-1)))
        CFI (cfiCond259) CFA_SP SP+0
        CFI (cfiCond259) CFA_XSP16 add(XSP16, 21)
        CFI Block cfiPicker260 Using cfiCommon1
        CFI (cfiPicker260) NoFunction
        CFI (cfiPicker260) Picker
        ADDC    A,#0x0
        MOV     ?V0 + 1,A
        MOV     DPL,?V0 + 0
        MOV     DPH,A
        RET
        CFI EndBlock cfiCond258
        CFI EndBlock cfiCond259
        CFI EndBlock cfiPicker260

        RSEG BANKED_CODE:CODE:NOROOT(0)
?Subroutine16:
        CFI Block cfiCond261 Using cfiCommon0
        CFI NoFunction
        CFI Conditional ??CrossCallReturnLabel_136
        CFI R6 load(1, XDATA, add(CFA_XSP16, literal(-9)))
        CFI VB load(1, XDATA, add(CFA_XSP16, literal(-8)))
        CFI V0 load(1, XDATA, add(CFA_XSP16, literal(-7)))
        CFI R7 load(1, XDATA, add(CFA_XSP16, literal(-6)))
        CFI ?RET_LOW load(1, XDATA, add(CFA_XSP16, literal(-5)))
        CFI ?RET_HIGH load(1, XDATA, add(CFA_XSP16, literal(-4)))
        CFI ?BRET_EXT load(1, XDATA, add(CFA_XSP16, literal(-3)))
        CFI DPL0 load(1, XDATA, add(CFA_XSP16, literal(-2)))
        CFI DPH0 load(1, XDATA, add(CFA_XSP16, literal(-1)))
        CFI CFA_SP SP+0
        CFI CFA_XSP16 add(XSP16, 9)
        CFI Block cfiCond262 Using cfiCommon0
        CFI (cfiCond262) NoFunction
        CFI (cfiCond262) Conditional ??CrossCallReturnLabel_137
        CFI (cfiCond262) R6 load(1, XDATA, add(CFA_XSP16, literal(-23)))
        CFI (cfiCond262) VB load(1, XDATA, add(CFA_XSP16, literal(-22)))
        CFI (cfiCond262) V0 load(1, XDATA, add(CFA_XSP16, literal(-21)))
        CFI (cfiCond262) V1 load(1, XDATA, add(CFA_XSP16, literal(-20)))
        CFI (cfiCond262) V2 load(1, XDATA, add(CFA_XSP16, literal(-19)))
        CFI (cfiCond262) V3 load(1, XDATA, add(CFA_XSP16, literal(-18)))
        CFI (cfiCond262) V4 load(1, XDATA, add(CFA_XSP16, literal(-17)))
        CFI (cfiCond262) V5 load(1, XDATA, add(CFA_XSP16, literal(-16)))
        CFI (cfiCond262) V6 load(1, XDATA, add(CFA_XSP16, literal(-15)))
        CFI (cfiCond262) V7 load(1, XDATA, add(CFA_XSP16, literal(-14)))
        CFI (cfiCond262) V8 load(1, XDATA, add(CFA_XSP16, literal(-13)))
        CFI (cfiCond262) V9 load(1, XDATA, add(CFA_XSP16, literal(-12)))
        CFI (cfiCond262) V10 load(1, XDATA, add(CFA_XSP16, literal(-11)))
        CFI (cfiCond262) V11 load(1, XDATA, add(CFA_XSP16, literal(-10)))
        CFI (cfiCond262) V12 load(1, XDATA, add(CFA_XSP16, literal(-9)))
        CFI (cfiCond262) V13 load(1, XDATA, add(CFA_XSP16, literal(-8)))
        CFI (cfiCond262) V14 load(1, XDATA, add(CFA_XSP16, literal(-7)))
        CFI (cfiCond262) R7 load(1, XDATA, add(CFA_XSP16, literal(-6)))
        CFI (cfiCond262) ?RET_LOW load(1, XDATA, add(CFA_XSP16, literal(-5)))
        CFI (cfiCond262) ?RET_HIGH load(1, XDATA, add(CFA_XSP16, literal(-4)))
        CFI (cfiCond262) ?BRET_EXT load(1, XDATA, add(CFA_XSP16, literal(-3)))
        CFI (cfiCond262) DPL0 load(1, XDATA, add(CFA_XSP16, literal(-2)))
        CFI (cfiCond262) DPH0 load(1, XDATA, add(CFA_XSP16, literal(-1)))
        CFI (cfiCond262) CFA_SP SP+0
        CFI (cfiCond262) CFA_XSP16 add(XSP16, 23)
        CFI Block cfiCond263 Using cfiCommon0
        CFI (cfiCond263) NoFunction
        CFI (cfiCond263) Conditional ??CrossCallReturnLabel_138
        CFI (cfiCond263) R6 load(1, XDATA, add(CFA_XSP16, literal(-21)))
        CFI (cfiCond263) VB load(1, XDATA, add(CFA_XSP16, literal(-20)))
        CFI (cfiCond263) V0 load(1, XDATA, add(CFA_XSP16, literal(-19)))
        CFI (cfiCond263) V1 load(1, XDATA, add(CFA_XSP16, literal(-18)))
        CFI (cfiCond263) V2 load(1, XDATA, add(CFA_XSP16, literal(-17)))
        CFI (cfiCond263) V3 load(1, XDATA, add(CFA_XSP16, literal(-16)))
        CFI (cfiCond263) V4 load(1, XDATA, add(CFA_XSP16, literal(-15)))
        CFI (cfiCond263) V5 load(1, XDATA, add(CFA_XSP16, literal(-14)))
        CFI (cfiCond263) V6 load(1, XDATA, add(CFA_XSP16, literal(-13)))
        CFI (cfiCond263) V7 load(1, XDATA, add(CFA_XSP16, literal(-12)))
        CFI (cfiCond263) V8 load(1, XDATA, add(CFA_XSP16, literal(-11)))
        CFI (cfiCond263) V9 load(1, XDATA, add(CFA_XSP16, literal(-10)))
        CFI (cfiCond263) V10 load(1, XDATA, add(CFA_XSP16, literal(-9)))
        CFI (cfiCond263) V11 load(1, XDATA, add(CFA_XSP16, literal(-8)))
        CFI (cfiCond263) V12 load(1, XDATA, add(CFA_XSP16, literal(-7)))
        CFI (cfiCond263) R7 load(1, XDATA, add(CFA_XSP16, literal(-6)))
        CFI (cfiCond263) ?RET_LOW load(1, XDATA, add(CFA_XSP16, literal(-5)))
        CFI (cfiCond263) ?RET_HIGH load(1, XDATA, add(CFA_XSP16, literal(-4)))
        CFI (cfiCond263) ?BRET_EXT load(1, XDATA, add(CFA_XSP16, literal(-3)))
        CFI (cfiCond263) DPL0 load(1, XDATA, add(CFA_XSP16, literal(-2)))
        CFI (cfiCond263) DPH0 load(1, XDATA, add(CFA_XSP16, literal(-1)))
        CFI (cfiCond263) CFA_SP SP+0
        CFI (cfiCond263) CFA_XSP16 add(XSP16, 21)
        CFI Block cfiPicker264 Using cfiCommon1
        CFI (cfiPicker264) NoFunction
        CFI (cfiPicker264) Picker
        MOV     DPTR,#pMtAfInMsgList
        CFI EndBlock cfiCond261
        CFI EndBlock cfiCond262
        CFI EndBlock cfiCond263
        CFI EndBlock cfiPicker264
        REQUIRE ??Subroutine59_0
        ; // Fall through to label ??Subroutine59_0

        RSEG BANKED_CODE:CODE:NOROOT(0)
??Subroutine59_0:
        CFI Block cfiCond265 Using cfiCommon0
        CFI NoFunction
        CFI Conditional ??CrossCallReturnLabel_134
        CFI R6 load(1, XDATA, add(CFA_XSP16, literal(-9)))
        CFI VB load(1, XDATA, add(CFA_XSP16, literal(-8)))
        CFI V0 load(1, XDATA, add(CFA_XSP16, literal(-7)))
        CFI R7 load(1, XDATA, add(CFA_XSP16, literal(-6)))
        CFI ?RET_LOW load(1, XDATA, add(CFA_XSP16, literal(-5)))
        CFI ?RET_HIGH load(1, XDATA, add(CFA_XSP16, literal(-4)))
        CFI ?BRET_EXT load(1, XDATA, add(CFA_XSP16, literal(-3)))
        CFI DPL0 load(1, XDATA, add(CFA_XSP16, literal(-2)))
        CFI DPH0 load(1, XDATA, add(CFA_XSP16, literal(-1)))
        CFI CFA_SP SP+0
        CFI CFA_XSP16 add(XSP16, 9)
        CFI Block cfiCond266 Using cfiCommon0
        CFI (cfiCond266) NoFunction
        CFI (cfiCond266) Conditional ??CrossCallReturnLabel_135
        CFI (cfiCond266) R6 load(1, XDATA, add(CFA_XSP16, literal(-21)))
        CFI (cfiCond266) VB load(1, XDATA, add(CFA_XSP16, literal(-20)))
        CFI (cfiCond266) V0 load(1, XDATA, add(CFA_XSP16, literal(-19)))
        CFI (cfiCond266) V1 load(1, XDATA, add(CFA_XSP16, literal(-18)))
        CFI (cfiCond266) V2 load(1, XDATA, add(CFA_XSP16, literal(-17)))
        CFI (cfiCond266) V3 load(1, XDATA, add(CFA_XSP16, literal(-16)))
        CFI (cfiCond266) V4 load(1, XDATA, add(CFA_XSP16, literal(-15)))
        CFI (cfiCond266) V5 load(1, XDATA, add(CFA_XSP16, literal(-14)))
        CFI (cfiCond266) V6 load(1, XDATA, add(CFA_XSP16, literal(-13)))
        CFI (cfiCond266) V7 load(1, XDATA, add(CFA_XSP16, literal(-12)))
        CFI (cfiCond266) V8 load(1, XDATA, add(CFA_XSP16, literal(-11)))
        CFI (cfiCond266) V9 load(1, XDATA, add(CFA_XSP16, literal(-10)))
        CFI (cfiCond266) V10 load(1, XDATA, add(CFA_XSP16, literal(-9)))
        CFI (cfiCond266) V11 load(1, XDATA, add(CFA_XSP16, literal(-8)))
        CFI (cfiCond266) V12 load(1, XDATA, add(CFA_XSP16, literal(-7)))
        CFI (cfiCond266) R7 load(1, XDATA, add(CFA_XSP16, literal(-6)))
        CFI (cfiCond266) ?RET_LOW load(1, XDATA, add(CFA_XSP16, literal(-5)))
        CFI (cfiCond266) ?RET_HIGH load(1, XDATA, add(CFA_XSP16, literal(-4)))
        CFI (cfiCond266) ?BRET_EXT load(1, XDATA, add(CFA_XSP16, literal(-3)))
        CFI (cfiCond266) DPL0 load(1, XDATA, add(CFA_XSP16, literal(-2)))
        CFI (cfiCond266) DPH0 load(1, XDATA, add(CFA_XSP16, literal(-1)))
        CFI (cfiCond266) CFA_SP SP+0
        CFI (cfiCond266) CFA_XSP16 add(XSP16, 21)
        CFI Block cfiCond267 Using cfiCommon0
        CFI (cfiCond267) NoFunction
        CFI (cfiCond267) Conditional ??CrossCallReturnLabel_136
        CFI (cfiCond267) R6 load(1, XDATA, add(CFA_XSP16, literal(-9)))
        CFI (cfiCond267) VB load(1, XDATA, add(CFA_XSP16, literal(-8)))
        CFI (cfiCond267) V0 load(1, XDATA, add(CFA_XSP16, literal(-7)))
        CFI (cfiCond267) R7 load(1, XDATA, add(CFA_XSP16, literal(-6)))
        CFI (cfiCond267) ?RET_LOW load(1, XDATA, add(CFA_XSP16, literal(-5)))
        CFI (cfiCond267) ?RET_HIGH load(1, XDATA, add(CFA_XSP16, literal(-4)))
        CFI (cfiCond267) ?BRET_EXT load(1, XDATA, add(CFA_XSP16, literal(-3)))
        CFI (cfiCond267) DPL0 load(1, XDATA, add(CFA_XSP16, literal(-2)))
        CFI (cfiCond267) DPH0 load(1, XDATA, add(CFA_XSP16, literal(-1)))
        CFI (cfiCond267) CFA_SP SP+0
        CFI (cfiCond267) CFA_XSP16 add(XSP16, 9)
        CFI Block cfiCond268 Using cfiCommon0
        CFI (cfiCond268) NoFunction
        CFI (cfiCond268) Conditional ??CrossCallReturnLabel_137
        CFI (cfiCond268) R6 load(1, XDATA, add(CFA_XSP16, literal(-23)))
        CFI (cfiCond268) VB load(1, XDATA, add(CFA_XSP16, literal(-22)))
        CFI (cfiCond268) V0 load(1, XDATA, add(CFA_XSP16, literal(-21)))
        CFI (cfiCond268) V1 load(1, XDATA, add(CFA_XSP16, literal(-20)))
        CFI (cfiCond268) V2 load(1, XDATA, add(CFA_XSP16, literal(-19)))
        CFI (cfiCond268) V3 load(1, XDATA, add(CFA_XSP16, literal(-18)))
        CFI (cfiCond268) V4 load(1, XDATA, add(CFA_XSP16, literal(-17)))
        CFI (cfiCond268) V5 load(1, XDATA, add(CFA_XSP16, literal(-16)))
        CFI (cfiCond268) V6 load(1, XDATA, add(CFA_XSP16, literal(-15)))
        CFI (cfiCond268) V7 load(1, XDATA, add(CFA_XSP16, literal(-14)))
        CFI (cfiCond268) V8 load(1, XDATA, add(CFA_XSP16, literal(-13)))
        CFI (cfiCond268) V9 load(1, XDATA, add(CFA_XSP16, literal(-12)))
        CFI (cfiCond268) V10 load(1, XDATA, add(CFA_XSP16, literal(-11)))
        CFI (cfiCond268) V11 load(1, XDATA, add(CFA_XSP16, literal(-10)))
        CFI (cfiCond268) V12 load(1, XDATA, add(CFA_XSP16, literal(-9)))
        CFI (cfiCond268) V13 load(1, XDATA, add(CFA_XSP16, literal(-8)))
        CFI (cfiCond268) V14 load(1, XDATA, add(CFA_XSP16, literal(-7)))
        CFI (cfiCond268) R7 load(1, XDATA, add(CFA_XSP16, literal(-6)))
        CFI (cfiCond268) ?RET_LOW load(1, XDATA, add(CFA_XSP16, literal(-5)))
        CFI (cfiCond268) ?RET_HIGH load(1, XDATA, add(CFA_XSP16, literal(-4)))
        CFI (cfiCond268) ?BRET_EXT load(1, XDATA, add(CFA_XSP16, literal(-3)))
        CFI (cfiCond268) DPL0 load(1, XDATA, add(CFA_XSP16, literal(-2)))
        CFI (cfiCond268) DPH0 load(1, XDATA, add(CFA_XSP16, literal(-1)))
        CFI (cfiCond268) CFA_SP SP+0
        CFI (cfiCond268) CFA_XSP16 add(XSP16, 23)
        CFI Block cfiCond269 Using cfiCommon0
        CFI (cfiCond269) NoFunction
        CFI (cfiCond269) Conditional ??CrossCallReturnLabel_138
        CFI (cfiCond269) R6 load(1, XDATA, add(CFA_XSP16, literal(-21)))
        CFI (cfiCond269) VB load(1, XDATA, add(CFA_XSP16, literal(-20)))
        CFI (cfiCond269) V0 load(1, XDATA, add(CFA_XSP16, literal(-19)))
        CFI (cfiCond269) V1 load(1, XDATA, add(CFA_XSP16, literal(-18)))
        CFI (cfiCond269) V2 load(1, XDATA, add(CFA_XSP16, literal(-17)))
        CFI (cfiCond269) V3 load(1, XDATA, add(CFA_XSP16, literal(-16)))
        CFI (cfiCond269) V4 load(1, XDATA, add(CFA_XSP16, literal(-15)))
        CFI (cfiCond269) V5 load(1, XDATA, add(CFA_XSP16, literal(-14)))
        CFI (cfiCond269) V6 load(1, XDATA, add(CFA_XSP16, literal(-13)))
        CFI (cfiCond269) V7 load(1, XDATA, add(CFA_XSP16, literal(-12)))
        CFI (cfiCond269) V8 load(1, XDATA, add(CFA_XSP16, literal(-11)))
        CFI (cfiCond269) V9 load(1, XDATA, add(CFA_XSP16, literal(-10)))
        CFI (cfiCond269) V10 load(1, XDATA, add(CFA_XSP16, literal(-9)))
        CFI (cfiCond269) V11 load(1, XDATA, add(CFA_XSP16, literal(-8)))
        CFI (cfiCond269) V12 load(1, XDATA, add(CFA_XSP16, literal(-7)))
        CFI (cfiCond269) R7 load(1, XDATA, add(CFA_XSP16, literal(-6)))
        CFI (cfiCond269) ?RET_LOW load(1, XDATA, add(CFA_XSP16, literal(-5)))
        CFI (cfiCond269) ?RET_HIGH load(1, XDATA, add(CFA_XSP16, literal(-4)))
        CFI (cfiCond269) ?BRET_EXT load(1, XDATA, add(CFA_XSP16, literal(-3)))
        CFI (cfiCond269) DPL0 load(1, XDATA, add(CFA_XSP16, literal(-2)))
        CFI (cfiCond269) DPH0 load(1, XDATA, add(CFA_XSP16, literal(-1)))
        CFI (cfiCond269) CFA_SP SP+0
        CFI (cfiCond269) CFA_XSP16 add(XSP16, 21)
        CFI Block cfiPicker270 Using cfiCommon1
        CFI (cfiPicker270) NoFunction
        CFI (cfiPicker270) Picker
        MOVX    A,@DPTR
        MOV     R0,A
        INC     DPTR
        MOVX    A,@DPTR
        MOV     R1,A
        RET
        CFI EndBlock cfiCond265
        CFI EndBlock cfiCond266
        CFI EndBlock cfiCond267
        CFI EndBlock cfiCond268
        CFI EndBlock cfiCond269
        CFI EndBlock cfiPicker270

        RSEG BANKED_CODE:CODE:NOROOT(0)
?Subroutine15:
        CFI Block cfiCond271 Using cfiCommon0
        CFI NoFunction
        CFI Conditional ??CrossCallReturnLabel_21
        CFI R6 load(1, XDATA, add(CFA_XSP16, literal(-9)))
        CFI VB load(1, XDATA, add(CFA_XSP16, literal(-8)))
        CFI V0 load(1, XDATA, add(CFA_XSP16, literal(-7)))
        CFI R7 load(1, XDATA, add(CFA_XSP16, literal(-6)))
        CFI ?RET_LOW load(1, XDATA, add(CFA_XSP16, literal(-5)))
        CFI ?RET_HIGH load(1, XDATA, add(CFA_XSP16, literal(-4)))
        CFI ?BRET_EXT load(1, XDATA, add(CFA_XSP16, literal(-3)))
        CFI DPL0 load(1, XDATA, add(CFA_XSP16, literal(-2)))
        CFI DPH0 load(1, XDATA, add(CFA_XSP16, literal(-1)))
        CFI CFA_SP SP+0
        CFI CFA_XSP16 add(XSP16, 9)
        CFI Block cfiCond272 Using cfiCommon0
        CFI (cfiCond272) NoFunction
        CFI (cfiCond272) Conditional ??CrossCallReturnLabel_22
        CFI (cfiCond272) R6 load(1, XDATA, add(CFA_XSP16, literal(-21)))
        CFI (cfiCond272) VB load(1, XDATA, add(CFA_XSP16, literal(-20)))
        CFI (cfiCond272) V0 load(1, XDATA, add(CFA_XSP16, literal(-19)))
        CFI (cfiCond272) V1 load(1, XDATA, add(CFA_XSP16, literal(-18)))
        CFI (cfiCond272) V2 load(1, XDATA, add(CFA_XSP16, literal(-17)))
        CFI (cfiCond272) V3 load(1, XDATA, add(CFA_XSP16, literal(-16)))
        CFI (cfiCond272) V4 load(1, XDATA, add(CFA_XSP16, literal(-15)))
        CFI (cfiCond272) V5 load(1, XDATA, add(CFA_XSP16, literal(-14)))
        CFI (cfiCond272) V6 load(1, XDATA, add(CFA_XSP16, literal(-13)))
        CFI (cfiCond272) V7 load(1, XDATA, add(CFA_XSP16, literal(-12)))
        CFI (cfiCond272) V8 load(1, XDATA, add(CFA_XSP16, literal(-11)))
        CFI (cfiCond272) V9 load(1, XDATA, add(CFA_XSP16, literal(-10)))
        CFI (cfiCond272) V10 load(1, XDATA, add(CFA_XSP16, literal(-9)))
        CFI (cfiCond272) V11 load(1, XDATA, add(CFA_XSP16, literal(-8)))
        CFI (cfiCond272) V12 load(1, XDATA, add(CFA_XSP16, literal(-7)))
        CFI (cfiCond272) R7 load(1, XDATA, add(CFA_XSP16, literal(-6)))
        CFI (cfiCond272) ?RET_LOW load(1, XDATA, add(CFA_XSP16, literal(-5)))
        CFI (cfiCond272) ?RET_HIGH load(1, XDATA, add(CFA_XSP16, literal(-4)))
        CFI (cfiCond272) ?BRET_EXT load(1, XDATA, add(CFA_XSP16, literal(-3)))
        CFI (cfiCond272) DPL0 load(1, XDATA, add(CFA_XSP16, literal(-2)))
        CFI (cfiCond272) DPH0 load(1, XDATA, add(CFA_XSP16, literal(-1)))
        CFI (cfiCond272) CFA_SP SP+0
        CFI (cfiCond272) CFA_XSP16 add(XSP16, 21)
        CFI Block cfiPicker273 Using cfiCommon1
        CFI (cfiPicker273) NoFunction
        CFI (cfiPicker273) Picker
        MOVX    A,@DPTR
        MOV     R0,A
        INC     DPTR
        MOVX    A,@DPTR
        MOV     R1,A
        MOV     DPTR,#pMtAfInMsgList
        RET
        CFI EndBlock cfiCond271
        CFI EndBlock cfiCond272
        CFI EndBlock cfiPicker273

        RSEG BANKED_CODE:CODE:NOROOT(0)
?Subroutine11:
        CFI Block cfiCond274 Using cfiCommon0
        CFI NoFunction
        CFI Conditional ??CrossCallReturnLabel_14
        CFI R6 load(1, XDATA, add(CFA_XSP16, literal(-22)))
        CFI VB load(1, XDATA, add(CFA_XSP16, literal(-21)))
        CFI V0 load(1, XDATA, add(CFA_XSP16, literal(-20)))
        CFI V1 load(1, XDATA, add(CFA_XSP16, literal(-19)))
        CFI V2 load(1, XDATA, add(CFA_XSP16, literal(-18)))
        CFI V3 load(1, XDATA, add(CFA_XSP16, literal(-17)))
        CFI V4 load(1, XDATA, add(CFA_XSP16, literal(-16)))
        CFI V5 load(1, XDATA, add(CFA_XSP16, literal(-15)))
        CFI V6 load(1, XDATA, add(CFA_XSP16, literal(-14)))
        CFI V7 load(1, XDATA, add(CFA_XSP16, literal(-13)))
        CFI V8 load(1, XDATA, add(CFA_XSP16, literal(-12)))
        CFI V9 load(1, XDATA, add(CFA_XSP16, literal(-11)))
        CFI V10 load(1, XDATA, add(CFA_XSP16, literal(-10)))
        CFI V11 load(1, XDATA, add(CFA_XSP16, literal(-9)))
        CFI V12 load(1, XDATA, add(CFA_XSP16, literal(-8)))
        CFI V13 load(1, XDATA, add(CFA_XSP16, literal(-7)))
        CFI R7 load(1, XDATA, add(CFA_XSP16, literal(-6)))
        CFI ?RET_LOW load(1, XDATA, add(CFA_XSP16, literal(-5)))
        CFI ?RET_HIGH load(1, XDATA, add(CFA_XSP16, literal(-4)))
        CFI ?BRET_EXT load(1, XDATA, add(CFA_XSP16, literal(-3)))
        CFI DPL0 load(1, XDATA, add(CFA_XSP16, literal(-2)))
        CFI DPH0 load(1, XDATA, add(CFA_XSP16, literal(-1)))
        CFI CFA_SP SP+0
        CFI CFA_XSP16 add(XSP16, 36)
        CFI Block cfiCond275 Using cfiCommon0
        CFI (cfiCond275) NoFunction
        CFI (cfiCond275) Conditional ??CrossCallReturnLabel_15
        CFI (cfiCond275) R6 load(1, XDATA, add(CFA_XSP16, literal(-21)))
        CFI (cfiCond275) VB load(1, XDATA, add(CFA_XSP16, literal(-20)))
        CFI (cfiCond275) V0 load(1, XDATA, add(CFA_XSP16, literal(-19)))
        CFI (cfiCond275) V1 load(1, XDATA, add(CFA_XSP16, literal(-18)))
        CFI (cfiCond275) V2 load(1, XDATA, add(CFA_XSP16, literal(-17)))
        CFI (cfiCond275) V3 load(1, XDATA, add(CFA_XSP16, literal(-16)))
        CFI (cfiCond275) V4 load(1, XDATA, add(CFA_XSP16, literal(-15)))
        CFI (cfiCond275) V5 load(1, XDATA, add(CFA_XSP16, literal(-14)))
        CFI (cfiCond275) V6 load(1, XDATA, add(CFA_XSP16, literal(-13)))
        CFI (cfiCond275) V7 load(1, XDATA, add(CFA_XSP16, literal(-12)))
        CFI (cfiCond275) V8 load(1, XDATA, add(CFA_XSP16, literal(-11)))
        CFI (cfiCond275) V9 load(1, XDATA, add(CFA_XSP16, literal(-10)))
        CFI (cfiCond275) V10 load(1, XDATA, add(CFA_XSP16, literal(-9)))
        CFI (cfiCond275) V11 load(1, XDATA, add(CFA_XSP16, literal(-8)))
        CFI (cfiCond275) V12 load(1, XDATA, add(CFA_XSP16, literal(-7)))
        CFI (cfiCond275) R7 load(1, XDATA, add(CFA_XSP16, literal(-6)))
        CFI (cfiCond275) ?RET_LOW load(1, XDATA, add(CFA_XSP16, literal(-5)))
        CFI (cfiCond275) ?RET_HIGH load(1, XDATA, add(CFA_XSP16, literal(-4)))
        CFI (cfiCond275) ?BRET_EXT load(1, XDATA, add(CFA_XSP16, literal(-3)))
        CFI (cfiCond275) DPL0 load(1, XDATA, add(CFA_XSP16, literal(-2)))
        CFI (cfiCond275) DPH0 load(1, XDATA, add(CFA_XSP16, literal(-1)))
        CFI (cfiCond275) CFA_SP SP+0
        CFI (cfiCond275) CFA_XSP16 add(XSP16, 21)
        CFI Block cfiCond276 Using cfiCommon0
        CFI (cfiCond276) NoFunction
        CFI (cfiCond276) Conditional ??CrossCallReturnLabel_16
        CFI (cfiCond276) R6 load(1, XDATA, add(CFA_XSP16, literal(-21)))
        CFI (cfiCond276) VB load(1, XDATA, add(CFA_XSP16, literal(-20)))
        CFI (cfiCond276) V0 load(1, XDATA, add(CFA_XSP16, literal(-19)))
        CFI (cfiCond276) V1 load(1, XDATA, add(CFA_XSP16, literal(-18)))
        CFI (cfiCond276) V2 load(1, XDATA, add(CFA_XSP16, literal(-17)))
        CFI (cfiCond276) V3 load(1, XDATA, add(CFA_XSP16, literal(-16)))
        CFI (cfiCond276) V4 load(1, XDATA, add(CFA_XSP16, literal(-15)))
        CFI (cfiCond276) V5 load(1, XDATA, add(CFA_XSP16, literal(-14)))
        CFI (cfiCond276) V6 load(1, XDATA, add(CFA_XSP16, literal(-13)))
        CFI (cfiCond276) V7 load(1, XDATA, add(CFA_XSP16, literal(-12)))
        CFI (cfiCond276) V8 load(1, XDATA, add(CFA_XSP16, literal(-11)))
        CFI (cfiCond276) V9 load(1, XDATA, add(CFA_XSP16, literal(-10)))
        CFI (cfiCond276) V10 load(1, XDATA, add(CFA_XSP16, literal(-9)))
        CFI (cfiCond276) V11 load(1, XDATA, add(CFA_XSP16, literal(-8)))
        CFI (cfiCond276) V12 load(1, XDATA, add(CFA_XSP16, literal(-7)))
        CFI (cfiCond276) R7 load(1, XDATA, add(CFA_XSP16, literal(-6)))
        CFI (cfiCond276) ?RET_LOW load(1, XDATA, add(CFA_XSP16, literal(-5)))
        CFI (cfiCond276) ?RET_HIGH load(1, XDATA, add(CFA_XSP16, literal(-4)))
        CFI (cfiCond276) ?BRET_EXT load(1, XDATA, add(CFA_XSP16, literal(-3)))
        CFI (cfiCond276) DPL0 load(1, XDATA, add(CFA_XSP16, literal(-2)))
        CFI (cfiCond276) DPH0 load(1, XDATA, add(CFA_XSP16, literal(-1)))
        CFI (cfiCond276) CFA_SP SP+0
        CFI (cfiCond276) CFA_XSP16 add(XSP16, 21)
        CFI Block cfiPicker277 Using cfiCommon1
        CFI (cfiPicker277) NoFunction
        CFI (cfiPicker277) Picker
        MOVX    A,@DPTR
        MOV     ?V0 + 2,A
        INC     DPTR
        MOVX    A,@DPTR
        MOV     ?V0 + 3,A
        RET
        CFI EndBlock cfiCond274
        CFI EndBlock cfiCond275
        CFI EndBlock cfiCond276
        CFI EndBlock cfiPicker277
//  842 
//  843 /**************************************************************************************************
//  844  * @fn          MT_AfDataStore
//  845  *
//  846  * @brief   Process AF Data Store command to incrementally store the data buffer for very large
//  847  *          outgoing AF message.
//  848  *
//  849  * input parameters
//  850  *
//  851  * @param pBuf - pointer to the received buffer
//  852  *
//  853  * output parameters
//  854  *
//  855  * @param rtrn - AF-Status of the operation.
//  856  *
//  857  * @return      None.
//  858  **************************************************************************************************
//  859  */

        RSEG BANKED_CODE:CODE:NOROOT(0)
//  860 void MT_AfDataStore(uint8 *pBuf)
MT_AfDataStore:
        CFI Block cfiBlock278 Using cfiCommon0
        CFI Function MT_AfDataStore
        CODE
//  861 {
        FUNCALL MT_AfDataStore, AF_DataRequest
        LOCFRAME ISTACK, 0, STACK
        LOCFRAME PSTACK, 0, STACK
        LOCFRAME XSTACK, 21, STACK
        LOCFRAME IOVERLAY, 0, STATIC
        LOCFRAME DOVERLAY, 0, STATIC
        ARGFRAME ISTACK, 0, STACK
        ARGFRAME PSTACK, 0, STACK
        ARGFRAME XSTACK, 21, STACK
        ARGFRAME IOVERLAY, 0, STATIC
        ARGFRAME DOVERLAY, 0, STATIC
        FUNCALL MT_AfDataStore, osal_mem_free
        LOCFRAME ISTACK, 0, STACK
        LOCFRAME PSTACK, 0, STACK
        LOCFRAME XSTACK, 12, STACK
        LOCFRAME IOVERLAY, 0, STATIC
        LOCFRAME DOVERLAY, 0, STATIC
        ARGFRAME ISTACK, 0, STACK
        ARGFRAME PSTACK, 0, STACK
        ARGFRAME XSTACK, 12, STACK
        ARGFRAME IOVERLAY, 0, STATIC
        ARGFRAME DOVERLAY, 0, STATIC
        FUNCALL MT_AfDataStore, osal_memcpy
        LOCFRAME ISTACK, 0, STACK
        LOCFRAME PSTACK, 0, STACK
        LOCFRAME XSTACK, 15, STACK
        LOCFRAME IOVERLAY, 0, STATIC
        LOCFRAME DOVERLAY, 0, STATIC
        ARGFRAME ISTACK, 0, STACK
        ARGFRAME PSTACK, 0, STACK
        ARGFRAME XSTACK, 15, STACK
        ARGFRAME IOVERLAY, 0, STATIC
        ARGFRAME DOVERLAY, 0, STATIC
        FUNCALL MT_AfDataStore, MT_BuildAndSendZToolResponse
        LOCFRAME ISTACK, 0, STACK
        LOCFRAME PSTACK, 0, STACK
        LOCFRAME XSTACK, 12, STACK
        LOCFRAME IOVERLAY, 0, STATIC
        LOCFRAME DOVERLAY, 0, STATIC
        ARGFRAME ISTACK, 0, STACK
        ARGFRAME PSTACK, 0, STACK
        ARGFRAME XSTACK, 12, STACK
        ARGFRAME IOVERLAY, 0, STATIC
        ARGFRAME DOVERLAY, 0, STATIC
        MOV     A,#-0xb
        LCALL   ?BANKED_ENTER_XDATA
        CFI DPH0 load(1, XDATA, add(CFA_XSP16, literal(-1)))
        CFI DPL0 load(1, XDATA, add(CFA_XSP16, literal(-2)))
        CFI ?BRET_EXT load(1, XDATA, add(CFA_XSP16, literal(-3)))
        CFI ?RET_HIGH load(1, XDATA, add(CFA_XSP16, literal(-4)))
        CFI ?RET_LOW load(1, XDATA, add(CFA_XSP16, literal(-5)))
        CFI R7 load(1, XDATA, add(CFA_XSP16, literal(-6)))
        CFI V2 load(1, XDATA, add(CFA_XSP16, literal(-7)))
        CFI V1 load(1, XDATA, add(CFA_XSP16, literal(-8)))
        CFI V0 load(1, XDATA, add(CFA_XSP16, literal(-9)))
        CFI VB load(1, XDATA, add(CFA_XSP16, literal(-10)))
        CFI R6 load(1, XDATA, add(CFA_XSP16, literal(-11)))
        CFI CFA_SP SP+0
        CFI CFA_XSP16 add(XSP16, 11)
        ; Saved register size: 11
        ; Auto size: 1
        MOV     A,#-0x1
        LCALL   ?ALLOC_XSTACK8
        CFI CFA_XSP16 add(XSP16, 12)
//  862   uint16 idx;
//  863   uint8 len, rtrn = afStatus_FAILED;
        MOV     DPL,?XSP + 0
        MOV     DPH,?XSP + 1
        MOV     A,#0x1
        MOVX    @DPTR,A
//  864 
//  865   pBuf += MT_RPC_FRAME_HDR_SZ;
        MOV     A,R2
        ADD     A,#0x3
        INC     R2
        INC     R2
        INC     R2
        MOV     A,R3
        LCALL   ?Subroutine22 & 0xFFFF
//  866   idx = BUILD_UINT16(pBuf[0], pBuf[1]);
??CrossCallReturnLabel_28:
        MOV     R1,A
        MOV     A,R4
        ADD     A,#0x0
        MOV     R6,A
        CLR     A
        ADDC    A,R1
        MOV     R7,A
//  867   len = pBuf[2];
        MOV     DPL,R2
        MOV     DPH,R3
        INC     DPTR
        INC     DPTR
        MOVX    A,@DPTR
        MOV     R4,A
//  868   pBuf += 3;
        MOV     A,R2
        ADD     A,#0x3
        INC     R2
        INC     R2
        INC     R2
        MOV     A,R3
        ADDC    A,#0x0
        MOV     R3,A
//  869 
//  870   if (pMtAfDataReq == NULL)
        LCALL   ?Subroutine3 & 0xFFFF
??CrossCallReturnLabel_96:
        JNZ     ??MT_AfDataStore_0
//  871   {
//  872     rtrn = afStatus_MEM_FAIL;
        MOV     DPL,?XSP + 0
        MOV     DPH,?XSP + 1
        MOV     A,#0x10
        LJMP    ??MT_AfDataStore_1 & 0xFFFF
//  873   }
//  874   else if (len == 0)  // Indication to send the message.
??MT_AfDataStore_0:
        MOV     A,R4
        JNZ     ??MT_AfDataStore_2
//  875   {
//  876     rtrn = AF_DataRequest(&(pMtAfDataReq->dstAddr), pMtAfDataReq->epDesc, pMtAfDataReq->cId,
//  877                             pMtAfDataReq->dataLen,  pMtAfDataReq->data,
//  878                           &(pMtAfDataReq->transId), pMtAfDataReq->txOpts, pMtAfDataReq->radius);
        ; Setup parameters for call to function AF_DataRequest
        MOV     DPTR,#pMtAfDataReq
        MOVX    A,@DPTR
        ADD     A,#0x16
        LCALL   ??Subroutine48_0 & 0xFFFF
??CrossCallReturnLabel_78:
        MOV     ?V0 + 0,A
        MOV     R0,#?V0 + 0
        LCALL   ?PUSH_XSTACK_I_ONE
        CFI CFA_XSP16 add(XSP16, 13)
        MOV     DPTR,#pMtAfDataReq
        MOVX    A,@DPTR
        ADD     A,#0x14
        MOV     ?V0 + 0,A
        INC     DPTR
        MOVX    A,@DPTR
        ADDC    A,#0x0
        MOV     ?V0 + 1,A
        MOV     R0,#?V0 + 0
        LCALL   ?PUSH_XSTACK_I_TWO
        CFI CFA_XSP16 add(XSP16, 15)
        LCALL   ?Subroutine10 & 0xFFFF
??CrossCallReturnLabel_12:
        LCALL   ?PUSH_XSTACK8_X_TWO
        CFI CFA_XSP16 add(XSP16, 17)
        MOV     DPTR,#pMtAfDataReq
        MOVX    A,@DPTR
        ADD     A,#0x12
        LCALL   ??Subroutine60_0 & 0xFFFF
??CrossCallReturnLabel_145:
        LCALL   ?PUSH_XSTACK8_X_TWO
        CFI CFA_XSP16 add(XSP16, 19)
        LCALL   ?Subroutine5 & 0xFFFF
??CrossCallReturnLabel_147:
        LCALL   ?PUSH_XSTACK8_X_TWO
        CFI CFA_XSP16 add(XSP16, 21)
        MOV     DPTR,#pMtAfDataReq
        MOVX    A,@DPTR
        ADD     A,#0x15
        LCALL   ??Subroutine48_0 & 0xFFFF
??CrossCallReturnLabel_79:
        MOV     R1,A
        MOV     DPTR,#pMtAfDataReq
        MOVX    A,@DPTR
        ADD     A,#0xe
        MOV     R2,A
        INC     DPTR
        MOVX    A,@DPTR
        LCALL   ?Subroutine22 & 0xFFFF
??CrossCallReturnLabel_29:
        MOV     R5,A
        LCALL   ?Subroutine13 & 0xFFFF
??CrossCallReturnLabel_18:
        LCALL   ??AF_DataRequest?relay
        MOV     A,#0x9
        LCALL   ?DEALLOC_XSTACK8
        CFI CFA_XSP16 add(XSP16, 12)
        MOV     A,R1
        MOV     DPL,?XSP + 0
        MOV     DPH,?XSP + 1
        MOVX    @DPTR,A
//  879     (void)osal_mem_free(pMtAfDataReq);
        ; Setup parameters for call to function osal_mem_free
        LCALL   ?Subroutine9 & 0xFFFF
//  880     pMtAfDataReq = NULL;
//  881   }
??CrossCallReturnLabel_10:
        SJMP    ??MT_AfDataStore_1
//  882   else
//  883   {
//  884     (void)osal_memcpy(pMtAfDataReq->data+idx, pBuf, len);
??MT_AfDataStore_2:
        ; Setup parameters for call to function osal_memcpy
        MOV     ?V0 + 0,R2
        MOV     ?V0 + 1,R3
        MOV     ?V0 + 2,#0x0
        MOV     R0,#?V0 + 0
        LCALL   ?PUSH_XSTACK_I_THREE
        CFI CFA_XSP16 add(XSP16, 15)
        MOV     R5,#0x0
        LCALL   ?Subroutine10 & 0xFFFF
??CrossCallReturnLabel_13:
        MOVX    A,@DPTR
        ADD     A,R6
        MOV     R2,A
        INC     DPTR
        MOVX    A,@DPTR
        ADDC    A,R7
        LCALL   ?Subroutine35 & 0xFFFF
??CrossCallReturnLabel_129:
        LCALL   ?DEALLOC_XSTACK8
        CFI CFA_XSP16 add(XSP16, 12)
//  885     rtrn = afStatus_SUCCESS;
        MOV     DPL,?XSP + 0
        MOV     DPH,?XSP + 1
        CLR     A
//  886   }
??MT_AfDataStore_1:
        LCALL   ?Subroutine30 & 0xFFFF
//  887 
//  888   MT_BuildAndSendZToolResponse(((uint8)MT_RPC_CMD_SRSP | (uint8)MT_RPC_SYS_AF),
//  889                                                                 MT_AF_DATA_STORE, 1, &rtrn);
??CrossCallReturnLabel_46:
        MOV     R3,#0x1
        MOV     R2,#0x11
        MOV     R1,#0x64
        LCALL   ??MT_BuildAndSendZToolResponse?relay
//  890 }
        MOV     A,#0x1
        LCALL   ?DEALLOC_XSTACK8
        CFI CFA_XSP16 add(XSP16, 11)
        MOV     R7,#0x3
        LJMP    ?BANKED_LEAVE_XDATA
        CFI EndBlock cfiBlock278

        RSEG BANKED_CODE:CODE:NOROOT(0)
?Subroutine30:
        CFI Block cfiCond279 Using cfiCommon0
        CFI NoFunction
        CFI Conditional ??CrossCallReturnLabel_45
        CFI DPL0 Frame(CFA_SP, 4)
        CFI DPH0 Frame(CFA_SP, 5)
        CFI CFA_SP SP+-5
        CFI CFA_XSP16 add(XSP16, 3)
        CFI Block cfiCond280 Using cfiCommon0
        CFI (cfiCond280) NoFunction
        CFI (cfiCond280) Conditional ??CrossCallReturnLabel_46
        CFI (cfiCond280) R6 load(1, XDATA, add(CFA_XSP16, literal(-11)))
        CFI (cfiCond280) VB load(1, XDATA, add(CFA_XSP16, literal(-10)))
        CFI (cfiCond280) V0 load(1, XDATA, add(CFA_XSP16, literal(-9)))
        CFI (cfiCond280) V1 load(1, XDATA, add(CFA_XSP16, literal(-8)))
        CFI (cfiCond280) V2 load(1, XDATA, add(CFA_XSP16, literal(-7)))
        CFI (cfiCond280) R7 load(1, XDATA, add(CFA_XSP16, literal(-6)))
        CFI (cfiCond280) ?RET_LOW load(1, XDATA, add(CFA_XSP16, literal(-5)))
        CFI (cfiCond280) ?RET_HIGH load(1, XDATA, add(CFA_XSP16, literal(-4)))
        CFI (cfiCond280) ?BRET_EXT load(1, XDATA, add(CFA_XSP16, literal(-3)))
        CFI (cfiCond280) DPL0 load(1, XDATA, add(CFA_XSP16, literal(-2)))
        CFI (cfiCond280) DPH0 load(1, XDATA, add(CFA_XSP16, literal(-1)))
        CFI (cfiCond280) CFA_SP SP+0
        CFI (cfiCond280) CFA_XSP16 add(XSP16, 12)
        CFI Block cfiPicker281 Using cfiCommon1
        CFI (cfiPicker281) NoFunction
        CFI (cfiPicker281) Picker
        MOVX    @DPTR,A
        ; Setup parameters for call to function MT_BuildAndSendZToolResponse
        ; Setup parameters for call to function MT_BuildAndSendZToolResponse
        MOV     DPL,?XSP + 0
        MOV     DPH,?XSP + 1
        MOV     R4,DPL
        MOV     R5,DPH
        RET
        CFI EndBlock cfiCond279
        CFI EndBlock cfiCond280
        CFI EndBlock cfiPicker281

        RSEG BANKED_CODE:CODE:NOROOT(0)
?Subroutine22:
        CFI Block cfiCond282 Using cfiCommon0
        CFI NoFunction
        CFI Conditional ??CrossCallReturnLabel_28
        CFI R6 load(1, XDATA, add(CFA_XSP16, literal(-11)))
        CFI VB load(1, XDATA, add(CFA_XSP16, literal(-10)))
        CFI V0 load(1, XDATA, add(CFA_XSP16, literal(-9)))
        CFI V1 load(1, XDATA, add(CFA_XSP16, literal(-8)))
        CFI V2 load(1, XDATA, add(CFA_XSP16, literal(-7)))
        CFI R7 load(1, XDATA, add(CFA_XSP16, literal(-6)))
        CFI ?RET_LOW load(1, XDATA, add(CFA_XSP16, literal(-5)))
        CFI ?RET_HIGH load(1, XDATA, add(CFA_XSP16, literal(-4)))
        CFI ?BRET_EXT load(1, XDATA, add(CFA_XSP16, literal(-3)))
        CFI DPL0 load(1, XDATA, add(CFA_XSP16, literal(-2)))
        CFI DPH0 load(1, XDATA, add(CFA_XSP16, literal(-1)))
        CFI CFA_SP SP+0
        CFI CFA_XSP16 add(XSP16, 12)
        CFI Block cfiCond283 Using cfiCommon0
        CFI (cfiCond283) NoFunction
        CFI (cfiCond283) Conditional ??CrossCallReturnLabel_29
        CFI (cfiCond283) R6 load(1, XDATA, add(CFA_XSP16, literal(-11)))
        CFI (cfiCond283) VB load(1, XDATA, add(CFA_XSP16, literal(-10)))
        CFI (cfiCond283) V0 load(1, XDATA, add(CFA_XSP16, literal(-9)))
        CFI (cfiCond283) V1 load(1, XDATA, add(CFA_XSP16, literal(-8)))
        CFI (cfiCond283) V2 load(1, XDATA, add(CFA_XSP16, literal(-7)))
        CFI (cfiCond283) R7 load(1, XDATA, add(CFA_XSP16, literal(-6)))
        CFI (cfiCond283) ?RET_LOW load(1, XDATA, add(CFA_XSP16, literal(-5)))
        CFI (cfiCond283) ?RET_HIGH load(1, XDATA, add(CFA_XSP16, literal(-4)))
        CFI (cfiCond283) ?BRET_EXT load(1, XDATA, add(CFA_XSP16, literal(-3)))
        CFI (cfiCond283) DPL0 load(1, XDATA, add(CFA_XSP16, literal(-2)))
        CFI (cfiCond283) DPH0 load(1, XDATA, add(CFA_XSP16, literal(-1)))
        CFI (cfiCond283) CFA_SP SP+0
        CFI (cfiCond283) CFA_XSP16 add(XSP16, 21)
        CFI Block cfiPicker284 Using cfiCommon1
        CFI (cfiPicker284) NoFunction
        CFI (cfiPicker284) Picker
        ADDC    A,#0x0
        MOV     R3,A
        MOV     DPL,R2
        MOV     DPH,R3
        MOVX    A,@DPTR
        MOV     R4,A
        INC     DPTR
        MOVX    A,@DPTR
        RET
        CFI EndBlock cfiCond282
        CFI EndBlock cfiCond283
        CFI EndBlock cfiPicker284

        RSEG BANKED_CODE:CODE:NOROOT(0)
?Subroutine13:
        CFI Block cfiCond285 Using cfiCommon0
        CFI NoFunction
        CFI Conditional ??CrossCallReturnLabel_17
        CFI R6 load(1, XDATA, add(CFA_XSP16, literal(-22)))
        CFI VB load(1, XDATA, add(CFA_XSP16, literal(-21)))
        CFI V0 load(1, XDATA, add(CFA_XSP16, literal(-20)))
        CFI V1 load(1, XDATA, add(CFA_XSP16, literal(-19)))
        CFI V2 load(1, XDATA, add(CFA_XSP16, literal(-18)))
        CFI V3 load(1, XDATA, add(CFA_XSP16, literal(-17)))
        CFI V4 load(1, XDATA, add(CFA_XSP16, literal(-16)))
        CFI V5 load(1, XDATA, add(CFA_XSP16, literal(-15)))
        CFI V6 load(1, XDATA, add(CFA_XSP16, literal(-14)))
        CFI V7 load(1, XDATA, add(CFA_XSP16, literal(-13)))
        CFI V8 load(1, XDATA, add(CFA_XSP16, literal(-12)))
        CFI V9 load(1, XDATA, add(CFA_XSP16, literal(-11)))
        CFI V10 load(1, XDATA, add(CFA_XSP16, literal(-10)))
        CFI V11 load(1, XDATA, add(CFA_XSP16, literal(-9)))
        CFI V12 load(1, XDATA, add(CFA_XSP16, literal(-8)))
        CFI V13 load(1, XDATA, add(CFA_XSP16, literal(-7)))
        CFI R7 load(1, XDATA, add(CFA_XSP16, literal(-6)))
        CFI ?RET_LOW load(1, XDATA, add(CFA_XSP16, literal(-5)))
        CFI ?RET_HIGH load(1, XDATA, add(CFA_XSP16, literal(-4)))
        CFI ?BRET_EXT load(1, XDATA, add(CFA_XSP16, literal(-3)))
        CFI DPL0 load(1, XDATA, add(CFA_XSP16, literal(-2)))
        CFI DPH0 load(1, XDATA, add(CFA_XSP16, literal(-1)))
        CFI CFA_SP SP+0
        CFI CFA_XSP16 add(XSP16, 39)
        CFI Block cfiCond286 Using cfiCommon0
        CFI (cfiCond286) NoFunction
        CFI (cfiCond286) Conditional ??CrossCallReturnLabel_18
        CFI (cfiCond286) R6 load(1, XDATA, add(CFA_XSP16, literal(-11)))
        CFI (cfiCond286) VB load(1, XDATA, add(CFA_XSP16, literal(-10)))
        CFI (cfiCond286) V0 load(1, XDATA, add(CFA_XSP16, literal(-9)))
        CFI (cfiCond286) V1 load(1, XDATA, add(CFA_XSP16, literal(-8)))
        CFI (cfiCond286) V2 load(1, XDATA, add(CFA_XSP16, literal(-7)))
        CFI (cfiCond286) R7 load(1, XDATA, add(CFA_XSP16, literal(-6)))
        CFI (cfiCond286) ?RET_LOW load(1, XDATA, add(CFA_XSP16, literal(-5)))
        CFI (cfiCond286) ?RET_HIGH load(1, XDATA, add(CFA_XSP16, literal(-4)))
        CFI (cfiCond286) ?BRET_EXT load(1, XDATA, add(CFA_XSP16, literal(-3)))
        CFI (cfiCond286) DPL0 load(1, XDATA, add(CFA_XSP16, literal(-2)))
        CFI (cfiCond286) DPH0 load(1, XDATA, add(CFA_XSP16, literal(-1)))
        CFI (cfiCond286) CFA_SP SP+0
        CFI (cfiCond286) CFA_XSP16 add(XSP16, 21)
        CFI Block cfiPicker287 Using cfiCommon1
        CFI (cfiPicker287) NoFunction
        CFI (cfiPicker287) Picker
        MOV     DPTR,#pMtAfDataReq
        MOVX    A,@DPTR
        ADD     A,#0x2
        MOV     R2,A
        INC     DPTR
        MOVX    A,@DPTR
        ADDC    A,#0x0
        MOV     R3,A
        RET
        CFI EndBlock cfiCond285
        CFI EndBlock cfiCond286
        CFI EndBlock cfiPicker287

        RSEG BANKED_CODE:CODE:NOROOT(0)
?Subroutine10:
        CFI Block cfiCond288 Using cfiCommon0
        CFI NoFunction
        CFI Conditional ??CrossCallReturnLabel_11
        CFI R6 load(1, XDATA, add(CFA_XSP16, literal(-22)))
        CFI VB load(1, XDATA, add(CFA_XSP16, literal(-21)))
        CFI V0 load(1, XDATA, add(CFA_XSP16, literal(-20)))
        CFI V1 load(1, XDATA, add(CFA_XSP16, literal(-19)))
        CFI V2 load(1, XDATA, add(CFA_XSP16, literal(-18)))
        CFI V3 load(1, XDATA, add(CFA_XSP16, literal(-17)))
        CFI V4 load(1, XDATA, add(CFA_XSP16, literal(-16)))
        CFI V5 load(1, XDATA, add(CFA_XSP16, literal(-15)))
        CFI V6 load(1, XDATA, add(CFA_XSP16, literal(-14)))
        CFI V7 load(1, XDATA, add(CFA_XSP16, literal(-13)))
        CFI V8 load(1, XDATA, add(CFA_XSP16, literal(-12)))
        CFI V9 load(1, XDATA, add(CFA_XSP16, literal(-11)))
        CFI V10 load(1, XDATA, add(CFA_XSP16, literal(-10)))
        CFI V11 load(1, XDATA, add(CFA_XSP16, literal(-9)))
        CFI V12 load(1, XDATA, add(CFA_XSP16, literal(-8)))
        CFI V13 load(1, XDATA, add(CFA_XSP16, literal(-7)))
        CFI R7 load(1, XDATA, add(CFA_XSP16, literal(-6)))
        CFI ?RET_LOW load(1, XDATA, add(CFA_XSP16, literal(-5)))
        CFI ?RET_HIGH load(1, XDATA, add(CFA_XSP16, literal(-4)))
        CFI ?BRET_EXT load(1, XDATA, add(CFA_XSP16, literal(-3)))
        CFI DPL0 load(1, XDATA, add(CFA_XSP16, literal(-2)))
        CFI DPH0 load(1, XDATA, add(CFA_XSP16, literal(-1)))
        CFI CFA_SP SP+0
        CFI CFA_XSP16 add(XSP16, 36)
        CFI Block cfiCond289 Using cfiCommon0
        CFI (cfiCond289) NoFunction
        CFI (cfiCond289) Conditional ??CrossCallReturnLabel_12
        CFI (cfiCond289) R6 load(1, XDATA, add(CFA_XSP16, literal(-11)))
        CFI (cfiCond289) VB load(1, XDATA, add(CFA_XSP16, literal(-10)))
        CFI (cfiCond289) V0 load(1, XDATA, add(CFA_XSP16, literal(-9)))
        CFI (cfiCond289) V1 load(1, XDATA, add(CFA_XSP16, literal(-8)))
        CFI (cfiCond289) V2 load(1, XDATA, add(CFA_XSP16, literal(-7)))
        CFI (cfiCond289) R7 load(1, XDATA, add(CFA_XSP16, literal(-6)))
        CFI (cfiCond289) ?RET_LOW load(1, XDATA, add(CFA_XSP16, literal(-5)))
        CFI (cfiCond289) ?RET_HIGH load(1, XDATA, add(CFA_XSP16, literal(-4)))
        CFI (cfiCond289) ?BRET_EXT load(1, XDATA, add(CFA_XSP16, literal(-3)))
        CFI (cfiCond289) DPL0 load(1, XDATA, add(CFA_XSP16, literal(-2)))
        CFI (cfiCond289) DPH0 load(1, XDATA, add(CFA_XSP16, literal(-1)))
        CFI (cfiCond289) CFA_SP SP+0
        CFI (cfiCond289) CFA_XSP16 add(XSP16, 15)
        CFI Block cfiCond290 Using cfiCommon0
        CFI (cfiCond290) NoFunction
        CFI (cfiCond290) Conditional ??CrossCallReturnLabel_13
        CFI (cfiCond290) R6 load(1, XDATA, add(CFA_XSP16, literal(-11)))
        CFI (cfiCond290) VB load(1, XDATA, add(CFA_XSP16, literal(-10)))
        CFI (cfiCond290) V0 load(1, XDATA, add(CFA_XSP16, literal(-9)))
        CFI (cfiCond290) V1 load(1, XDATA, add(CFA_XSP16, literal(-8)))
        CFI (cfiCond290) V2 load(1, XDATA, add(CFA_XSP16, literal(-7)))
        CFI (cfiCond290) R7 load(1, XDATA, add(CFA_XSP16, literal(-6)))
        CFI (cfiCond290) ?RET_LOW load(1, XDATA, add(CFA_XSP16, literal(-5)))
        CFI (cfiCond290) ?RET_HIGH load(1, XDATA, add(CFA_XSP16, literal(-4)))
        CFI (cfiCond290) ?BRET_EXT load(1, XDATA, add(CFA_XSP16, literal(-3)))
        CFI (cfiCond290) DPL0 load(1, XDATA, add(CFA_XSP16, literal(-2)))
        CFI (cfiCond290) DPH0 load(1, XDATA, add(CFA_XSP16, literal(-1)))
        CFI (cfiCond290) CFA_SP SP+0
        CFI (cfiCond290) CFA_XSP16 add(XSP16, 15)
        CFI Block cfiPicker291 Using cfiCommon1
        CFI (cfiPicker291) NoFunction
        CFI (cfiPicker291) Picker
        MOV     DPTR,#pMtAfDataReq
        MOVX    A,@DPTR
        MOV     R0,A
        INC     DPTR
        MOVX    A,@DPTR
        MOV     DPH,A
        MOV     DPL,R0
        RET
        CFI EndBlock cfiCond288
        CFI EndBlock cfiCond289
        CFI EndBlock cfiCond290
        CFI EndBlock cfiPicker291

        RSEG BANKED_CODE:CODE:NOROOT(0)
?Subroutine9:
        CFI Block cfiCond292 Using cfiCommon0
        CFI NoFunction
        CFI Conditional ??CrossCallReturnLabel_9
        CFI R6 load(1, XDATA, add(CFA_XSP16, literal(-9)))
        CFI VB load(1, XDATA, add(CFA_XSP16, literal(-8)))
        CFI V0 load(1, XDATA, add(CFA_XSP16, literal(-7)))
        CFI R7 load(1, XDATA, add(CFA_XSP16, literal(-6)))
        CFI ?RET_LOW load(1, XDATA, add(CFA_XSP16, literal(-5)))
        CFI ?RET_HIGH load(1, XDATA, add(CFA_XSP16, literal(-4)))
        CFI ?BRET_EXT load(1, XDATA, add(CFA_XSP16, literal(-3)))
        CFI DPL0 load(1, XDATA, add(CFA_XSP16, literal(-2)))
        CFI DPH0 load(1, XDATA, add(CFA_XSP16, literal(-1)))
        CFI CFA_SP SP+0
        CFI CFA_XSP16 add(XSP16, 9)
        CFI Block cfiCond293 Using cfiCommon0
        CFI (cfiCond293) NoFunction
        CFI (cfiCond293) Conditional ??CrossCallReturnLabel_10
        CFI (cfiCond293) R6 load(1, XDATA, add(CFA_XSP16, literal(-11)))
        CFI (cfiCond293) VB load(1, XDATA, add(CFA_XSP16, literal(-10)))
        CFI (cfiCond293) V0 load(1, XDATA, add(CFA_XSP16, literal(-9)))
        CFI (cfiCond293) V1 load(1, XDATA, add(CFA_XSP16, literal(-8)))
        CFI (cfiCond293) V2 load(1, XDATA, add(CFA_XSP16, literal(-7)))
        CFI (cfiCond293) R7 load(1, XDATA, add(CFA_XSP16, literal(-6)))
        CFI (cfiCond293) ?RET_LOW load(1, XDATA, add(CFA_XSP16, literal(-5)))
        CFI (cfiCond293) ?RET_HIGH load(1, XDATA, add(CFA_XSP16, literal(-4)))
        CFI (cfiCond293) ?BRET_EXT load(1, XDATA, add(CFA_XSP16, literal(-3)))
        CFI (cfiCond293) DPL0 load(1, XDATA, add(CFA_XSP16, literal(-2)))
        CFI (cfiCond293) DPH0 load(1, XDATA, add(CFA_XSP16, literal(-1)))
        CFI (cfiCond293) CFA_SP SP+0
        CFI (cfiCond293) CFA_XSP16 add(XSP16, 12)
        CFI Block cfiPicker294 Using cfiCommon1
        CFI (cfiPicker294) NoFunction
        CFI (cfiPicker294) Picker
        MOV     DPTR,#pMtAfDataReq
        MOVX    A,@DPTR
        MOV     R2,A
        INC     DPTR
        MOVX    A,@DPTR
        MOV     R3,A
        LCALL   ??osal_mem_free?relay
        MOV     DPTR,#pMtAfDataReq
        CLR     A
        MOVX    @DPTR,A
        INC     DPTR
        RET
        CFI EndBlock cfiCond292
        CFI EndBlock cfiCond293
        CFI EndBlock cfiPicker294

        RSEG BANKED_CODE:CODE:NOROOT(0)
?Subroutine5:
        CFI Block cfiCond295 Using cfiCommon0
        CFI NoFunction
        CFI Conditional ??CrossCallReturnLabel_146
        CFI R6 load(1, XDATA, add(CFA_XSP16, literal(-22)))
        CFI VB load(1, XDATA, add(CFA_XSP16, literal(-21)))
        CFI V0 load(1, XDATA, add(CFA_XSP16, literal(-20)))
        CFI V1 load(1, XDATA, add(CFA_XSP16, literal(-19)))
        CFI V2 load(1, XDATA, add(CFA_XSP16, literal(-18)))
        CFI V3 load(1, XDATA, add(CFA_XSP16, literal(-17)))
        CFI V4 load(1, XDATA, add(CFA_XSP16, literal(-16)))
        CFI V5 load(1, XDATA, add(CFA_XSP16, literal(-15)))
        CFI V6 load(1, XDATA, add(CFA_XSP16, literal(-14)))
        CFI V7 load(1, XDATA, add(CFA_XSP16, literal(-13)))
        CFI V8 load(1, XDATA, add(CFA_XSP16, literal(-12)))
        CFI V9 load(1, XDATA, add(CFA_XSP16, literal(-11)))
        CFI V10 load(1, XDATA, add(CFA_XSP16, literal(-10)))
        CFI V11 load(1, XDATA, add(CFA_XSP16, literal(-9)))
        CFI V12 load(1, XDATA, add(CFA_XSP16, literal(-8)))
        CFI V13 load(1, XDATA, add(CFA_XSP16, literal(-7)))
        CFI R7 load(1, XDATA, add(CFA_XSP16, literal(-6)))
        CFI ?RET_LOW load(1, XDATA, add(CFA_XSP16, literal(-5)))
        CFI ?RET_HIGH load(1, XDATA, add(CFA_XSP16, literal(-4)))
        CFI ?BRET_EXT load(1, XDATA, add(CFA_XSP16, literal(-3)))
        CFI DPL0 load(1, XDATA, add(CFA_XSP16, literal(-2)))
        CFI DPH0 load(1, XDATA, add(CFA_XSP16, literal(-1)))
        CFI CFA_SP SP+0
        CFI CFA_XSP16 add(XSP16, 36)
        CFI Block cfiCond296 Using cfiCommon0
        CFI (cfiCond296) NoFunction
        CFI (cfiCond296) Conditional ??CrossCallReturnLabel_147
        CFI (cfiCond296) R6 load(1, XDATA, add(CFA_XSP16, literal(-11)))
        CFI (cfiCond296) VB load(1, XDATA, add(CFA_XSP16, literal(-10)))
        CFI (cfiCond296) V0 load(1, XDATA, add(CFA_XSP16, literal(-9)))
        CFI (cfiCond296) V1 load(1, XDATA, add(CFA_XSP16, literal(-8)))
        CFI (cfiCond296) V2 load(1, XDATA, add(CFA_XSP16, literal(-7)))
        CFI (cfiCond296) R7 load(1, XDATA, add(CFA_XSP16, literal(-6)))
        CFI (cfiCond296) ?RET_LOW load(1, XDATA, add(CFA_XSP16, literal(-5)))
        CFI (cfiCond296) ?RET_HIGH load(1, XDATA, add(CFA_XSP16, literal(-4)))
        CFI (cfiCond296) ?BRET_EXT load(1, XDATA, add(CFA_XSP16, literal(-3)))
        CFI (cfiCond296) DPL0 load(1, XDATA, add(CFA_XSP16, literal(-2)))
        CFI (cfiCond296) DPH0 load(1, XDATA, add(CFA_XSP16, literal(-1)))
        CFI (cfiCond296) CFA_SP SP+0
        CFI (cfiCond296) CFA_XSP16 add(XSP16, 19)
        CFI Block cfiPicker297 Using cfiCommon1
        CFI (cfiPicker297) NoFunction
        CFI (cfiPicker297) Picker
        MOV     DPTR,#pMtAfDataReq
        MOVX    A,@DPTR
        ADD     A,#0x10
        CFI EndBlock cfiCond295
        CFI EndBlock cfiCond296
        CFI EndBlock cfiPicker297
        REQUIRE ??Subroutine60_0
        ; // Fall through to label ??Subroutine60_0

        RSEG BANKED_CODE:CODE:NOROOT(0)
??Subroutine60_0:
        CFI Block cfiCond298 Using cfiCommon0
        CFI NoFunction
        CFI Conditional ??CrossCallReturnLabel_139
        CFI R6 load(1, XDATA, add(CFA_XSP16, literal(-22)))
        CFI VB load(1, XDATA, add(CFA_XSP16, literal(-21)))
        CFI V0 load(1, XDATA, add(CFA_XSP16, literal(-20)))
        CFI V1 load(1, XDATA, add(CFA_XSP16, literal(-19)))
        CFI V2 load(1, XDATA, add(CFA_XSP16, literal(-18)))
        CFI V3 load(1, XDATA, add(CFA_XSP16, literal(-17)))
        CFI V4 load(1, XDATA, add(CFA_XSP16, literal(-16)))
        CFI V5 load(1, XDATA, add(CFA_XSP16, literal(-15)))
        CFI V6 load(1, XDATA, add(CFA_XSP16, literal(-14)))
        CFI V7 load(1, XDATA, add(CFA_XSP16, literal(-13)))
        CFI V8 load(1, XDATA, add(CFA_XSP16, literal(-12)))
        CFI V9 load(1, XDATA, add(CFA_XSP16, literal(-11)))
        CFI V10 load(1, XDATA, add(CFA_XSP16, literal(-10)))
        CFI V11 load(1, XDATA, add(CFA_XSP16, literal(-9)))
        CFI V12 load(1, XDATA, add(CFA_XSP16, literal(-8)))
        CFI V13 load(1, XDATA, add(CFA_XSP16, literal(-7)))
        CFI R7 load(1, XDATA, add(CFA_XSP16, literal(-6)))
        CFI ?RET_LOW load(1, XDATA, add(CFA_XSP16, literal(-5)))
        CFI ?RET_HIGH load(1, XDATA, add(CFA_XSP16, literal(-4)))
        CFI ?BRET_EXT load(1, XDATA, add(CFA_XSP16, literal(-3)))
        CFI DPL0 load(1, XDATA, add(CFA_XSP16, literal(-2)))
        CFI DPH0 load(1, XDATA, add(CFA_XSP16, literal(-1)))
        CFI CFA_SP SP+0
        CFI CFA_XSP16 add(XSP16, 36)
        CFI Block cfiCond299 Using cfiCommon0
        CFI (cfiCond299) NoFunction
        CFI (cfiCond299) Conditional ??CrossCallReturnLabel_140
        CFI (cfiCond299) R6 load(1, XDATA, add(CFA_XSP16, literal(-22)))
        CFI (cfiCond299) VB load(1, XDATA, add(CFA_XSP16, literal(-21)))
        CFI (cfiCond299) V0 load(1, XDATA, add(CFA_XSP16, literal(-20)))
        CFI (cfiCond299) V1 load(1, XDATA, add(CFA_XSP16, literal(-19)))
        CFI (cfiCond299) V2 load(1, XDATA, add(CFA_XSP16, literal(-18)))
        CFI (cfiCond299) V3 load(1, XDATA, add(CFA_XSP16, literal(-17)))
        CFI (cfiCond299) V4 load(1, XDATA, add(CFA_XSP16, literal(-16)))
        CFI (cfiCond299) V5 load(1, XDATA, add(CFA_XSP16, literal(-15)))
        CFI (cfiCond299) V6 load(1, XDATA, add(CFA_XSP16, literal(-14)))
        CFI (cfiCond299) V7 load(1, XDATA, add(CFA_XSP16, literal(-13)))
        CFI (cfiCond299) V8 load(1, XDATA, add(CFA_XSP16, literal(-12)))
        CFI (cfiCond299) V9 load(1, XDATA, add(CFA_XSP16, literal(-11)))
        CFI (cfiCond299) V10 load(1, XDATA, add(CFA_XSP16, literal(-10)))
        CFI (cfiCond299) V11 load(1, XDATA, add(CFA_XSP16, literal(-9)))
        CFI (cfiCond299) V12 load(1, XDATA, add(CFA_XSP16, literal(-8)))
        CFI (cfiCond299) V13 load(1, XDATA, add(CFA_XSP16, literal(-7)))
        CFI (cfiCond299) R7 load(1, XDATA, add(CFA_XSP16, literal(-6)))
        CFI (cfiCond299) ?RET_LOW load(1, XDATA, add(CFA_XSP16, literal(-5)))
        CFI (cfiCond299) ?RET_HIGH load(1, XDATA, add(CFA_XSP16, literal(-4)))
        CFI (cfiCond299) ?BRET_EXT load(1, XDATA, add(CFA_XSP16, literal(-3)))
        CFI (cfiCond299) DPL0 load(1, XDATA, add(CFA_XSP16, literal(-2)))
        CFI (cfiCond299) DPH0 load(1, XDATA, add(CFA_XSP16, literal(-1)))
        CFI (cfiCond299) CFA_SP SP+0
        CFI (cfiCond299) CFA_XSP16 add(XSP16, 36)
        CFI Block cfiCond300 Using cfiCommon0
        CFI (cfiCond300) NoFunction
        CFI (cfiCond300) Conditional ??CrossCallReturnLabel_141
        CFI (cfiCond300) R6 load(1, XDATA, add(CFA_XSP16, literal(-22)))
        CFI (cfiCond300) VB load(1, XDATA, add(CFA_XSP16, literal(-21)))
        CFI (cfiCond300) V0 load(1, XDATA, add(CFA_XSP16, literal(-20)))
        CFI (cfiCond300) V1 load(1, XDATA, add(CFA_XSP16, literal(-19)))
        CFI (cfiCond300) V2 load(1, XDATA, add(CFA_XSP16, literal(-18)))
        CFI (cfiCond300) V3 load(1, XDATA, add(CFA_XSP16, literal(-17)))
        CFI (cfiCond300) V4 load(1, XDATA, add(CFA_XSP16, literal(-16)))
        CFI (cfiCond300) V5 load(1, XDATA, add(CFA_XSP16, literal(-15)))
        CFI (cfiCond300) V6 load(1, XDATA, add(CFA_XSP16, literal(-14)))
        CFI (cfiCond300) V7 load(1, XDATA, add(CFA_XSP16, literal(-13)))
        CFI (cfiCond300) V8 load(1, XDATA, add(CFA_XSP16, literal(-12)))
        CFI (cfiCond300) V9 load(1, XDATA, add(CFA_XSP16, literal(-11)))
        CFI (cfiCond300) V10 load(1, XDATA, add(CFA_XSP16, literal(-10)))
        CFI (cfiCond300) V11 load(1, XDATA, add(CFA_XSP16, literal(-9)))
        CFI (cfiCond300) V12 load(1, XDATA, add(CFA_XSP16, literal(-8)))
        CFI (cfiCond300) V13 load(1, XDATA, add(CFA_XSP16, literal(-7)))
        CFI (cfiCond300) R7 load(1, XDATA, add(CFA_XSP16, literal(-6)))
        CFI (cfiCond300) ?RET_LOW load(1, XDATA, add(CFA_XSP16, literal(-5)))
        CFI (cfiCond300) ?RET_HIGH load(1, XDATA, add(CFA_XSP16, literal(-4)))
        CFI (cfiCond300) ?BRET_EXT load(1, XDATA, add(CFA_XSP16, literal(-3)))
        CFI (cfiCond300) DPL0 load(1, XDATA, add(CFA_XSP16, literal(-2)))
        CFI (cfiCond300) DPH0 load(1, XDATA, add(CFA_XSP16, literal(-1)))
        CFI (cfiCond300) CFA_SP SP+-1
        CFI (cfiCond300) CFA_XSP16 add(XSP16, 36)
        CFI Block cfiCond301 Using cfiCommon0
        CFI (cfiCond301) NoFunction
        CFI (cfiCond301) Conditional ??CrossCallReturnLabel_142
        CFI (cfiCond301) R6 load(1, XDATA, add(CFA_XSP16, literal(-22)))
        CFI (cfiCond301) VB load(1, XDATA, add(CFA_XSP16, literal(-21)))
        CFI (cfiCond301) V0 load(1, XDATA, add(CFA_XSP16, literal(-20)))
        CFI (cfiCond301) V1 load(1, XDATA, add(CFA_XSP16, literal(-19)))
        CFI (cfiCond301) V2 load(1, XDATA, add(CFA_XSP16, literal(-18)))
        CFI (cfiCond301) V3 load(1, XDATA, add(CFA_XSP16, literal(-17)))
        CFI (cfiCond301) V4 load(1, XDATA, add(CFA_XSP16, literal(-16)))
        CFI (cfiCond301) V5 load(1, XDATA, add(CFA_XSP16, literal(-15)))
        CFI (cfiCond301) V6 load(1, XDATA, add(CFA_XSP16, literal(-14)))
        CFI (cfiCond301) V7 load(1, XDATA, add(CFA_XSP16, literal(-13)))
        CFI (cfiCond301) V8 load(1, XDATA, add(CFA_XSP16, literal(-12)))
        CFI (cfiCond301) V9 load(1, XDATA, add(CFA_XSP16, literal(-11)))
        CFI (cfiCond301) V10 load(1, XDATA, add(CFA_XSP16, literal(-10)))
        CFI (cfiCond301) V11 load(1, XDATA, add(CFA_XSP16, literal(-9)))
        CFI (cfiCond301) V12 load(1, XDATA, add(CFA_XSP16, literal(-8)))
        CFI (cfiCond301) V13 load(1, XDATA, add(CFA_XSP16, literal(-7)))
        CFI (cfiCond301) R7 load(1, XDATA, add(CFA_XSP16, literal(-6)))
        CFI (cfiCond301) ?RET_LOW load(1, XDATA, add(CFA_XSP16, literal(-5)))
        CFI (cfiCond301) ?RET_HIGH load(1, XDATA, add(CFA_XSP16, literal(-4)))
        CFI (cfiCond301) ?BRET_EXT load(1, XDATA, add(CFA_XSP16, literal(-3)))
        CFI (cfiCond301) DPL0 load(1, XDATA, add(CFA_XSP16, literal(-2)))
        CFI (cfiCond301) DPH0 load(1, XDATA, add(CFA_XSP16, literal(-1)))
        CFI (cfiCond301) CFA_SP SP+0
        CFI (cfiCond301) CFA_XSP16 add(XSP16, 36)
        CFI Block cfiCond302 Using cfiCommon0
        CFI (cfiCond302) NoFunction
        CFI (cfiCond302) Conditional ??CrossCallReturnLabel_143
        CFI (cfiCond302) R6 load(1, XDATA, add(CFA_XSP16, literal(-22)))
        CFI (cfiCond302) VB load(1, XDATA, add(CFA_XSP16, literal(-21)))
        CFI (cfiCond302) V0 load(1, XDATA, add(CFA_XSP16, literal(-20)))
        CFI (cfiCond302) V1 load(1, XDATA, add(CFA_XSP16, literal(-19)))
        CFI (cfiCond302) V2 load(1, XDATA, add(CFA_XSP16, literal(-18)))
        CFI (cfiCond302) V3 load(1, XDATA, add(CFA_XSP16, literal(-17)))
        CFI (cfiCond302) V4 load(1, XDATA, add(CFA_XSP16, literal(-16)))
        CFI (cfiCond302) V5 load(1, XDATA, add(CFA_XSP16, literal(-15)))
        CFI (cfiCond302) V6 load(1, XDATA, add(CFA_XSP16, literal(-14)))
        CFI (cfiCond302) V7 load(1, XDATA, add(CFA_XSP16, literal(-13)))
        CFI (cfiCond302) V8 load(1, XDATA, add(CFA_XSP16, literal(-12)))
        CFI (cfiCond302) V9 load(1, XDATA, add(CFA_XSP16, literal(-11)))
        CFI (cfiCond302) V10 load(1, XDATA, add(CFA_XSP16, literal(-10)))
        CFI (cfiCond302) V11 load(1, XDATA, add(CFA_XSP16, literal(-9)))
        CFI (cfiCond302) V12 load(1, XDATA, add(CFA_XSP16, literal(-8)))
        CFI (cfiCond302) V13 load(1, XDATA, add(CFA_XSP16, literal(-7)))
        CFI (cfiCond302) R7 load(1, XDATA, add(CFA_XSP16, literal(-6)))
        CFI (cfiCond302) ?RET_LOW load(1, XDATA, add(CFA_XSP16, literal(-5)))
        CFI (cfiCond302) ?RET_HIGH load(1, XDATA, add(CFA_XSP16, literal(-4)))
        CFI (cfiCond302) ?BRET_EXT load(1, XDATA, add(CFA_XSP16, literal(-3)))
        CFI (cfiCond302) DPL0 load(1, XDATA, add(CFA_XSP16, literal(-2)))
        CFI (cfiCond302) DPH0 load(1, XDATA, add(CFA_XSP16, literal(-1)))
        CFI (cfiCond302) CFA_SP SP+0
        CFI (cfiCond302) CFA_XSP16 add(XSP16, 36)
        CFI Block cfiCond303 Using cfiCommon0
        CFI (cfiCond303) NoFunction
        CFI (cfiCond303) Conditional ??CrossCallReturnLabel_144
        CFI (cfiCond303) R6 load(1, XDATA, add(CFA_XSP16, literal(-22)))
        CFI (cfiCond303) VB load(1, XDATA, add(CFA_XSP16, literal(-21)))
        CFI (cfiCond303) V0 load(1, XDATA, add(CFA_XSP16, literal(-20)))
        CFI (cfiCond303) V1 load(1, XDATA, add(CFA_XSP16, literal(-19)))
        CFI (cfiCond303) V2 load(1, XDATA, add(CFA_XSP16, literal(-18)))
        CFI (cfiCond303) V3 load(1, XDATA, add(CFA_XSP16, literal(-17)))
        CFI (cfiCond303) V4 load(1, XDATA, add(CFA_XSP16, literal(-16)))
        CFI (cfiCond303) V5 load(1, XDATA, add(CFA_XSP16, literal(-15)))
        CFI (cfiCond303) V6 load(1, XDATA, add(CFA_XSP16, literal(-14)))
        CFI (cfiCond303) V7 load(1, XDATA, add(CFA_XSP16, literal(-13)))
        CFI (cfiCond303) V8 load(1, XDATA, add(CFA_XSP16, literal(-12)))
        CFI (cfiCond303) V9 load(1, XDATA, add(CFA_XSP16, literal(-11)))
        CFI (cfiCond303) V10 load(1, XDATA, add(CFA_XSP16, literal(-10)))
        CFI (cfiCond303) V11 load(1, XDATA, add(CFA_XSP16, literal(-9)))
        CFI (cfiCond303) V12 load(1, XDATA, add(CFA_XSP16, literal(-8)))
        CFI (cfiCond303) V13 load(1, XDATA, add(CFA_XSP16, literal(-7)))
        CFI (cfiCond303) R7 load(1, XDATA, add(CFA_XSP16, literal(-6)))
        CFI (cfiCond303) ?RET_LOW load(1, XDATA, add(CFA_XSP16, literal(-5)))
        CFI (cfiCond303) ?RET_HIGH load(1, XDATA, add(CFA_XSP16, literal(-4)))
        CFI (cfiCond303) ?BRET_EXT load(1, XDATA, add(CFA_XSP16, literal(-3)))
        CFI (cfiCond303) DPL0 load(1, XDATA, add(CFA_XSP16, literal(-2)))
        CFI (cfiCond303) DPH0 load(1, XDATA, add(CFA_XSP16, literal(-1)))
        CFI (cfiCond303) CFA_SP SP+0
        CFI (cfiCond303) CFA_XSP16 add(XSP16, 36)
        CFI Block cfiCond304 Using cfiCommon0
        CFI (cfiCond304) NoFunction
        CFI (cfiCond304) Conditional ??CrossCallReturnLabel_145
        CFI (cfiCond304) R6 load(1, XDATA, add(CFA_XSP16, literal(-11)))
        CFI (cfiCond304) VB load(1, XDATA, add(CFA_XSP16, literal(-10)))
        CFI (cfiCond304) V0 load(1, XDATA, add(CFA_XSP16, literal(-9)))
        CFI (cfiCond304) V1 load(1, XDATA, add(CFA_XSP16, literal(-8)))
        CFI (cfiCond304) V2 load(1, XDATA, add(CFA_XSP16, literal(-7)))
        CFI (cfiCond304) R7 load(1, XDATA, add(CFA_XSP16, literal(-6)))
        CFI (cfiCond304) ?RET_LOW load(1, XDATA, add(CFA_XSP16, literal(-5)))
        CFI (cfiCond304) ?RET_HIGH load(1, XDATA, add(CFA_XSP16, literal(-4)))
        CFI (cfiCond304) ?BRET_EXT load(1, XDATA, add(CFA_XSP16, literal(-3)))
        CFI (cfiCond304) DPL0 load(1, XDATA, add(CFA_XSP16, literal(-2)))
        CFI (cfiCond304) DPH0 load(1, XDATA, add(CFA_XSP16, literal(-1)))
        CFI (cfiCond304) CFA_SP SP+0
        CFI (cfiCond304) CFA_XSP16 add(XSP16, 17)
        CFI Block cfiCond305 Using cfiCommon0
        CFI (cfiCond305) NoFunction
        CFI (cfiCond305) Conditional ??CrossCallReturnLabel_146
        CFI (cfiCond305) R6 load(1, XDATA, add(CFA_XSP16, literal(-22)))
        CFI (cfiCond305) VB load(1, XDATA, add(CFA_XSP16, literal(-21)))
        CFI (cfiCond305) V0 load(1, XDATA, add(CFA_XSP16, literal(-20)))
        CFI (cfiCond305) V1 load(1, XDATA, add(CFA_XSP16, literal(-19)))
        CFI (cfiCond305) V2 load(1, XDATA, add(CFA_XSP16, literal(-18)))
        CFI (cfiCond305) V3 load(1, XDATA, add(CFA_XSP16, literal(-17)))
        CFI (cfiCond305) V4 load(1, XDATA, add(CFA_XSP16, literal(-16)))
        CFI (cfiCond305) V5 load(1, XDATA, add(CFA_XSP16, literal(-15)))
        CFI (cfiCond305) V6 load(1, XDATA, add(CFA_XSP16, literal(-14)))
        CFI (cfiCond305) V7 load(1, XDATA, add(CFA_XSP16, literal(-13)))
        CFI (cfiCond305) V8 load(1, XDATA, add(CFA_XSP16, literal(-12)))
        CFI (cfiCond305) V9 load(1, XDATA, add(CFA_XSP16, literal(-11)))
        CFI (cfiCond305) V10 load(1, XDATA, add(CFA_XSP16, literal(-10)))
        CFI (cfiCond305) V11 load(1, XDATA, add(CFA_XSP16, literal(-9)))
        CFI (cfiCond305) V12 load(1, XDATA, add(CFA_XSP16, literal(-8)))
        CFI (cfiCond305) V13 load(1, XDATA, add(CFA_XSP16, literal(-7)))
        CFI (cfiCond305) R7 load(1, XDATA, add(CFA_XSP16, literal(-6)))
        CFI (cfiCond305) ?RET_LOW load(1, XDATA, add(CFA_XSP16, literal(-5)))
        CFI (cfiCond305) ?RET_HIGH load(1, XDATA, add(CFA_XSP16, literal(-4)))
        CFI (cfiCond305) ?BRET_EXT load(1, XDATA, add(CFA_XSP16, literal(-3)))
        CFI (cfiCond305) DPL0 load(1, XDATA, add(CFA_XSP16, literal(-2)))
        CFI (cfiCond305) DPH0 load(1, XDATA, add(CFA_XSP16, literal(-1)))
        CFI (cfiCond305) CFA_SP SP+0
        CFI (cfiCond305) CFA_XSP16 add(XSP16, 36)
        CFI Block cfiCond306 Using cfiCommon0
        CFI (cfiCond306) NoFunction
        CFI (cfiCond306) Conditional ??CrossCallReturnLabel_147
        CFI (cfiCond306) R6 load(1, XDATA, add(CFA_XSP16, literal(-11)))
        CFI (cfiCond306) VB load(1, XDATA, add(CFA_XSP16, literal(-10)))
        CFI (cfiCond306) V0 load(1, XDATA, add(CFA_XSP16, literal(-9)))
        CFI (cfiCond306) V1 load(1, XDATA, add(CFA_XSP16, literal(-8)))
        CFI (cfiCond306) V2 load(1, XDATA, add(CFA_XSP16, literal(-7)))
        CFI (cfiCond306) R7 load(1, XDATA, add(CFA_XSP16, literal(-6)))
        CFI (cfiCond306) ?RET_LOW load(1, XDATA, add(CFA_XSP16, literal(-5)))
        CFI (cfiCond306) ?RET_HIGH load(1, XDATA, add(CFA_XSP16, literal(-4)))
        CFI (cfiCond306) ?BRET_EXT load(1, XDATA, add(CFA_XSP16, literal(-3)))
        CFI (cfiCond306) DPL0 load(1, XDATA, add(CFA_XSP16, literal(-2)))
        CFI (cfiCond306) DPH0 load(1, XDATA, add(CFA_XSP16, literal(-1)))
        CFI (cfiCond306) CFA_SP SP+0
        CFI (cfiCond306) CFA_XSP16 add(XSP16, 19)
        CFI Block cfiPicker307 Using cfiCommon1
        CFI (cfiPicker307) NoFunction
        CFI (cfiPicker307) Picker
        LCALL   ?Subroutine39 & 0xFFFF
??CrossCallReturnLabel_149:
        RET
        CFI EndBlock cfiCond298
        CFI EndBlock cfiCond299
        CFI EndBlock cfiCond300
        CFI EndBlock cfiCond301
        CFI EndBlock cfiCond302
        CFI EndBlock cfiCond303
        CFI EndBlock cfiCond304
        CFI EndBlock cfiCond305
        CFI EndBlock cfiCond306
        CFI EndBlock cfiPicker307

        RSEG BANKED_CODE:CODE:NOROOT(0)
?Subroutine39:
        CFI Block cfiCond308 Using cfiCommon0
        CFI NoFunction
        CFI Conditional ??CrossCallReturnLabel_148, ??CrossCallReturnLabel_80
        CFI R6 load(1, XDATA, add(CFA_XSP16, literal(-9)))
        CFI VB load(1, XDATA, add(CFA_XSP16, literal(-8)))
        CFI V0 load(1, XDATA, add(CFA_XSP16, literal(-7)))
        CFI R7 load(1, XDATA, add(CFA_XSP16, literal(-6)))
        CFI ?RET_LOW load(1, XDATA, add(CFA_XSP16, literal(-5)))
        CFI ?RET_HIGH load(1, XDATA, add(CFA_XSP16, literal(-4)))
        CFI ?BRET_EXT load(1, XDATA, add(CFA_XSP16, literal(-3)))
        CFI DPL0 load(1, XDATA, add(CFA_XSP16, literal(-2)))
        CFI DPH0 load(1, XDATA, add(CFA_XSP16, literal(-1)))
        CFI CFA_SP SP+0
        CFI CFA_XSP16 add(XSP16, 9)
        CFI Block cfiCond309 Using cfiCommon0
        CFI (cfiCond309) NoFunction
        CFI (cfiCond309) Conditional ??CrossCallReturnLabel_148, ??CrossCallReturnLabel_81
        CFI (cfiCond309) R6 load(1, XDATA, add(CFA_XSP16, literal(-9)))
        CFI (cfiCond309) VB load(1, XDATA, add(CFA_XSP16, literal(-8)))
        CFI (cfiCond309) V0 load(1, XDATA, add(CFA_XSP16, literal(-7)))
        CFI (cfiCond309) R7 load(1, XDATA, add(CFA_XSP16, literal(-6)))
        CFI (cfiCond309) ?RET_LOW load(1, XDATA, add(CFA_XSP16, literal(-5)))
        CFI (cfiCond309) ?RET_HIGH load(1, XDATA, add(CFA_XSP16, literal(-4)))
        CFI (cfiCond309) ?BRET_EXT load(1, XDATA, add(CFA_XSP16, literal(-3)))
        CFI (cfiCond309) DPL0 load(1, XDATA, add(CFA_XSP16, literal(-2)))
        CFI (cfiCond309) DPH0 load(1, XDATA, add(CFA_XSP16, literal(-1)))
        CFI (cfiCond309) CFA_SP SP+0
        CFI (cfiCond309) CFA_XSP16 add(XSP16, 9)
        CFI Block cfiCond310 Using cfiCommon0
        CFI (cfiCond310) NoFunction
        CFI (cfiCond310) Conditional ??CrossCallReturnLabel_148, ??CrossCallReturnLabel_78
        CFI (cfiCond310) R6 load(1, XDATA, add(CFA_XSP16, literal(-11)))
        CFI (cfiCond310) VB load(1, XDATA, add(CFA_XSP16, literal(-10)))
        CFI (cfiCond310) V0 load(1, XDATA, add(CFA_XSP16, literal(-9)))
        CFI (cfiCond310) V1 load(1, XDATA, add(CFA_XSP16, literal(-8)))
        CFI (cfiCond310) V2 load(1, XDATA, add(CFA_XSP16, literal(-7)))
        CFI (cfiCond310) R7 load(1, XDATA, add(CFA_XSP16, literal(-6)))
        CFI (cfiCond310) ?RET_LOW load(1, XDATA, add(CFA_XSP16, literal(-5)))
        CFI (cfiCond310) ?RET_HIGH load(1, XDATA, add(CFA_XSP16, literal(-4)))
        CFI (cfiCond310) ?BRET_EXT load(1, XDATA, add(CFA_XSP16, literal(-3)))
        CFI (cfiCond310) DPL0 load(1, XDATA, add(CFA_XSP16, literal(-2)))
        CFI (cfiCond310) DPH0 load(1, XDATA, add(CFA_XSP16, literal(-1)))
        CFI (cfiCond310) CFA_SP SP+0
        CFI (cfiCond310) CFA_XSP16 add(XSP16, 12)
        CFI Block cfiCond311 Using cfiCommon0
        CFI (cfiCond311) NoFunction
        CFI (cfiCond311) Conditional ??CrossCallReturnLabel_148, ??CrossCallReturnLabel_79
        CFI (cfiCond311) R6 load(1, XDATA, add(CFA_XSP16, literal(-11)))
        CFI (cfiCond311) VB load(1, XDATA, add(CFA_XSP16, literal(-10)))
        CFI (cfiCond311) V0 load(1, XDATA, add(CFA_XSP16, literal(-9)))
        CFI (cfiCond311) V1 load(1, XDATA, add(CFA_XSP16, literal(-8)))
        CFI (cfiCond311) V2 load(1, XDATA, add(CFA_XSP16, literal(-7)))
        CFI (cfiCond311) R7 load(1, XDATA, add(CFA_XSP16, literal(-6)))
        CFI (cfiCond311) ?RET_LOW load(1, XDATA, add(CFA_XSP16, literal(-5)))
        CFI (cfiCond311) ?RET_HIGH load(1, XDATA, add(CFA_XSP16, literal(-4)))
        CFI (cfiCond311) ?BRET_EXT load(1, XDATA, add(CFA_XSP16, literal(-3)))
        CFI (cfiCond311) DPL0 load(1, XDATA, add(CFA_XSP16, literal(-2)))
        CFI (cfiCond311) DPH0 load(1, XDATA, add(CFA_XSP16, literal(-1)))
        CFI (cfiCond311) CFA_SP SP+0
        CFI (cfiCond311) CFA_XSP16 add(XSP16, 21)
        CFI Block cfiCond312 Using cfiCommon0
        CFI (cfiCond312) NoFunction
        CFI (cfiCond312) Conditional ??CrossCallReturnLabel_149, ??CrossCallReturnLabel_146
        CFI (cfiCond312) R6 load(1, XDATA, add(CFA_XSP16, literal(-22)))
        CFI (cfiCond312) VB load(1, XDATA, add(CFA_XSP16, literal(-21)))
        CFI (cfiCond312) V0 load(1, XDATA, add(CFA_XSP16, literal(-20)))
        CFI (cfiCond312) V1 load(1, XDATA, add(CFA_XSP16, literal(-19)))
        CFI (cfiCond312) V2 load(1, XDATA, add(CFA_XSP16, literal(-18)))
        CFI (cfiCond312) V3 load(1, XDATA, add(CFA_XSP16, literal(-17)))
        CFI (cfiCond312) V4 load(1, XDATA, add(CFA_XSP16, literal(-16)))
        CFI (cfiCond312) V5 load(1, XDATA, add(CFA_XSP16, literal(-15)))
        CFI (cfiCond312) V6 load(1, XDATA, add(CFA_XSP16, literal(-14)))
        CFI (cfiCond312) V7 load(1, XDATA, add(CFA_XSP16, literal(-13)))
        CFI (cfiCond312) V8 load(1, XDATA, add(CFA_XSP16, literal(-12)))
        CFI (cfiCond312) V9 load(1, XDATA, add(CFA_XSP16, literal(-11)))
        CFI (cfiCond312) V10 load(1, XDATA, add(CFA_XSP16, literal(-10)))
        CFI (cfiCond312) V11 load(1, XDATA, add(CFA_XSP16, literal(-9)))
        CFI (cfiCond312) V12 load(1, XDATA, add(CFA_XSP16, literal(-8)))
        CFI (cfiCond312) V13 load(1, XDATA, add(CFA_XSP16, literal(-7)))
        CFI (cfiCond312) R7 load(1, XDATA, add(CFA_XSP16, literal(-6)))
        CFI (cfiCond312) ?RET_LOW load(1, XDATA, add(CFA_XSP16, literal(-5)))
        CFI (cfiCond312) ?RET_HIGH load(1, XDATA, add(CFA_XSP16, literal(-4)))
        CFI (cfiCond312) ?BRET_EXT load(1, XDATA, add(CFA_XSP16, literal(-3)))
        CFI (cfiCond312) DPL0 load(1, XDATA, add(CFA_XSP16, literal(-2)))
        CFI (cfiCond312) DPH0 load(1, XDATA, add(CFA_XSP16, literal(-1)))
        CFI (cfiCond312) CFA_SP SP+0
        CFI (cfiCond312) CFA_XSP16 add(XSP16, 36)
        CFI Block cfiCond313 Using cfiCommon0
        CFI (cfiCond313) NoFunction
        CFI (cfiCond313) Conditional ??CrossCallReturnLabel_149, ??CrossCallReturnLabel_147
        CFI (cfiCond313) R6 load(1, XDATA, add(CFA_XSP16, literal(-11)))
        CFI (cfiCond313) VB load(1, XDATA, add(CFA_XSP16, literal(-10)))
        CFI (cfiCond313) V0 load(1, XDATA, add(CFA_XSP16, literal(-9)))
        CFI (cfiCond313) V1 load(1, XDATA, add(CFA_XSP16, literal(-8)))
        CFI (cfiCond313) V2 load(1, XDATA, add(CFA_XSP16, literal(-7)))
        CFI (cfiCond313) R7 load(1, XDATA, add(CFA_XSP16, literal(-6)))
        CFI (cfiCond313) ?RET_LOW load(1, XDATA, add(CFA_XSP16, literal(-5)))
        CFI (cfiCond313) ?RET_HIGH load(1, XDATA, add(CFA_XSP16, literal(-4)))
        CFI (cfiCond313) ?BRET_EXT load(1, XDATA, add(CFA_XSP16, literal(-3)))
        CFI (cfiCond313) DPL0 load(1, XDATA, add(CFA_XSP16, literal(-2)))
        CFI (cfiCond313) DPH0 load(1, XDATA, add(CFA_XSP16, literal(-1)))
        CFI (cfiCond313) CFA_SP SP+0
        CFI (cfiCond313) CFA_XSP16 add(XSP16, 19)
        CFI Block cfiCond314 Using cfiCommon0
        CFI (cfiCond314) NoFunction
        CFI (cfiCond314) Conditional ??CrossCallReturnLabel_149, ??CrossCallReturnLabel_139
        CFI (cfiCond314) R6 load(1, XDATA, add(CFA_XSP16, literal(-22)))
        CFI (cfiCond314) VB load(1, XDATA, add(CFA_XSP16, literal(-21)))
        CFI (cfiCond314) V0 load(1, XDATA, add(CFA_XSP16, literal(-20)))
        CFI (cfiCond314) V1 load(1, XDATA, add(CFA_XSP16, literal(-19)))
        CFI (cfiCond314) V2 load(1, XDATA, add(CFA_XSP16, literal(-18)))
        CFI (cfiCond314) V3 load(1, XDATA, add(CFA_XSP16, literal(-17)))
        CFI (cfiCond314) V4 load(1, XDATA, add(CFA_XSP16, literal(-16)))
        CFI (cfiCond314) V5 load(1, XDATA, add(CFA_XSP16, literal(-15)))
        CFI (cfiCond314) V6 load(1, XDATA, add(CFA_XSP16, literal(-14)))
        CFI (cfiCond314) V7 load(1, XDATA, add(CFA_XSP16, literal(-13)))
        CFI (cfiCond314) V8 load(1, XDATA, add(CFA_XSP16, literal(-12)))
        CFI (cfiCond314) V9 load(1, XDATA, add(CFA_XSP16, literal(-11)))
        CFI (cfiCond314) V10 load(1, XDATA, add(CFA_XSP16, literal(-10)))
        CFI (cfiCond314) V11 load(1, XDATA, add(CFA_XSP16, literal(-9)))
        CFI (cfiCond314) V12 load(1, XDATA, add(CFA_XSP16, literal(-8)))
        CFI (cfiCond314) V13 load(1, XDATA, add(CFA_XSP16, literal(-7)))
        CFI (cfiCond314) R7 load(1, XDATA, add(CFA_XSP16, literal(-6)))
        CFI (cfiCond314) ?RET_LOW load(1, XDATA, add(CFA_XSP16, literal(-5)))
        CFI (cfiCond314) ?RET_HIGH load(1, XDATA, add(CFA_XSP16, literal(-4)))
        CFI (cfiCond314) ?BRET_EXT load(1, XDATA, add(CFA_XSP16, literal(-3)))
        CFI (cfiCond314) DPL0 load(1, XDATA, add(CFA_XSP16, literal(-2)))
        CFI (cfiCond314) DPH0 load(1, XDATA, add(CFA_XSP16, literal(-1)))
        CFI (cfiCond314) CFA_SP SP+0
        CFI (cfiCond314) CFA_XSP16 add(XSP16, 36)
        CFI Block cfiCond315 Using cfiCommon0
        CFI (cfiCond315) NoFunction
        CFI (cfiCond315) Conditional ??CrossCallReturnLabel_149, ??CrossCallReturnLabel_140
        CFI (cfiCond315) R6 load(1, XDATA, add(CFA_XSP16, literal(-22)))
        CFI (cfiCond315) VB load(1, XDATA, add(CFA_XSP16, literal(-21)))
        CFI (cfiCond315) V0 load(1, XDATA, add(CFA_XSP16, literal(-20)))
        CFI (cfiCond315) V1 load(1, XDATA, add(CFA_XSP16, literal(-19)))
        CFI (cfiCond315) V2 load(1, XDATA, add(CFA_XSP16, literal(-18)))
        CFI (cfiCond315) V3 load(1, XDATA, add(CFA_XSP16, literal(-17)))
        CFI (cfiCond315) V4 load(1, XDATA, add(CFA_XSP16, literal(-16)))
        CFI (cfiCond315) V5 load(1, XDATA, add(CFA_XSP16, literal(-15)))
        CFI (cfiCond315) V6 load(1, XDATA, add(CFA_XSP16, literal(-14)))
        CFI (cfiCond315) V7 load(1, XDATA, add(CFA_XSP16, literal(-13)))
        CFI (cfiCond315) V8 load(1, XDATA, add(CFA_XSP16, literal(-12)))
        CFI (cfiCond315) V9 load(1, XDATA, add(CFA_XSP16, literal(-11)))
        CFI (cfiCond315) V10 load(1, XDATA, add(CFA_XSP16, literal(-10)))
        CFI (cfiCond315) V11 load(1, XDATA, add(CFA_XSP16, literal(-9)))
        CFI (cfiCond315) V12 load(1, XDATA, add(CFA_XSP16, literal(-8)))
        CFI (cfiCond315) V13 load(1, XDATA, add(CFA_XSP16, literal(-7)))
        CFI (cfiCond315) R7 load(1, XDATA, add(CFA_XSP16, literal(-6)))
        CFI (cfiCond315) ?RET_LOW load(1, XDATA, add(CFA_XSP16, literal(-5)))
        CFI (cfiCond315) ?RET_HIGH load(1, XDATA, add(CFA_XSP16, literal(-4)))
        CFI (cfiCond315) ?BRET_EXT load(1, XDATA, add(CFA_XSP16, literal(-3)))
        CFI (cfiCond315) DPL0 load(1, XDATA, add(CFA_XSP16, literal(-2)))
        CFI (cfiCond315) DPH0 load(1, XDATA, add(CFA_XSP16, literal(-1)))
        CFI (cfiCond315) CFA_SP SP+0
        CFI (cfiCond315) CFA_XSP16 add(XSP16, 36)
        CFI Block cfiCond316 Using cfiCommon0
        CFI (cfiCond316) NoFunction
        CFI (cfiCond316) Conditional ??CrossCallReturnLabel_149, ??CrossCallReturnLabel_141
        CFI (cfiCond316) R6 load(1, XDATA, add(CFA_XSP16, literal(-22)))
        CFI (cfiCond316) VB load(1, XDATA, add(CFA_XSP16, literal(-21)))
        CFI (cfiCond316) V0 load(1, XDATA, add(CFA_XSP16, literal(-20)))
        CFI (cfiCond316) V1 load(1, XDATA, add(CFA_XSP16, literal(-19)))
        CFI (cfiCond316) V2 load(1, XDATA, add(CFA_XSP16, literal(-18)))
        CFI (cfiCond316) V3 load(1, XDATA, add(CFA_XSP16, literal(-17)))
        CFI (cfiCond316) V4 load(1, XDATA, add(CFA_XSP16, literal(-16)))
        CFI (cfiCond316) V5 load(1, XDATA, add(CFA_XSP16, literal(-15)))
        CFI (cfiCond316) V6 load(1, XDATA, add(CFA_XSP16, literal(-14)))
        CFI (cfiCond316) V7 load(1, XDATA, add(CFA_XSP16, literal(-13)))
        CFI (cfiCond316) V8 load(1, XDATA, add(CFA_XSP16, literal(-12)))
        CFI (cfiCond316) V9 load(1, XDATA, add(CFA_XSP16, literal(-11)))
        CFI (cfiCond316) V10 load(1, XDATA, add(CFA_XSP16, literal(-10)))
        CFI (cfiCond316) V11 load(1, XDATA, add(CFA_XSP16, literal(-9)))
        CFI (cfiCond316) V12 load(1, XDATA, add(CFA_XSP16, literal(-8)))
        CFI (cfiCond316) V13 load(1, XDATA, add(CFA_XSP16, literal(-7)))
        CFI (cfiCond316) R7 load(1, XDATA, add(CFA_XSP16, literal(-6)))
        CFI (cfiCond316) ?RET_LOW load(1, XDATA, add(CFA_XSP16, literal(-5)))
        CFI (cfiCond316) ?RET_HIGH load(1, XDATA, add(CFA_XSP16, literal(-4)))
        CFI (cfiCond316) ?BRET_EXT load(1, XDATA, add(CFA_XSP16, literal(-3)))
        CFI (cfiCond316) DPL0 load(1, XDATA, add(CFA_XSP16, literal(-2)))
        CFI (cfiCond316) DPH0 load(1, XDATA, add(CFA_XSP16, literal(-1)))
        CFI (cfiCond316) CFA_SP SP+-1
        CFI (cfiCond316) CFA_XSP16 add(XSP16, 36)
        CFI Block cfiCond317 Using cfiCommon0
        CFI (cfiCond317) NoFunction
        CFI (cfiCond317) Conditional ??CrossCallReturnLabel_149, ??CrossCallReturnLabel_142
        CFI (cfiCond317) R6 load(1, XDATA, add(CFA_XSP16, literal(-22)))
        CFI (cfiCond317) VB load(1, XDATA, add(CFA_XSP16, literal(-21)))
        CFI (cfiCond317) V0 load(1, XDATA, add(CFA_XSP16, literal(-20)))
        CFI (cfiCond317) V1 load(1, XDATA, add(CFA_XSP16, literal(-19)))
        CFI (cfiCond317) V2 load(1, XDATA, add(CFA_XSP16, literal(-18)))
        CFI (cfiCond317) V3 load(1, XDATA, add(CFA_XSP16, literal(-17)))
        CFI (cfiCond317) V4 load(1, XDATA, add(CFA_XSP16, literal(-16)))
        CFI (cfiCond317) V5 load(1, XDATA, add(CFA_XSP16, literal(-15)))
        CFI (cfiCond317) V6 load(1, XDATA, add(CFA_XSP16, literal(-14)))
        CFI (cfiCond317) V7 load(1, XDATA, add(CFA_XSP16, literal(-13)))
        CFI (cfiCond317) V8 load(1, XDATA, add(CFA_XSP16, literal(-12)))
        CFI (cfiCond317) V9 load(1, XDATA, add(CFA_XSP16, literal(-11)))
        CFI (cfiCond317) V10 load(1, XDATA, add(CFA_XSP16, literal(-10)))
        CFI (cfiCond317) V11 load(1, XDATA, add(CFA_XSP16, literal(-9)))
        CFI (cfiCond317) V12 load(1, XDATA, add(CFA_XSP16, literal(-8)))
        CFI (cfiCond317) V13 load(1, XDATA, add(CFA_XSP16, literal(-7)))
        CFI (cfiCond317) R7 load(1, XDATA, add(CFA_XSP16, literal(-6)))
        CFI (cfiCond317) ?RET_LOW load(1, XDATA, add(CFA_XSP16, literal(-5)))
        CFI (cfiCond317) ?RET_HIGH load(1, XDATA, add(CFA_XSP16, literal(-4)))
        CFI (cfiCond317) ?BRET_EXT load(1, XDATA, add(CFA_XSP16, literal(-3)))
        CFI (cfiCond317) DPL0 load(1, XDATA, add(CFA_XSP16, literal(-2)))
        CFI (cfiCond317) DPH0 load(1, XDATA, add(CFA_XSP16, literal(-1)))
        CFI (cfiCond317) CFA_SP SP+0
        CFI (cfiCond317) CFA_XSP16 add(XSP16, 36)
        CFI Block cfiCond318 Using cfiCommon0
        CFI (cfiCond318) NoFunction
        CFI (cfiCond318) Conditional ??CrossCallReturnLabel_149, ??CrossCallReturnLabel_143
        CFI (cfiCond318) R6 load(1, XDATA, add(CFA_XSP16, literal(-22)))
        CFI (cfiCond318) VB load(1, XDATA, add(CFA_XSP16, literal(-21)))
        CFI (cfiCond318) V0 load(1, XDATA, add(CFA_XSP16, literal(-20)))
        CFI (cfiCond318) V1 load(1, XDATA, add(CFA_XSP16, literal(-19)))
        CFI (cfiCond318) V2 load(1, XDATA, add(CFA_XSP16, literal(-18)))
        CFI (cfiCond318) V3 load(1, XDATA, add(CFA_XSP16, literal(-17)))
        CFI (cfiCond318) V4 load(1, XDATA, add(CFA_XSP16, literal(-16)))
        CFI (cfiCond318) V5 load(1, XDATA, add(CFA_XSP16, literal(-15)))
        CFI (cfiCond318) V6 load(1, XDATA, add(CFA_XSP16, literal(-14)))
        CFI (cfiCond318) V7 load(1, XDATA, add(CFA_XSP16, literal(-13)))
        CFI (cfiCond318) V8 load(1, XDATA, add(CFA_XSP16, literal(-12)))
        CFI (cfiCond318) V9 load(1, XDATA, add(CFA_XSP16, literal(-11)))
        CFI (cfiCond318) V10 load(1, XDATA, add(CFA_XSP16, literal(-10)))
        CFI (cfiCond318) V11 load(1, XDATA, add(CFA_XSP16, literal(-9)))
        CFI (cfiCond318) V12 load(1, XDATA, add(CFA_XSP16, literal(-8)))
        CFI (cfiCond318) V13 load(1, XDATA, add(CFA_XSP16, literal(-7)))
        CFI (cfiCond318) R7 load(1, XDATA, add(CFA_XSP16, literal(-6)))
        CFI (cfiCond318) ?RET_LOW load(1, XDATA, add(CFA_XSP16, literal(-5)))
        CFI (cfiCond318) ?RET_HIGH load(1, XDATA, add(CFA_XSP16, literal(-4)))
        CFI (cfiCond318) ?BRET_EXT load(1, XDATA, add(CFA_XSP16, literal(-3)))
        CFI (cfiCond318) DPL0 load(1, XDATA, add(CFA_XSP16, literal(-2)))
        CFI (cfiCond318) DPH0 load(1, XDATA, add(CFA_XSP16, literal(-1)))
        CFI (cfiCond318) CFA_SP SP+0
        CFI (cfiCond318) CFA_XSP16 add(XSP16, 36)
        CFI Block cfiCond319 Using cfiCommon0
        CFI (cfiCond319) NoFunction
        CFI (cfiCond319) Conditional ??CrossCallReturnLabel_149, ??CrossCallReturnLabel_144
        CFI (cfiCond319) R6 load(1, XDATA, add(CFA_XSP16, literal(-22)))
        CFI (cfiCond319) VB load(1, XDATA, add(CFA_XSP16, literal(-21)))
        CFI (cfiCond319) V0 load(1, XDATA, add(CFA_XSP16, literal(-20)))
        CFI (cfiCond319) V1 load(1, XDATA, add(CFA_XSP16, literal(-19)))
        CFI (cfiCond319) V2 load(1, XDATA, add(CFA_XSP16, literal(-18)))
        CFI (cfiCond319) V3 load(1, XDATA, add(CFA_XSP16, literal(-17)))
        CFI (cfiCond319) V4 load(1, XDATA, add(CFA_XSP16, literal(-16)))
        CFI (cfiCond319) V5 load(1, XDATA, add(CFA_XSP16, literal(-15)))
        CFI (cfiCond319) V6 load(1, XDATA, add(CFA_XSP16, literal(-14)))
        CFI (cfiCond319) V7 load(1, XDATA, add(CFA_XSP16, literal(-13)))
        CFI (cfiCond319) V8 load(1, XDATA, add(CFA_XSP16, literal(-12)))
        CFI (cfiCond319) V9 load(1, XDATA, add(CFA_XSP16, literal(-11)))
        CFI (cfiCond319) V10 load(1, XDATA, add(CFA_XSP16, literal(-10)))
        CFI (cfiCond319) V11 load(1, XDATA, add(CFA_XSP16, literal(-9)))
        CFI (cfiCond319) V12 load(1, XDATA, add(CFA_XSP16, literal(-8)))
        CFI (cfiCond319) V13 load(1, XDATA, add(CFA_XSP16, literal(-7)))
        CFI (cfiCond319) R7 load(1, XDATA, add(CFA_XSP16, literal(-6)))
        CFI (cfiCond319) ?RET_LOW load(1, XDATA, add(CFA_XSP16, literal(-5)))
        CFI (cfiCond319) ?RET_HIGH load(1, XDATA, add(CFA_XSP16, literal(-4)))
        CFI (cfiCond319) ?BRET_EXT load(1, XDATA, add(CFA_XSP16, literal(-3)))
        CFI (cfiCond319) DPL0 load(1, XDATA, add(CFA_XSP16, literal(-2)))
        CFI (cfiCond319) DPH0 load(1, XDATA, add(CFA_XSP16, literal(-1)))
        CFI (cfiCond319) CFA_SP SP+0
        CFI (cfiCond319) CFA_XSP16 add(XSP16, 36)
        CFI Block cfiCond320 Using cfiCommon0
        CFI (cfiCond320) NoFunction
        CFI (cfiCond320) Conditional ??CrossCallReturnLabel_149, ??CrossCallReturnLabel_145
        CFI (cfiCond320) R6 load(1, XDATA, add(CFA_XSP16, literal(-11)))
        CFI (cfiCond320) VB load(1, XDATA, add(CFA_XSP16, literal(-10)))
        CFI (cfiCond320) V0 load(1, XDATA, add(CFA_XSP16, literal(-9)))
        CFI (cfiCond320) V1 load(1, XDATA, add(CFA_XSP16, literal(-8)))
        CFI (cfiCond320) V2 load(1, XDATA, add(CFA_XSP16, literal(-7)))
        CFI (cfiCond320) R7 load(1, XDATA, add(CFA_XSP16, literal(-6)))
        CFI (cfiCond320) ?RET_LOW load(1, XDATA, add(CFA_XSP16, literal(-5)))
        CFI (cfiCond320) ?RET_HIGH load(1, XDATA, add(CFA_XSP16, literal(-4)))
        CFI (cfiCond320) ?BRET_EXT load(1, XDATA, add(CFA_XSP16, literal(-3)))
        CFI (cfiCond320) DPL0 load(1, XDATA, add(CFA_XSP16, literal(-2)))
        CFI (cfiCond320) DPH0 load(1, XDATA, add(CFA_XSP16, literal(-1)))
        CFI (cfiCond320) CFA_SP SP+0
        CFI (cfiCond320) CFA_XSP16 add(XSP16, 17)
        CFI Block cfiPicker321 Using cfiCommon1
        CFI (cfiPicker321) NoFunction
        CFI (cfiPicker321) Picker
        MOV     R0,A
        INC     DPTR
        MOVX    A,@DPTR
        LCALL   ?Subroutine46 & 0xFFFF
??CrossCallReturnLabel_152:
        RET
        CFI EndBlock cfiCond308
        CFI EndBlock cfiCond309
        CFI EndBlock cfiCond310
        CFI EndBlock cfiCond311
        CFI EndBlock cfiCond312
        CFI EndBlock cfiCond313
        CFI EndBlock cfiCond314
        CFI EndBlock cfiCond315
        CFI EndBlock cfiCond316
        CFI EndBlock cfiCond317
        CFI EndBlock cfiCond318
        CFI EndBlock cfiCond319
        CFI EndBlock cfiCond320
        CFI EndBlock cfiPicker321

        RSEG BANKED_CODE:CODE:NOROOT(0)
?Subroutine46:
        CFI Block cfiCond322 Using cfiCommon0
        CFI NoFunction
        CFI Conditional ??CrossCallReturnLabel_150, ??CrossCallReturnLabel_103
        CFI R6 load(1, XDATA, add(CFA_XSP16, literal(-23)))
        CFI VB load(1, XDATA, add(CFA_XSP16, literal(-22)))
        CFI V0 load(1, XDATA, add(CFA_XSP16, literal(-21)))
        CFI V1 load(1, XDATA, add(CFA_XSP16, literal(-20)))
        CFI V2 load(1, XDATA, add(CFA_XSP16, literal(-19)))
        CFI V3 load(1, XDATA, add(CFA_XSP16, literal(-18)))
        CFI V4 load(1, XDATA, add(CFA_XSP16, literal(-17)))
        CFI V5 load(1, XDATA, add(CFA_XSP16, literal(-16)))
        CFI V6 load(1, XDATA, add(CFA_XSP16, literal(-15)))
        CFI V7 load(1, XDATA, add(CFA_XSP16, literal(-14)))
        CFI V8 load(1, XDATA, add(CFA_XSP16, literal(-13)))
        CFI V9 load(1, XDATA, add(CFA_XSP16, literal(-12)))
        CFI V10 load(1, XDATA, add(CFA_XSP16, literal(-11)))
        CFI V11 load(1, XDATA, add(CFA_XSP16, literal(-10)))
        CFI V12 load(1, XDATA, add(CFA_XSP16, literal(-9)))
        CFI V13 load(1, XDATA, add(CFA_XSP16, literal(-8)))
        CFI V14 load(1, XDATA, add(CFA_XSP16, literal(-7)))
        CFI R7 load(1, XDATA, add(CFA_XSP16, literal(-6)))
        CFI ?RET_LOW load(1, XDATA, add(CFA_XSP16, literal(-5)))
        CFI ?RET_HIGH load(1, XDATA, add(CFA_XSP16, literal(-4)))
        CFI ?BRET_EXT load(1, XDATA, add(CFA_XSP16, literal(-3)))
        CFI DPL0 load(1, XDATA, add(CFA_XSP16, literal(-2)))
        CFI DPH0 load(1, XDATA, add(CFA_XSP16, literal(-1)))
        CFI CFA_SP SP+0
        CFI CFA_XSP16 add(XSP16, 23)
        CFI Block cfiCond323 Using cfiCommon0
        CFI (cfiCond323) NoFunction
        CFI (cfiCond323) Conditional ??CrossCallReturnLabel_150, ??CrossCallReturnLabel_104
        CFI (cfiCond323) R6 load(1, XDATA, add(CFA_XSP16, literal(-23)))
        CFI (cfiCond323) VB load(1, XDATA, add(CFA_XSP16, literal(-22)))
        CFI (cfiCond323) V0 load(1, XDATA, add(CFA_XSP16, literal(-21)))
        CFI (cfiCond323) V1 load(1, XDATA, add(CFA_XSP16, literal(-20)))
        CFI (cfiCond323) V2 load(1, XDATA, add(CFA_XSP16, literal(-19)))
        CFI (cfiCond323) V3 load(1, XDATA, add(CFA_XSP16, literal(-18)))
        CFI (cfiCond323) V4 load(1, XDATA, add(CFA_XSP16, literal(-17)))
        CFI (cfiCond323) V5 load(1, XDATA, add(CFA_XSP16, literal(-16)))
        CFI (cfiCond323) V6 load(1, XDATA, add(CFA_XSP16, literal(-15)))
        CFI (cfiCond323) V7 load(1, XDATA, add(CFA_XSP16, literal(-14)))
        CFI (cfiCond323) V8 load(1, XDATA, add(CFA_XSP16, literal(-13)))
        CFI (cfiCond323) V9 load(1, XDATA, add(CFA_XSP16, literal(-12)))
        CFI (cfiCond323) V10 load(1, XDATA, add(CFA_XSP16, literal(-11)))
        CFI (cfiCond323) V11 load(1, XDATA, add(CFA_XSP16, literal(-10)))
        CFI (cfiCond323) V12 load(1, XDATA, add(CFA_XSP16, literal(-9)))
        CFI (cfiCond323) V13 load(1, XDATA, add(CFA_XSP16, literal(-8)))
        CFI (cfiCond323) V14 load(1, XDATA, add(CFA_XSP16, literal(-7)))
        CFI (cfiCond323) R7 load(1, XDATA, add(CFA_XSP16, literal(-6)))
        CFI (cfiCond323) ?RET_LOW load(1, XDATA, add(CFA_XSP16, literal(-5)))
        CFI (cfiCond323) ?RET_HIGH load(1, XDATA, add(CFA_XSP16, literal(-4)))
        CFI (cfiCond323) ?BRET_EXT load(1, XDATA, add(CFA_XSP16, literal(-3)))
        CFI (cfiCond323) DPL0 load(1, XDATA, add(CFA_XSP16, literal(-2)))
        CFI (cfiCond323) DPH0 load(1, XDATA, add(CFA_XSP16, literal(-1)))
        CFI (cfiCond323) CFA_SP SP+0
        CFI (cfiCond323) CFA_XSP16 add(XSP16, 23)
        CFI Block cfiCond324 Using cfiCommon0
        CFI (cfiCond324) NoFunction
        CFI (cfiCond324) Conditional ??CrossCallReturnLabel_150, ??CrossCallReturnLabel_105
        CFI (cfiCond324) R6 load(1, XDATA, add(CFA_XSP16, literal(-23)))
        CFI (cfiCond324) VB load(1, XDATA, add(CFA_XSP16, literal(-22)))
        CFI (cfiCond324) V0 load(1, XDATA, add(CFA_XSP16, literal(-21)))
        CFI (cfiCond324) V1 load(1, XDATA, add(CFA_XSP16, literal(-20)))
        CFI (cfiCond324) V2 load(1, XDATA, add(CFA_XSP16, literal(-19)))
        CFI (cfiCond324) V3 load(1, XDATA, add(CFA_XSP16, literal(-18)))
        CFI (cfiCond324) V4 load(1, XDATA, add(CFA_XSP16, literal(-17)))
        CFI (cfiCond324) V5 load(1, XDATA, add(CFA_XSP16, literal(-16)))
        CFI (cfiCond324) V6 load(1, XDATA, add(CFA_XSP16, literal(-15)))
        CFI (cfiCond324) V7 load(1, XDATA, add(CFA_XSP16, literal(-14)))
        CFI (cfiCond324) V8 load(1, XDATA, add(CFA_XSP16, literal(-13)))
        CFI (cfiCond324) V9 load(1, XDATA, add(CFA_XSP16, literal(-12)))
        CFI (cfiCond324) V10 load(1, XDATA, add(CFA_XSP16, literal(-11)))
        CFI (cfiCond324) V11 load(1, XDATA, add(CFA_XSP16, literal(-10)))
        CFI (cfiCond324) V12 load(1, XDATA, add(CFA_XSP16, literal(-9)))
        CFI (cfiCond324) V13 load(1, XDATA, add(CFA_XSP16, literal(-8)))
        CFI (cfiCond324) V14 load(1, XDATA, add(CFA_XSP16, literal(-7)))
        CFI (cfiCond324) R7 load(1, XDATA, add(CFA_XSP16, literal(-6)))
        CFI (cfiCond324) ?RET_LOW load(1, XDATA, add(CFA_XSP16, literal(-5)))
        CFI (cfiCond324) ?RET_HIGH load(1, XDATA, add(CFA_XSP16, literal(-4)))
        CFI (cfiCond324) ?BRET_EXT load(1, XDATA, add(CFA_XSP16, literal(-3)))
        CFI (cfiCond324) DPL0 load(1, XDATA, add(CFA_XSP16, literal(-2)))
        CFI (cfiCond324) DPH0 load(1, XDATA, add(CFA_XSP16, literal(-1)))
        CFI (cfiCond324) CFA_SP SP+0
        CFI (cfiCond324) CFA_XSP16 add(XSP16, 23)
        CFI Block cfiCond325 Using cfiCommon0
        CFI (cfiCond325) NoFunction
        CFI (cfiCond325) Conditional ??CrossCallReturnLabel_150, ??CrossCallReturnLabel_102
        CFI (cfiCond325) R6 load(1, XDATA, add(CFA_XSP16, literal(-10)))
        CFI (cfiCond325) VB load(1, XDATA, add(CFA_XSP16, literal(-9)))
        CFI (cfiCond325) V0 load(1, XDATA, add(CFA_XSP16, literal(-8)))
        CFI (cfiCond325) V1 load(1, XDATA, add(CFA_XSP16, literal(-7)))
        CFI (cfiCond325) R7 load(1, XDATA, add(CFA_XSP16, literal(-6)))
        CFI (cfiCond325) ?RET_LOW load(1, XDATA, add(CFA_XSP16, literal(-5)))
        CFI (cfiCond325) ?RET_HIGH load(1, XDATA, add(CFA_XSP16, literal(-4)))
        CFI (cfiCond325) ?BRET_EXT load(1, XDATA, add(CFA_XSP16, literal(-3)))
        CFI (cfiCond325) DPL0 load(1, XDATA, add(CFA_XSP16, literal(-2)))
        CFI (cfiCond325) DPH0 load(1, XDATA, add(CFA_XSP16, literal(-1)))
        CFI (cfiCond325) CFA_SP SP+0
        CFI (cfiCond325) CFA_XSP16 add(XSP16, 12)
        CFI Block cfiCond326 Using cfiCommon0
        CFI (cfiCond326) NoFunction
        CFI (cfiCond326) Conditional ??CrossCallReturnLabel_151, ??CrossCallReturnLabel_112
        CFI (cfiCond326) R6 load(1, XDATA, add(CFA_XSP16, literal(-23)))
        CFI (cfiCond326) VB load(1, XDATA, add(CFA_XSP16, literal(-22)))
        CFI (cfiCond326) V0 load(1, XDATA, add(CFA_XSP16, literal(-21)))
        CFI (cfiCond326) V1 load(1, XDATA, add(CFA_XSP16, literal(-20)))
        CFI (cfiCond326) V2 load(1, XDATA, add(CFA_XSP16, literal(-19)))
        CFI (cfiCond326) V3 load(1, XDATA, add(CFA_XSP16, literal(-18)))
        CFI (cfiCond326) V4 load(1, XDATA, add(CFA_XSP16, literal(-17)))
        CFI (cfiCond326) V5 load(1, XDATA, add(CFA_XSP16, literal(-16)))
        CFI (cfiCond326) V6 load(1, XDATA, add(CFA_XSP16, literal(-15)))
        CFI (cfiCond326) V7 load(1, XDATA, add(CFA_XSP16, literal(-14)))
        CFI (cfiCond326) V8 load(1, XDATA, add(CFA_XSP16, literal(-13)))
        CFI (cfiCond326) V9 load(1, XDATA, add(CFA_XSP16, literal(-12)))
        CFI (cfiCond326) V10 load(1, XDATA, add(CFA_XSP16, literal(-11)))
        CFI (cfiCond326) V11 load(1, XDATA, add(CFA_XSP16, literal(-10)))
        CFI (cfiCond326) V12 load(1, XDATA, add(CFA_XSP16, literal(-9)))
        CFI (cfiCond326) V13 load(1, XDATA, add(CFA_XSP16, literal(-8)))
        CFI (cfiCond326) V14 load(1, XDATA, add(CFA_XSP16, literal(-7)))
        CFI (cfiCond326) R7 load(1, XDATA, add(CFA_XSP16, literal(-6)))
        CFI (cfiCond326) ?RET_LOW load(1, XDATA, add(CFA_XSP16, literal(-5)))
        CFI (cfiCond326) ?RET_HIGH load(1, XDATA, add(CFA_XSP16, literal(-4)))
        CFI (cfiCond326) ?BRET_EXT load(1, XDATA, add(CFA_XSP16, literal(-3)))
        CFI (cfiCond326) DPL0 load(1, XDATA, add(CFA_XSP16, literal(-2)))
        CFI (cfiCond326) DPH0 load(1, XDATA, add(CFA_XSP16, literal(-1)))
        CFI (cfiCond326) CFA_SP SP+0
        CFI (cfiCond326) CFA_XSP16 add(XSP16, 23)
        CFI Block cfiCond327 Using cfiCommon0
        CFI (cfiCond327) NoFunction
        CFI (cfiCond327) Conditional ??CrossCallReturnLabel_151, ??CrossCallReturnLabel_113
        CFI (cfiCond327) R6 load(1, XDATA, add(CFA_XSP16, literal(-23)))
        CFI (cfiCond327) VB load(1, XDATA, add(CFA_XSP16, literal(-22)))
        CFI (cfiCond327) V0 load(1, XDATA, add(CFA_XSP16, literal(-21)))
        CFI (cfiCond327) V1 load(1, XDATA, add(CFA_XSP16, literal(-20)))
        CFI (cfiCond327) V2 load(1, XDATA, add(CFA_XSP16, literal(-19)))
        CFI (cfiCond327) V3 load(1, XDATA, add(CFA_XSP16, literal(-18)))
        CFI (cfiCond327) V4 load(1, XDATA, add(CFA_XSP16, literal(-17)))
        CFI (cfiCond327) V5 load(1, XDATA, add(CFA_XSP16, literal(-16)))
        CFI (cfiCond327) V6 load(1, XDATA, add(CFA_XSP16, literal(-15)))
        CFI (cfiCond327) V7 load(1, XDATA, add(CFA_XSP16, literal(-14)))
        CFI (cfiCond327) V8 load(1, XDATA, add(CFA_XSP16, literal(-13)))
        CFI (cfiCond327) V9 load(1, XDATA, add(CFA_XSP16, literal(-12)))
        CFI (cfiCond327) V10 load(1, XDATA, add(CFA_XSP16, literal(-11)))
        CFI (cfiCond327) V11 load(1, XDATA, add(CFA_XSP16, literal(-10)))
        CFI (cfiCond327) V12 load(1, XDATA, add(CFA_XSP16, literal(-9)))
        CFI (cfiCond327) V13 load(1, XDATA, add(CFA_XSP16, literal(-8)))
        CFI (cfiCond327) V14 load(1, XDATA, add(CFA_XSP16, literal(-7)))
        CFI (cfiCond327) R7 load(1, XDATA, add(CFA_XSP16, literal(-6)))
        CFI (cfiCond327) ?RET_LOW load(1, XDATA, add(CFA_XSP16, literal(-5)))
        CFI (cfiCond327) ?RET_HIGH load(1, XDATA, add(CFA_XSP16, literal(-4)))
        CFI (cfiCond327) ?BRET_EXT load(1, XDATA, add(CFA_XSP16, literal(-3)))
        CFI (cfiCond327) DPL0 load(1, XDATA, add(CFA_XSP16, literal(-2)))
        CFI (cfiCond327) DPH0 load(1, XDATA, add(CFA_XSP16, literal(-1)))
        CFI (cfiCond327) CFA_SP SP+0
        CFI (cfiCond327) CFA_XSP16 add(XSP16, 23)
        CFI Block cfiCond328 Using cfiCommon0
        CFI (cfiCond328) NoFunction
        CFI (cfiCond328) Conditional ??CrossCallReturnLabel_151, ??CrossCallReturnLabel_114
        CFI (cfiCond328) R6 load(1, XDATA, add(CFA_XSP16, literal(-23)))
        CFI (cfiCond328) VB load(1, XDATA, add(CFA_XSP16, literal(-22)))
        CFI (cfiCond328) V0 load(1, XDATA, add(CFA_XSP16, literal(-21)))
        CFI (cfiCond328) V1 load(1, XDATA, add(CFA_XSP16, literal(-20)))
        CFI (cfiCond328) V2 load(1, XDATA, add(CFA_XSP16, literal(-19)))
        CFI (cfiCond328) V3 load(1, XDATA, add(CFA_XSP16, literal(-18)))
        CFI (cfiCond328) V4 load(1, XDATA, add(CFA_XSP16, literal(-17)))
        CFI (cfiCond328) V5 load(1, XDATA, add(CFA_XSP16, literal(-16)))
        CFI (cfiCond328) V6 load(1, XDATA, add(CFA_XSP16, literal(-15)))
        CFI (cfiCond328) V7 load(1, XDATA, add(CFA_XSP16, literal(-14)))
        CFI (cfiCond328) V8 load(1, XDATA, add(CFA_XSP16, literal(-13)))
        CFI (cfiCond328) V9 load(1, XDATA, add(CFA_XSP16, literal(-12)))
        CFI (cfiCond328) V10 load(1, XDATA, add(CFA_XSP16, literal(-11)))
        CFI (cfiCond328) V11 load(1, XDATA, add(CFA_XSP16, literal(-10)))
        CFI (cfiCond328) V12 load(1, XDATA, add(CFA_XSP16, literal(-9)))
        CFI (cfiCond328) V13 load(1, XDATA, add(CFA_XSP16, literal(-8)))
        CFI (cfiCond328) V14 load(1, XDATA, add(CFA_XSP16, literal(-7)))
        CFI (cfiCond328) R7 load(1, XDATA, add(CFA_XSP16, literal(-6)))
        CFI (cfiCond328) ?RET_LOW load(1, XDATA, add(CFA_XSP16, literal(-5)))
        CFI (cfiCond328) ?RET_HIGH load(1, XDATA, add(CFA_XSP16, literal(-4)))
        CFI (cfiCond328) ?BRET_EXT load(1, XDATA, add(CFA_XSP16, literal(-3)))
        CFI (cfiCond328) DPL0 load(1, XDATA, add(CFA_XSP16, literal(-2)))
        CFI (cfiCond328) DPH0 load(1, XDATA, add(CFA_XSP16, literal(-1)))
        CFI (cfiCond328) CFA_SP SP+0
        CFI (cfiCond328) CFA_XSP16 add(XSP16, 23)
        CFI Block cfiCond329 Using cfiCommon0
        CFI (cfiCond329) NoFunction
        CFI (cfiCond329) Conditional ??CrossCallReturnLabel_152, ??CrossCallReturnLabel_148, ??CrossCallReturnLabel_80
        CFI (cfiCond329) R6 load(1, XDATA, add(CFA_XSP16, literal(-9)))
        CFI (cfiCond329) VB load(1, XDATA, add(CFA_XSP16, literal(-8)))
        CFI (cfiCond329) V0 load(1, XDATA, add(CFA_XSP16, literal(-7)))
        CFI (cfiCond329) R7 load(1, XDATA, add(CFA_XSP16, literal(-6)))
        CFI (cfiCond329) ?RET_LOW load(1, XDATA, add(CFA_XSP16, literal(-5)))
        CFI (cfiCond329) ?RET_HIGH load(1, XDATA, add(CFA_XSP16, literal(-4)))
        CFI (cfiCond329) ?BRET_EXT load(1, XDATA, add(CFA_XSP16, literal(-3)))
        CFI (cfiCond329) DPL0 load(1, XDATA, add(CFA_XSP16, literal(-2)))
        CFI (cfiCond329) DPH0 load(1, XDATA, add(CFA_XSP16, literal(-1)))
        CFI (cfiCond329) CFA_SP SP+0
        CFI (cfiCond329) CFA_XSP16 add(XSP16, 9)
        CFI Block cfiCond330 Using cfiCommon0
        CFI (cfiCond330) NoFunction
        CFI (cfiCond330) Conditional ??CrossCallReturnLabel_152, ??CrossCallReturnLabel_148, ??CrossCallReturnLabel_81
        CFI (cfiCond330) R6 load(1, XDATA, add(CFA_XSP16, literal(-9)))
        CFI (cfiCond330) VB load(1, XDATA, add(CFA_XSP16, literal(-8)))
        CFI (cfiCond330) V0 load(1, XDATA, add(CFA_XSP16, literal(-7)))
        CFI (cfiCond330) R7 load(1, XDATA, add(CFA_XSP16, literal(-6)))
        CFI (cfiCond330) ?RET_LOW load(1, XDATA, add(CFA_XSP16, literal(-5)))
        CFI (cfiCond330) ?RET_HIGH load(1, XDATA, add(CFA_XSP16, literal(-4)))
        CFI (cfiCond330) ?BRET_EXT load(1, XDATA, add(CFA_XSP16, literal(-3)))
        CFI (cfiCond330) DPL0 load(1, XDATA, add(CFA_XSP16, literal(-2)))
        CFI (cfiCond330) DPH0 load(1, XDATA, add(CFA_XSP16, literal(-1)))
        CFI (cfiCond330) CFA_SP SP+0
        CFI (cfiCond330) CFA_XSP16 add(XSP16, 9)
        CFI Block cfiCond331 Using cfiCommon0
        CFI (cfiCond331) NoFunction
        CFI (cfiCond331) Conditional ??CrossCallReturnLabel_152, ??CrossCallReturnLabel_148, ??CrossCallReturnLabel_78
        CFI (cfiCond331) R6 load(1, XDATA, add(CFA_XSP16, literal(-11)))
        CFI (cfiCond331) VB load(1, XDATA, add(CFA_XSP16, literal(-10)))
        CFI (cfiCond331) V0 load(1, XDATA, add(CFA_XSP16, literal(-9)))
        CFI (cfiCond331) V1 load(1, XDATA, add(CFA_XSP16, literal(-8)))
        CFI (cfiCond331) V2 load(1, XDATA, add(CFA_XSP16, literal(-7)))
        CFI (cfiCond331) R7 load(1, XDATA, add(CFA_XSP16, literal(-6)))
        CFI (cfiCond331) ?RET_LOW load(1, XDATA, add(CFA_XSP16, literal(-5)))
        CFI (cfiCond331) ?RET_HIGH load(1, XDATA, add(CFA_XSP16, literal(-4)))
        CFI (cfiCond331) ?BRET_EXT load(1, XDATA, add(CFA_XSP16, literal(-3)))
        CFI (cfiCond331) DPL0 load(1, XDATA, add(CFA_XSP16, literal(-2)))
        CFI (cfiCond331) DPH0 load(1, XDATA, add(CFA_XSP16, literal(-1)))
        CFI (cfiCond331) CFA_SP SP+0
        CFI (cfiCond331) CFA_XSP16 add(XSP16, 12)
        CFI Block cfiCond332 Using cfiCommon0
        CFI (cfiCond332) NoFunction
        CFI (cfiCond332) Conditional ??CrossCallReturnLabel_152, ??CrossCallReturnLabel_148, ??CrossCallReturnLabel_79
        CFI (cfiCond332) R6 load(1, XDATA, add(CFA_XSP16, literal(-11)))
        CFI (cfiCond332) VB load(1, XDATA, add(CFA_XSP16, literal(-10)))
        CFI (cfiCond332) V0 load(1, XDATA, add(CFA_XSP16, literal(-9)))
        CFI (cfiCond332) V1 load(1, XDATA, add(CFA_XSP16, literal(-8)))
        CFI (cfiCond332) V2 load(1, XDATA, add(CFA_XSP16, literal(-7)))
        CFI (cfiCond332) R7 load(1, XDATA, add(CFA_XSP16, literal(-6)))
        CFI (cfiCond332) ?RET_LOW load(1, XDATA, add(CFA_XSP16, literal(-5)))
        CFI (cfiCond332) ?RET_HIGH load(1, XDATA, add(CFA_XSP16, literal(-4)))
        CFI (cfiCond332) ?BRET_EXT load(1, XDATA, add(CFA_XSP16, literal(-3)))
        CFI (cfiCond332) DPL0 load(1, XDATA, add(CFA_XSP16, literal(-2)))
        CFI (cfiCond332) DPH0 load(1, XDATA, add(CFA_XSP16, literal(-1)))
        CFI (cfiCond332) CFA_SP SP+0
        CFI (cfiCond332) CFA_XSP16 add(XSP16, 21)
        CFI Block cfiCond333 Using cfiCommon0
        CFI (cfiCond333) NoFunction
        CFI (cfiCond333) Conditional ??CrossCallReturnLabel_152, ??CrossCallReturnLabel_149, ??CrossCallReturnLabel_146
        CFI (cfiCond333) R6 load(1, XDATA, add(CFA_XSP16, literal(-22)))
        CFI (cfiCond333) VB load(1, XDATA, add(CFA_XSP16, literal(-21)))
        CFI (cfiCond333) V0 load(1, XDATA, add(CFA_XSP16, literal(-20)))
        CFI (cfiCond333) V1 load(1, XDATA, add(CFA_XSP16, literal(-19)))
        CFI (cfiCond333) V2 load(1, XDATA, add(CFA_XSP16, literal(-18)))
        CFI (cfiCond333) V3 load(1, XDATA, add(CFA_XSP16, literal(-17)))
        CFI (cfiCond333) V4 load(1, XDATA, add(CFA_XSP16, literal(-16)))
        CFI (cfiCond333) V5 load(1, XDATA, add(CFA_XSP16, literal(-15)))
        CFI (cfiCond333) V6 load(1, XDATA, add(CFA_XSP16, literal(-14)))
        CFI (cfiCond333) V7 load(1, XDATA, add(CFA_XSP16, literal(-13)))
        CFI (cfiCond333) V8 load(1, XDATA, add(CFA_XSP16, literal(-12)))
        CFI (cfiCond333) V9 load(1, XDATA, add(CFA_XSP16, literal(-11)))
        CFI (cfiCond333) V10 load(1, XDATA, add(CFA_XSP16, literal(-10)))
        CFI (cfiCond333) V11 load(1, XDATA, add(CFA_XSP16, literal(-9)))
        CFI (cfiCond333) V12 load(1, XDATA, add(CFA_XSP16, literal(-8)))
        CFI (cfiCond333) V13 load(1, XDATA, add(CFA_XSP16, literal(-7)))
        CFI (cfiCond333) R7 load(1, XDATA, add(CFA_XSP16, literal(-6)))
        CFI (cfiCond333) ?RET_LOW load(1, XDATA, add(CFA_XSP16, literal(-5)))
        CFI (cfiCond333) ?RET_HIGH load(1, XDATA, add(CFA_XSP16, literal(-4)))
        CFI (cfiCond333) ?BRET_EXT load(1, XDATA, add(CFA_XSP16, literal(-3)))
        CFI (cfiCond333) DPL0 load(1, XDATA, add(CFA_XSP16, literal(-2)))
        CFI (cfiCond333) DPH0 load(1, XDATA, add(CFA_XSP16, literal(-1)))
        CFI (cfiCond333) CFA_SP SP+0
        CFI (cfiCond333) CFA_XSP16 add(XSP16, 36)
        CFI Block cfiCond334 Using cfiCommon0
        CFI (cfiCond334) NoFunction
        CFI (cfiCond334) Conditional ??CrossCallReturnLabel_152, ??CrossCallReturnLabel_149, ??CrossCallReturnLabel_147
        CFI (cfiCond334) R6 load(1, XDATA, add(CFA_XSP16, literal(-11)))
        CFI (cfiCond334) VB load(1, XDATA, add(CFA_XSP16, literal(-10)))
        CFI (cfiCond334) V0 load(1, XDATA, add(CFA_XSP16, literal(-9)))
        CFI (cfiCond334) V1 load(1, XDATA, add(CFA_XSP16, literal(-8)))
        CFI (cfiCond334) V2 load(1, XDATA, add(CFA_XSP16, literal(-7)))
        CFI (cfiCond334) R7 load(1, XDATA, add(CFA_XSP16, literal(-6)))
        CFI (cfiCond334) ?RET_LOW load(1, XDATA, add(CFA_XSP16, literal(-5)))
        CFI (cfiCond334) ?RET_HIGH load(1, XDATA, add(CFA_XSP16, literal(-4)))
        CFI (cfiCond334) ?BRET_EXT load(1, XDATA, add(CFA_XSP16, literal(-3)))
        CFI (cfiCond334) DPL0 load(1, XDATA, add(CFA_XSP16, literal(-2)))
        CFI (cfiCond334) DPH0 load(1, XDATA, add(CFA_XSP16, literal(-1)))
        CFI (cfiCond334) CFA_SP SP+0
        CFI (cfiCond334) CFA_XSP16 add(XSP16, 19)
        CFI Block cfiCond335 Using cfiCommon0
        CFI (cfiCond335) NoFunction
        CFI (cfiCond335) Conditional ??CrossCallReturnLabel_152, ??CrossCallReturnLabel_149, ??CrossCallReturnLabel_139
        CFI (cfiCond335) R6 load(1, XDATA, add(CFA_XSP16, literal(-22)))
        CFI (cfiCond335) VB load(1, XDATA, add(CFA_XSP16, literal(-21)))
        CFI (cfiCond335) V0 load(1, XDATA, add(CFA_XSP16, literal(-20)))
        CFI (cfiCond335) V1 load(1, XDATA, add(CFA_XSP16, literal(-19)))
        CFI (cfiCond335) V2 load(1, XDATA, add(CFA_XSP16, literal(-18)))
        CFI (cfiCond335) V3 load(1, XDATA, add(CFA_XSP16, literal(-17)))
        CFI (cfiCond335) V4 load(1, XDATA, add(CFA_XSP16, literal(-16)))
        CFI (cfiCond335) V5 load(1, XDATA, add(CFA_XSP16, literal(-15)))
        CFI (cfiCond335) V6 load(1, XDATA, add(CFA_XSP16, literal(-14)))
        CFI (cfiCond335) V7 load(1, XDATA, add(CFA_XSP16, literal(-13)))
        CFI (cfiCond335) V8 load(1, XDATA, add(CFA_XSP16, literal(-12)))
        CFI (cfiCond335) V9 load(1, XDATA, add(CFA_XSP16, literal(-11)))
        CFI (cfiCond335) V10 load(1, XDATA, add(CFA_XSP16, literal(-10)))
        CFI (cfiCond335) V11 load(1, XDATA, add(CFA_XSP16, literal(-9)))
        CFI (cfiCond335) V12 load(1, XDATA, add(CFA_XSP16, literal(-8)))
        CFI (cfiCond335) V13 load(1, XDATA, add(CFA_XSP16, literal(-7)))
        CFI (cfiCond335) R7 load(1, XDATA, add(CFA_XSP16, literal(-6)))
        CFI (cfiCond335) ?RET_LOW load(1, XDATA, add(CFA_XSP16, literal(-5)))
        CFI (cfiCond335) ?RET_HIGH load(1, XDATA, add(CFA_XSP16, literal(-4)))
        CFI (cfiCond335) ?BRET_EXT load(1, XDATA, add(CFA_XSP16, literal(-3)))
        CFI (cfiCond335) DPL0 load(1, XDATA, add(CFA_XSP16, literal(-2)))
        CFI (cfiCond335) DPH0 load(1, XDATA, add(CFA_XSP16, literal(-1)))
        CFI (cfiCond335) CFA_SP SP+0
        CFI (cfiCond335) CFA_XSP16 add(XSP16, 36)
        CFI Block cfiCond336 Using cfiCommon0
        CFI (cfiCond336) NoFunction
        CFI (cfiCond336) Conditional ??CrossCallReturnLabel_152, ??CrossCallReturnLabel_149, ??CrossCallReturnLabel_140
        CFI (cfiCond336) R6 load(1, XDATA, add(CFA_XSP16, literal(-22)))
        CFI (cfiCond336) VB load(1, XDATA, add(CFA_XSP16, literal(-21)))
        CFI (cfiCond336) V0 load(1, XDATA, add(CFA_XSP16, literal(-20)))
        CFI (cfiCond336) V1 load(1, XDATA, add(CFA_XSP16, literal(-19)))
        CFI (cfiCond336) V2 load(1, XDATA, add(CFA_XSP16, literal(-18)))
        CFI (cfiCond336) V3 load(1, XDATA, add(CFA_XSP16, literal(-17)))
        CFI (cfiCond336) V4 load(1, XDATA, add(CFA_XSP16, literal(-16)))
        CFI (cfiCond336) V5 load(1, XDATA, add(CFA_XSP16, literal(-15)))
        CFI (cfiCond336) V6 load(1, XDATA, add(CFA_XSP16, literal(-14)))
        CFI (cfiCond336) V7 load(1, XDATA, add(CFA_XSP16, literal(-13)))
        CFI (cfiCond336) V8 load(1, XDATA, add(CFA_XSP16, literal(-12)))
        CFI (cfiCond336) V9 load(1, XDATA, add(CFA_XSP16, literal(-11)))
        CFI (cfiCond336) V10 load(1, XDATA, add(CFA_XSP16, literal(-10)))
        CFI (cfiCond336) V11 load(1, XDATA, add(CFA_XSP16, literal(-9)))
        CFI (cfiCond336) V12 load(1, XDATA, add(CFA_XSP16, literal(-8)))
        CFI (cfiCond336) V13 load(1, XDATA, add(CFA_XSP16, literal(-7)))
        CFI (cfiCond336) R7 load(1, XDATA, add(CFA_XSP16, literal(-6)))
        CFI (cfiCond336) ?RET_LOW load(1, XDATA, add(CFA_XSP16, literal(-5)))
        CFI (cfiCond336) ?RET_HIGH load(1, XDATA, add(CFA_XSP16, literal(-4)))
        CFI (cfiCond336) ?BRET_EXT load(1, XDATA, add(CFA_XSP16, literal(-3)))
        CFI (cfiCond336) DPL0 load(1, XDATA, add(CFA_XSP16, literal(-2)))
        CFI (cfiCond336) DPH0 load(1, XDATA, add(CFA_XSP16, literal(-1)))
        CFI (cfiCond336) CFA_SP SP+0
        CFI (cfiCond336) CFA_XSP16 add(XSP16, 36)
        CFI Block cfiCond337 Using cfiCommon0
        CFI (cfiCond337) NoFunction
        CFI (cfiCond337) Conditional ??CrossCallReturnLabel_152, ??CrossCallReturnLabel_149, ??CrossCallReturnLabel_141
        CFI (cfiCond337) R6 load(1, XDATA, add(CFA_XSP16, literal(-22)))
        CFI (cfiCond337) VB load(1, XDATA, add(CFA_XSP16, literal(-21)))
        CFI (cfiCond337) V0 load(1, XDATA, add(CFA_XSP16, literal(-20)))
        CFI (cfiCond337) V1 load(1, XDATA, add(CFA_XSP16, literal(-19)))
        CFI (cfiCond337) V2 load(1, XDATA, add(CFA_XSP16, literal(-18)))
        CFI (cfiCond337) V3 load(1, XDATA, add(CFA_XSP16, literal(-17)))
        CFI (cfiCond337) V4 load(1, XDATA, add(CFA_XSP16, literal(-16)))
        CFI (cfiCond337) V5 load(1, XDATA, add(CFA_XSP16, literal(-15)))
        CFI (cfiCond337) V6 load(1, XDATA, add(CFA_XSP16, literal(-14)))
        CFI (cfiCond337) V7 load(1, XDATA, add(CFA_XSP16, literal(-13)))
        CFI (cfiCond337) V8 load(1, XDATA, add(CFA_XSP16, literal(-12)))
        CFI (cfiCond337) V9 load(1, XDATA, add(CFA_XSP16, literal(-11)))
        CFI (cfiCond337) V10 load(1, XDATA, add(CFA_XSP16, literal(-10)))
        CFI (cfiCond337) V11 load(1, XDATA, add(CFA_XSP16, literal(-9)))
        CFI (cfiCond337) V12 load(1, XDATA, add(CFA_XSP16, literal(-8)))
        CFI (cfiCond337) V13 load(1, XDATA, add(CFA_XSP16, literal(-7)))
        CFI (cfiCond337) R7 load(1, XDATA, add(CFA_XSP16, literal(-6)))
        CFI (cfiCond337) ?RET_LOW load(1, XDATA, add(CFA_XSP16, literal(-5)))
        CFI (cfiCond337) ?RET_HIGH load(1, XDATA, add(CFA_XSP16, literal(-4)))
        CFI (cfiCond337) ?BRET_EXT load(1, XDATA, add(CFA_XSP16, literal(-3)))
        CFI (cfiCond337) DPL0 load(1, XDATA, add(CFA_XSP16, literal(-2)))
        CFI (cfiCond337) DPH0 load(1, XDATA, add(CFA_XSP16, literal(-1)))
        CFI (cfiCond337) CFA_SP SP+-1
        CFI (cfiCond337) CFA_XSP16 add(XSP16, 36)
        CFI Block cfiCond338 Using cfiCommon0
        CFI (cfiCond338) NoFunction
        CFI (cfiCond338) Conditional ??CrossCallReturnLabel_152, ??CrossCallReturnLabel_149, ??CrossCallReturnLabel_142
        CFI (cfiCond338) R6 load(1, XDATA, add(CFA_XSP16, literal(-22)))
        CFI (cfiCond338) VB load(1, XDATA, add(CFA_XSP16, literal(-21)))
        CFI (cfiCond338) V0 load(1, XDATA, add(CFA_XSP16, literal(-20)))
        CFI (cfiCond338) V1 load(1, XDATA, add(CFA_XSP16, literal(-19)))
        CFI (cfiCond338) V2 load(1, XDATA, add(CFA_XSP16, literal(-18)))
        CFI (cfiCond338) V3 load(1, XDATA, add(CFA_XSP16, literal(-17)))
        CFI (cfiCond338) V4 load(1, XDATA, add(CFA_XSP16, literal(-16)))
        CFI (cfiCond338) V5 load(1, XDATA, add(CFA_XSP16, literal(-15)))
        CFI (cfiCond338) V6 load(1, XDATA, add(CFA_XSP16, literal(-14)))
        CFI (cfiCond338) V7 load(1, XDATA, add(CFA_XSP16, literal(-13)))
        CFI (cfiCond338) V8 load(1, XDATA, add(CFA_XSP16, literal(-12)))
        CFI (cfiCond338) V9 load(1, XDATA, add(CFA_XSP16, literal(-11)))
        CFI (cfiCond338) V10 load(1, XDATA, add(CFA_XSP16, literal(-10)))
        CFI (cfiCond338) V11 load(1, XDATA, add(CFA_XSP16, literal(-9)))
        CFI (cfiCond338) V12 load(1, XDATA, add(CFA_XSP16, literal(-8)))
        CFI (cfiCond338) V13 load(1, XDATA, add(CFA_XSP16, literal(-7)))
        CFI (cfiCond338) R7 load(1, XDATA, add(CFA_XSP16, literal(-6)))
        CFI (cfiCond338) ?RET_LOW load(1, XDATA, add(CFA_XSP16, literal(-5)))
        CFI (cfiCond338) ?RET_HIGH load(1, XDATA, add(CFA_XSP16, literal(-4)))
        CFI (cfiCond338) ?BRET_EXT load(1, XDATA, add(CFA_XSP16, literal(-3)))
        CFI (cfiCond338) DPL0 load(1, XDATA, add(CFA_XSP16, literal(-2)))
        CFI (cfiCond338) DPH0 load(1, XDATA, add(CFA_XSP16, literal(-1)))
        CFI (cfiCond338) CFA_SP SP+0
        CFI (cfiCond338) CFA_XSP16 add(XSP16, 36)
        CFI Block cfiCond339 Using cfiCommon0
        CFI (cfiCond339) NoFunction
        CFI (cfiCond339) Conditional ??CrossCallReturnLabel_152, ??CrossCallReturnLabel_149, ??CrossCallReturnLabel_143
        CFI (cfiCond339) R6 load(1, XDATA, add(CFA_XSP16, literal(-22)))
        CFI (cfiCond339) VB load(1, XDATA, add(CFA_XSP16, literal(-21)))
        CFI (cfiCond339) V0 load(1, XDATA, add(CFA_XSP16, literal(-20)))
        CFI (cfiCond339) V1 load(1, XDATA, add(CFA_XSP16, literal(-19)))
        CFI (cfiCond339) V2 load(1, XDATA, add(CFA_XSP16, literal(-18)))
        CFI (cfiCond339) V3 load(1, XDATA, add(CFA_XSP16, literal(-17)))
        CFI (cfiCond339) V4 load(1, XDATA, add(CFA_XSP16, literal(-16)))
        CFI (cfiCond339) V5 load(1, XDATA, add(CFA_XSP16, literal(-15)))
        CFI (cfiCond339) V6 load(1, XDATA, add(CFA_XSP16, literal(-14)))
        CFI (cfiCond339) V7 load(1, XDATA, add(CFA_XSP16, literal(-13)))
        CFI (cfiCond339) V8 load(1, XDATA, add(CFA_XSP16, literal(-12)))
        CFI (cfiCond339) V9 load(1, XDATA, add(CFA_XSP16, literal(-11)))
        CFI (cfiCond339) V10 load(1, XDATA, add(CFA_XSP16, literal(-10)))
        CFI (cfiCond339) V11 load(1, XDATA, add(CFA_XSP16, literal(-9)))
        CFI (cfiCond339) V12 load(1, XDATA, add(CFA_XSP16, literal(-8)))
        CFI (cfiCond339) V13 load(1, XDATA, add(CFA_XSP16, literal(-7)))
        CFI (cfiCond339) R7 load(1, XDATA, add(CFA_XSP16, literal(-6)))
        CFI (cfiCond339) ?RET_LOW load(1, XDATA, add(CFA_XSP16, literal(-5)))
        CFI (cfiCond339) ?RET_HIGH load(1, XDATA, add(CFA_XSP16, literal(-4)))
        CFI (cfiCond339) ?BRET_EXT load(1, XDATA, add(CFA_XSP16, literal(-3)))
        CFI (cfiCond339) DPL0 load(1, XDATA, add(CFA_XSP16, literal(-2)))
        CFI (cfiCond339) DPH0 load(1, XDATA, add(CFA_XSP16, literal(-1)))
        CFI (cfiCond339) CFA_SP SP+0
        CFI (cfiCond339) CFA_XSP16 add(XSP16, 36)
        CFI Block cfiCond340 Using cfiCommon0
        CFI (cfiCond340) NoFunction
        CFI (cfiCond340) Conditional ??CrossCallReturnLabel_152, ??CrossCallReturnLabel_149, ??CrossCallReturnLabel_144
        CFI (cfiCond340) R6 load(1, XDATA, add(CFA_XSP16, literal(-22)))
        CFI (cfiCond340) VB load(1, XDATA, add(CFA_XSP16, literal(-21)))
        CFI (cfiCond340) V0 load(1, XDATA, add(CFA_XSP16, literal(-20)))
        CFI (cfiCond340) V1 load(1, XDATA, add(CFA_XSP16, literal(-19)))
        CFI (cfiCond340) V2 load(1, XDATA, add(CFA_XSP16, literal(-18)))
        CFI (cfiCond340) V3 load(1, XDATA, add(CFA_XSP16, literal(-17)))
        CFI (cfiCond340) V4 load(1, XDATA, add(CFA_XSP16, literal(-16)))
        CFI (cfiCond340) V5 load(1, XDATA, add(CFA_XSP16, literal(-15)))
        CFI (cfiCond340) V6 load(1, XDATA, add(CFA_XSP16, literal(-14)))
        CFI (cfiCond340) V7 load(1, XDATA, add(CFA_XSP16, literal(-13)))
        CFI (cfiCond340) V8 load(1, XDATA, add(CFA_XSP16, literal(-12)))
        CFI (cfiCond340) V9 load(1, XDATA, add(CFA_XSP16, literal(-11)))
        CFI (cfiCond340) V10 load(1, XDATA, add(CFA_XSP16, literal(-10)))
        CFI (cfiCond340) V11 load(1, XDATA, add(CFA_XSP16, literal(-9)))
        CFI (cfiCond340) V12 load(1, XDATA, add(CFA_XSP16, literal(-8)))
        CFI (cfiCond340) V13 load(1, XDATA, add(CFA_XSP16, literal(-7)))
        CFI (cfiCond340) R7 load(1, XDATA, add(CFA_XSP16, literal(-6)))
        CFI (cfiCond340) ?RET_LOW load(1, XDATA, add(CFA_XSP16, literal(-5)))
        CFI (cfiCond340) ?RET_HIGH load(1, XDATA, add(CFA_XSP16, literal(-4)))
        CFI (cfiCond340) ?BRET_EXT load(1, XDATA, add(CFA_XSP16, literal(-3)))
        CFI (cfiCond340) DPL0 load(1, XDATA, add(CFA_XSP16, literal(-2)))
        CFI (cfiCond340) DPH0 load(1, XDATA, add(CFA_XSP16, literal(-1)))
        CFI (cfiCond340) CFA_SP SP+0
        CFI (cfiCond340) CFA_XSP16 add(XSP16, 36)
        CFI Block cfiCond341 Using cfiCommon0
        CFI (cfiCond341) NoFunction
        CFI (cfiCond341) Conditional ??CrossCallReturnLabel_152, ??CrossCallReturnLabel_149, ??CrossCallReturnLabel_145
        CFI (cfiCond341) R6 load(1, XDATA, add(CFA_XSP16, literal(-11)))
        CFI (cfiCond341) VB load(1, XDATA, add(CFA_XSP16, literal(-10)))
        CFI (cfiCond341) V0 load(1, XDATA, add(CFA_XSP16, literal(-9)))
        CFI (cfiCond341) V1 load(1, XDATA, add(CFA_XSP16, literal(-8)))
        CFI (cfiCond341) V2 load(1, XDATA, add(CFA_XSP16, literal(-7)))
        CFI (cfiCond341) R7 load(1, XDATA, add(CFA_XSP16, literal(-6)))
        CFI (cfiCond341) ?RET_LOW load(1, XDATA, add(CFA_XSP16, literal(-5)))
        CFI (cfiCond341) ?RET_HIGH load(1, XDATA, add(CFA_XSP16, literal(-4)))
        CFI (cfiCond341) ?BRET_EXT load(1, XDATA, add(CFA_XSP16, literal(-3)))
        CFI (cfiCond341) DPL0 load(1, XDATA, add(CFA_XSP16, literal(-2)))
        CFI (cfiCond341) DPH0 load(1, XDATA, add(CFA_XSP16, literal(-1)))
        CFI (cfiCond341) CFA_SP SP+0
        CFI (cfiCond341) CFA_XSP16 add(XSP16, 17)
        CFI Block cfiPicker342 Using cfiCommon1
        CFI (cfiPicker342) NoFunction
        CFI (cfiPicker342) Picker
        ADDC    A,#0x0
        MOV     R1,A
        MOV     DPL,R0
        MOV     DPH,R1
        RET
        CFI EndBlock cfiCond322
        CFI EndBlock cfiCond323
        CFI EndBlock cfiCond324
        CFI EndBlock cfiCond325
        CFI EndBlock cfiCond326
        CFI EndBlock cfiCond327
        CFI EndBlock cfiCond328
        CFI EndBlock cfiCond329
        CFI EndBlock cfiCond330
        CFI EndBlock cfiCond331
        CFI EndBlock cfiCond332
        CFI EndBlock cfiCond333
        CFI EndBlock cfiCond334
        CFI EndBlock cfiCond335
        CFI EndBlock cfiCond336
        CFI EndBlock cfiCond337
        CFI EndBlock cfiCond338
        CFI EndBlock cfiCond339
        CFI EndBlock cfiCond340
        CFI EndBlock cfiCond341
        CFI EndBlock cfiPicker342

        RSEG BANK_RELAYS:CODE:REORDER:NOROOT(0)
??MT_AfExec?relay:
        LCALL   ?BDISPATCH
        DATA
        DC24    MT_AfExec

        RSEG BANK_RELAYS:CODE:REORDER:NOROOT(0)
??MT_AfCommandProcessing?relay:
        LCALL   ?BDISPATCH
        DATA
        DC24    MT_AfCommandProcessing

        RSEG BANK_RELAYS:CODE:REORDER:NOROOT(0)
??MT_AfRegister?relay:
        LCALL   ?BDISPATCH
        DATA
        DC24    MT_AfRegister

        RSEG BANK_RELAYS:CODE:REORDER:NOROOT(0)
??MT_AfDataRequest?relay:
        LCALL   ?BDISPATCH
        DATA
        DC24    MT_AfDataRequest

        RSEG BANK_RELAYS:CODE:REORDER:NOROOT(0)
??MT_AfDataRequestSrcRtg?relay:
        LCALL   ?BDISPATCH
        DATA
        DC24    MT_AfDataRequestSrcRtg

        RSEG BANK_RELAYS:CODE:REORDER:NOROOT(0)
??MT_AfInterPanCtl?relay:
        LCALL   ?BDISPATCH
        DATA
        DC24    MT_AfInterPanCtl

        RSEG BANK_RELAYS:CODE:REORDER:NOROOT(0)
??MT_AfDataConfirm?relay:
        LCALL   ?BDISPATCH
        DATA
        DC24    MT_AfDataConfirm

        RSEG BANK_RELAYS:CODE:REORDER:NOROOT(0)
??MT_AfIncomingMsg?relay:
        LCALL   ?BDISPATCH
        DATA
        DC24    MT_AfIncomingMsg

        RSEG BANK_RELAYS:CODE:REORDER:NOROOT(0)
??MT_AfDataRetrieve?relay:
        LCALL   ?BDISPATCH
        DATA
        DC24    MT_AfDataRetrieve

        RSEG BANK_RELAYS:CODE:REORDER:NOROOT(0)
??MT_AfDataStore?relay:
        LCALL   ?BDISPATCH
        DATA
        DC24    MT_AfDataStore

        END
//  891 
//  892 /**************************************************************************************************
//  893  * @fn          MT_AfAPSF_ConfigSet
//  894  *
//  895  * @brief       This function is the MT proxy for afAPSF_ConfigSet().
//  896  *
//  897  * input parameters
//  898  *
//  899  * @param       pBuf - Pointer to the received buffer.
//  900  *
//  901  * output parameters
//  902  *
//  903  * None.
//  904  *
//  905  * @return      None.
//  906  */
//  907 static void MT_AfAPSF_ConfigSet(uint8 *pBuf)
//  908 {
//  909   afAPSF_Config_t cfg = { pBuf[MT_RPC_POS_DAT0+1], pBuf[MT_RPC_POS_DAT0+2] };
//  910   afStatus_t rtrn = afAPSF_ConfigSet(pBuf[MT_RPC_POS_DAT0], &cfg);
//  911 
//  912   MT_BuildAndSendZToolResponse(((uint8)MT_RPC_CMD_SRSP | (uint8)MT_RPC_SYS_AF),
//  913                                        MT_AF_APSF_CONFIG_SET, 1, (uint8 *)&rtrn);
//  914 }
//  915 
//  916 /***************************************************************************************************
//  917 ***************************************************************************************************/
// 
// 3 372 bytes in segment BANKED_CODE
//    60 bytes in segment BANK_RELAYS
//     4 bytes in segment XDATA_Z
// 
// 3 432 bytes of CODE  memory
//     4 bytes of XDATA memory
//
//Errors: none
//Warnings: none
