###############################################################################
#                                                                             #
# IAR C/C++ Compiler V8.10.3.10338/W32 for 8051         05/Aug/2016  10:43:13 #
# Copyright 2004-2011 IAR Systems AB.                                         #
#                                                                             #
#    Core               =  plain                                              #
#    Code model         =  banked                                             #
#    Data model         =  large                                              #
#    Calling convention =  xdata reentrant                                    #
#    Constant location  =  data_rom                                           #
#    Dptr setup         =  1,16                                               #
#    Source file        =  G:\»ªÖÚÎÞÏß\12.´®¿ÚÍ¸´«Ö®ÎÞÏßQQ\ZStack-2.5.1a\Proj #
#                          ects\zstack\SE\SampleApp\Source\ESP\OSAL_ESP.c     #
#    Command line       =  -f G:\»ªÖÚÎÞÏß\12.´®¿ÚÍ¸´«Ö®ÎÞÏßQQ\ZStack-2.5.1a\P #
#                          rojects\zstack\SE\SampleApp\CC2530DB\..\..\..\Tool #
#                          s\CC2530DB\f8wCoord.cfg (-DCPU32MHZ                #
#                          -DROOT=__near_func -DMAC_CFG_APP_PENDING_QUEUE=TRU #
#                          E -DMAC_CFG_TX_DATA_MAX=5 -DMAC_CFG_TX_MAX=8       #
#                          -DMAC_CFG_RX_MAX=5 -DZDO_COORDINATOR -DRTR_NWK)    #
#                          -f G:\»ªÖÚÎÞÏß\12.´®¿ÚÍ¸´«Ö®ÎÞÏßQQ\ZStack-2.5.1a\P #
#                          rojects\zstack\SE\SampleApp\CC2530DB\..\..\..\Tool #
#                          s\CC2530DB\f8wConfig.cfg (-DZIGBEEPRO -DSECURE=0   #
#                          -DZG_SECURE_DYNAMIC=0 -DREFLECTOR                  #
#                          -DDEFAULT_CHANLIST=0x02000000                      #
#                          -DZDAPP_CONFIG_PAN_ID=0x1688                       #
#                          -DNWK_START_DELAY=100 -DEXTENDED_JOINING_RANDOM_MA #
#                          SK=0x007F -DBEACON_REQUEST_DELAY=100               #
#                          -DBEACON_REQ_DELAY_MASK=0x00FF                     #
#                          -DLINK_STATUS_JITTER_MASK=0x007F                   #
#                          -DROUTE_EXPIRY_TIME=30 -DAPSC_ACK_WAIT_DURATION_PO #
#                          LLED=3000 -DNWK_INDIRECT_MSG_TIMEOUT=7             #
#                          -DMAX_RREQ_ENTRIES=8 -DAPSC_MAX_FRAME_RETRIES=3    #
#                          -DNWK_MAX_DATA_RETRIES=2                           #
#                          -DMAX_POLL_FAILURE_RETRIES=2 -DMAX_BCAST=9         #
#                          -DAPS_MAX_GROUPS=16 -DMAX_RTG_ENTRIES=40           #
#                          -DNWK_MAX_BINDING_ENTRIES=4                        #
#                          -DMAX_BINDING_CLUSTER_IDS=4 "-DDEFAULT_KEY={0x01,  #
#                          0x03, 0x05, 0x07, 0x09, 0x0B, 0x0D, 0x0F, 0x00,    #
#                          0x02, 0x04, 0x06, 0x08, 0x0A, 0x0C, 0x0D}"         #
#                          -DMAC_MAX_FRAME_SIZE=116                           #
#                          -DZDNWKMGR_MIN_TRANSMISSIONS=20 "-DCONST=const     #
#                          __code" -DGENERIC=__generic                        #
#                          -DRFD_RCVC_ALWAYS_ON=FALSE -DPOLL_RATE=1000        #
#                          -DQUEUED_POLL_RATE=100 -DRESPONSE_POLL_RATE=100    #
#                          -DREJOIN_POLL_RATE=440) -f                         #
#                          G:\»ªÖÚÎÞÏß\12.´®¿ÚÍ¸´«Ö®ÎÞÏßQQ\ZStack-2.5.1a\Proj #
#                          ects\zstack\SE\SampleApp\CC2530DB\..\..\..\Tools\C #
#                          C2530DB\f8wZCL.cfg (-DZCL_READ -DZCL_WRITE         #
#                          -DZCL_BASIC -DZCL_IDENTIFY -DZCL_ON_OFF            #
#                          -DZCL_KEY_ESTABLISH -DZCL_KEY_ESTABLISHMENT_KEY_GE #
#                          NERATE_TIMEOUT=4 -DZCL_KEY_ESTABLISHMENT_MAC_GENER #
#                          ATE_TIMEOUT=10 -DZCL_KEY_ESTABLISHMENT_EKEY_GENERA #
#                          TE_TIMEOUT=10 -DZCL_LOAD_CONTROL                   #
#                          -DZCL_SIMPLE_METERING -DZCL_PRICING -DZCL_MESSAGE  #
#                          -DZCL_TUNNELING -DZCL_TOU) -DZCL_DEVICE_MGMT       #
#                          G:\»ªÖÚÎÞÏß\12.´®¿ÚÍ¸´«Ö®ÎÞÏßQQ\ZStack-2.5.1a\Proj #
#                          ects\zstack\SE\SampleApp\Source\ESP\OSAL_ESP.c -D  #
#                          TC_LINKKEY_JOIN -D ZTOOL_P1 -D MT_TASK -D          #
#                          MT_APP_FUNC -D MT_SYS_FUNC -D LCD_SUPPORTED -D     #
#                          INT_HEAP_LEN=2450 -D NV_INIT -D xNV_RESTORE -D     #
#                          ZCL_REPORT -D INTER_PAN -D                         #
#                          ZDSECMGR_TC_DEVICE_MAX=16 -D TEST_CERT_DATA -lC    #
#                          "G:\»ªÖÚÎÞÏß\12.´®¿ÚÍ¸´«Ö®ÎÞÏßQQ\ZStack-2.5.1a\Pro #
#                          jects\zstack\SE\SampleApp\CC2530DB\ESP -           #
#                          Coordinator\List\" -lA "G:\»ªÖÚÎÞÏß\12.´®¿ÚÍ¸´«Ö®Î #
#                          ÞÏßQQ\ZStack-2.5.1a\Projects\zstack\SE\SampleApp\C #
#                          C2530DB\ESP - Coordinator\List\" --diag_suppress   #
#                          Pe001,Pa010 -o "G:\»ªÖÚÎÞÏß\12.´®¿ÚÍ¸´«Ö®ÎÞÏßQQ\ZS #
#                          tack-2.5.1a\Projects\zstack\SE\SampleApp\CC2530DB\ #
#                          ESP - Coordinator\Obj\" -e --no_code_motion        #
#                          --debug --core=plain --dptr=16,1                   #
#                          --data_model=large --code_model=banked             #
#                          --calling_convention=xdata_reentrant               #
#                          --place_constants=data_rom --nr_virtual_regs 16    #
#                          -I G:\»ªÖÚÎÞÏß\12.´®¿ÚÍ¸´«Ö®ÎÞÏßQQ\ZStack-2.5.1a\P #
#                          rojects\zstack\SE\SampleApp\CC2530DB\ -I           #
#                          G:\»ªÖÚÎÞÏß\12.´®¿ÚÍ¸´«Ö®ÎÞÏßQQ\ZStack-2.5.1a\Proj #
#                          ects\zstack\SE\SampleApp\CC2530DB\..\Source\ -I    #
#                          G:\»ªÖÚÎÞÏß\12.´®¿ÚÍ¸´«Ö®ÎÞÏßQQ\ZStack-2.5.1a\Proj #
#                          ects\zstack\SE\SampleApp\CC2530DB\..\..\Source\    #
#                          -I G:\»ªÖÚÎÞÏß\12.´®¿ÚÍ¸´«Ö®ÎÞÏßQQ\ZStack-2.5.1a\P #
#                          rojects\zstack\SE\SampleApp\CC2530DB\..\..\..\ZMai #
#                          n\TI2530DB\ -I G:\»ªÖÚÎÞÏß\12.´®¿ÚÍ¸´«Ö®ÎÞÏßQQ\ZSt #
#                          ack-2.5.1a\Projects\zstack\SE\SampleApp\CC2530DB\. #
#                          .\..\..\..\..\Components\hal\include\ -I           #
#                          G:\»ªÖÚÎÞÏß\12.´®¿ÚÍ¸´«Ö®ÎÞÏßQQ\ZStack-2.5.1a\Proj #
#                          ects\zstack\SE\SampleApp\CC2530DB\..\..\..\..\..\C #
#                          omponents\hal\target\CC2530EB\ -I                  #
#                          G:\»ªÖÚÎÞÏß\12.´®¿ÚÍ¸´«Ö®ÎÞÏßQQ\ZStack-2.5.1a\Proj #
#                          ects\zstack\SE\SampleApp\CC2530DB\..\..\..\..\..\C #
#                          omponents\mac\include\ -I                          #
#                          G:\»ªÖÚÎÞÏß\12.´®¿ÚÍ¸´«Ö®ÎÞÏßQQ\ZStack-2.5.1a\Proj #
#                          ects\zstack\SE\SampleApp\CC2530DB\..\..\..\..\..\C #
#                          omponents\mac\high_level\ -I                       #
#                          G:\»ªÖÚÎÞÏß\12.´®¿ÚÍ¸´«Ö®ÎÞÏßQQ\ZStack-2.5.1a\Proj #
#                          ects\zstack\SE\SampleApp\CC2530DB\..\..\..\..\..\C #
#                          omponents\mac\low_level\srf04\ -I                  #
#                          G:\»ªÖÚÎÞÏß\12.´®¿ÚÍ¸´«Ö®ÎÞÏßQQ\ZStack-2.5.1a\Proj #
#                          ects\zstack\SE\SampleApp\CC2530DB\..\..\..\..\..\C #
#                          omponents\mac\low_level\srf04\single_chip\ -I      #
#                          G:\»ªÖÚÎÞÏß\12.´®¿ÚÍ¸´«Ö®ÎÞÏßQQ\ZStack-2.5.1a\Proj #
#                          ects\zstack\SE\SampleApp\CC2530DB\..\..\..\..\..\C #
#                          omponents\mt\ -I G:\»ªÖÚÎÞÏß\12.´®¿ÚÍ¸´«Ö®ÎÞÏßQQ\Z #
#                          Stack-2.5.1a\Projects\zstack\SE\SampleApp\CC2530DB #
#                          \..\..\..\..\..\Components\osal\include\ -I        #
#                          G:\»ªÖÚÎÞÏß\12.´®¿ÚÍ¸´«Ö®ÎÞÏßQQ\ZStack-2.5.1a\Proj #
#                          ects\zstack\SE\SampleApp\CC2530DB\..\..\..\..\..\C #
#                          omponents\services\saddr\ -I                       #
#                          G:\»ªÖÚÎÞÏß\12.´®¿ÚÍ¸´«Ö®ÎÞÏßQQ\ZStack-2.5.1a\Proj #
#                          ects\zstack\SE\SampleApp\CC2530DB\..\..\..\..\..\C #
#                          omponents\services\sdata\ -I                       #
#                          G:\»ªÖÚÎÞÏß\12.´®¿ÚÍ¸´«Ö®ÎÞÏßQQ\ZStack-2.5.1a\Proj #
#                          ects\zstack\SE\SampleApp\CC2530DB\..\..\..\..\..\C #
#                          omponents\stack\af\ -I G:\»ªÖÚÎÞÏß\12.´®¿ÚÍ¸´«Ö®ÎÞ #
#                          ÏßQQ\ZStack-2.5.1a\Projects\zstack\SE\SampleApp\CC #
#                          2530DB\..\..\..\..\..\Components\stack\nwk\ -I     #
#                          G:\»ªÖÚÎÞÏß\12.´®¿ÚÍ¸´«Ö®ÎÞÏßQQ\ZStack-2.5.1a\Proj #
#                          ects\zstack\SE\SampleApp\CC2530DB\..\..\..\..\..\C #
#                          omponents\stack\sapi\ -I                           #
#                          G:\»ªÖÚÎÞÏß\12.´®¿ÚÍ¸´«Ö®ÎÞÏßQQ\ZStack-2.5.1a\Proj #
#                          ects\zstack\SE\SampleApp\CC2530DB\..\..\..\..\..\C #
#                          omponents\stack\sec\ -I G:\»ªÖÚÎÞÏß\12.´®¿ÚÍ¸´«Ö®Î #
#                          ÞÏßQQ\ZStack-2.5.1a\Projects\zstack\SE\SampleApp\C #
#                          C2530DB\..\..\..\..\..\Components\stack\sys\ -I    #
#                          G:\»ªÖÚÎÞÏß\12.´®¿ÚÍ¸´«Ö®ÎÞÏßQQ\ZStack-2.5.1a\Proj #
#                          ects\zstack\SE\SampleApp\CC2530DB\..\..\..\..\..\C #
#                          omponents\stack\zcl\ -I G:\»ªÖÚÎÞÏß\12.´®¿ÚÍ¸´«Ö®Î #
#                          ÞÏßQQ\ZStack-2.5.1a\Projects\zstack\SE\SampleApp\C #
#                          C2530DB\..\..\..\..\..\Components\stack\zdo\ -I    #
#                          G:\»ªÖÚÎÞÏß\12.´®¿ÚÍ¸´«Ö®ÎÞÏßQQ\ZStack-2.5.1a\Proj #
#                          ects\zstack\SE\SampleApp\CC2530DB\..\..\..\..\..\C #
#                          omponents\zmac\ -I G:\»ªÖÚÎÞÏß\12.´®¿ÚÍ¸´«Ö®ÎÞÏßQQ #
#                          \ZStack-2.5.1a\Projects\zstack\SE\SampleApp\CC2530 #
#                          DB\..\..\..\..\..\Components\zmac\f8w\ -Ohz        #
#                          --require_prototypes                               #
#    List file          =  G:\»ªÖÚÎÞÏß\12.´®¿ÚÍ¸´«Ö®ÎÞÏßQQ\ZStack-2.5.1a\Proj #
#                          ects\zstack\SE\SampleApp\CC2530DB\ESP -            #
#                          Coordinator\List\OSAL_ESP.lst                      #
#    Object file        =  G:\»ªÖÚÎÞÏß\12.´®¿ÚÍ¸´«Ö®ÎÞÏßQQ\ZStack-2.5.1a\Proj #
#                          ects\zstack\SE\SampleApp\CC2530DB\ESP -            #
#                          Coordinator\Obj\OSAL_ESP.r51                       #
#                                                                             #
#                                                                             #
###############################################################################

G:\»ªÖÚÎÞÏß\12.´®¿ÚÍ¸´«Ö®ÎÞÏßQQ\ZStack-2.5.1a\Projects\zstack\SE\SampleApp\Source\ESP\OSAL_ESP.c
      1          /**************************************************************************************************
      2            Filename:       OSAL_esp.c
      3            Revised:        $Date: 2009-12-16 11:20:11 -0800 (Wed, 16 Dec 2009) $
      4            Revision:       $Revision: 21338 $
      5          
      6            Description:    Task initialization for the ESP
      7          
      8          
      9            Copyright 2009-2010 Texas Instruments Incorporated. All rights reserved.
     10          
     11            IMPORTANT: Your use of this Software is limited to those specific rights
     12            granted under the terms of a software license agreement between the user
     13            who downloaded the software, his/her employer (which must be your employer)
     14            and Texas Instruments Incorporated (the "License").  You may not use this
     15            Software unless you agree to abide by the terms of the License. The License
     16            limits your use, and you acknowledge, that the Software may not be modified,
     17            copied or distributed unless embedded on a Texas Instruments microcontroller
     18            or used solely and exclusively in conjunction with a Texas Instruments radio
     19            frequency transceiver, which is integrated into your product.  Other than for
     20            the foregoing purpose, you may not use, reproduce, copy, prepare derivative
     21            works of, modify, distribute, perform, display or sell this Software and/or
     22            its documentation for any purpose.
     23          
     24            YOU FURTHER ACKNOWLEDGE AND AGREE THAT THE SOFTWARE AND DOCUMENTATION ARE
     25            PROVIDED “AS IS” WITHOUT WARRANTY OF ANY KIND, EITHER EXPRESS OR IMPLIED,
     26            INCLUDING WITHOUT LIMITATION, ANY WARRANTY OF MERCHANTABILITY, TITLE,
     27            NON-INFRINGEMENT AND FITNESS FOR A PARTICULAR PURPOSE. IN NO EVENT SHALL
     28            TEXAS INSTRUMENTS OR ITS LICENSORS BE LIABLE OR OBLIGATED UNDER CONTRACT,
     29            NEGLIGENCE, STRICT LIABILITY, CONTRIBUTION, BREACH OF WARRANTY, OR OTHER
     30            LEGAL EQUITABLE THEORY ANY DIRECT OR INDIRECT DAMAGES OR EXPENSES
     31            INCLUDING BUT NOT LIMITED TO ANY INCIDENTAL, SPECIAL, INDIRECT, PUNITIVE
     32            OR CONSEQUENTIAL DAMAGES, LOST PROFITS OR LOST DATA, COST OF PROCUREMENT
     33            OF SUBSTITUTE GOODS, TECHNOLOGY, SERVICES, OR ANY CLAIMS BY THIRD PARTIES
     34            (INCLUDING BUT NOT LIMITED TO ANY DEFENSE THEREOF), OR OTHER SIMILAR COSTS.
     35          
     36            Should you have any questions regarding your right to use this Software,
     37            contact Texas Instruments Incorporated at www.TI.com.
     38          **************************************************************************************************/
     39          
     40          /*********************************************************************
     41           * INCLUDES
     42           */
     43          
     44          #include "ZComDef.h"
     45          #include "hal_drivers.h"
     46          #include "OSAL_Tasks.h"
     47          
     48          #if defined ( MT_TASK )
     49            #include "MT_TASK.h"
     50          #endif
     51          
     52          #include "ZDApp.h"
     53          #if defined ( ZIGBEE_FREQ_AGILITY ) || defined ( ZIGBEE_PANID_CONFLICT )
     54            #include "ZDNwkMgr.h"
     55          #endif
     56          #if defined ( ZIGBEE_FRAGMENTATION )
     57            #include "aps_frag.h"
     58          #endif
     59          
     60          #if defined ( INTER_PAN )
     61            #include "stub_aps.h"
     62          #endif
     63          
     64          #if defined ( ZCL_KEY_ESTABLISH )
     65            #include "zcl_key_establish.h"
     66          #endif
     67          
     68          #include "esp.h"
     69          
     70          /*********************************************************************
     71           * GLOBAL VARIABLES
     72           */
     73          
     74          // The order in this table must be identical to the task initialization calls below in osalInitTask.

   \                                 In  segment XDATA_ROM_C, align 1
     75          const pTaskEventHandlerFn tasksArr[] = {
   \                     tasksArr:
   \   000000   ....         DW ??macEventLoop?relay
   \   000002   ....         DW ??nwk_event_loop?relay
   \   000004   ....         DW ??Hal_ProcessEvent?relay
   \   000006   ....         DW ??MT_ProcessEvent?relay
   \   000008   ....         DW ??APS_event_loop?relay
   \   00000A   ....         DW ??APSF_ProcessEvent?relay
   \   00000C   ....         DW ??ZDApp_event_loop?relay
   \   00000E   ....         DW ??ZDNwkMgr_event_loop?relay
   \   000010   ....         DW ??StubAPS_ProcessEvent?relay
   \   000012   ....         DW ??zcl_event_loop?relay
   \   000014   ....         DW ??zclKeyEstablish_event_loop?relay
   \   000016   ....         DW ??esp_event_loop?relay
     76            macEventLoop,
     77            nwk_event_loop,
     78            Hal_ProcessEvent,
     79          #if defined( MT_TASK )
     80            MT_ProcessEvent,
     81          #endif
     82            APS_event_loop,
     83          #if defined ( ZIGBEE_FRAGMENTATION )
     84            APSF_ProcessEvent,
     85          #endif
     86            ZDApp_event_loop,
     87          #if defined ( ZIGBEE_FREQ_AGILITY ) || defined ( ZIGBEE_PANID_CONFLICT )
     88            ZDNwkMgr_event_loop,
     89          #endif
     90          #if defined( INTER_PAN )
     91            StubAPS_ProcessEvent,
     92          #endif
     93            zcl_event_loop,
     94          #if defined ( ZCL_KEY_ESTABLISH )
     95            zclKeyEstablish_event_loop,
     96          #endif
     97            esp_event_loop
     98          };
     99          

   \                                 In  segment XDATA_ROM_C, align 1
    100          const uint8 tasksCnt = sizeof( tasksArr ) / sizeof( tasksArr[0] );
   \                     tasksCnt:
   \   000000   0C           DB 12

   \                                 In  segment XDATA_Z, align 1, keep-with-next
    101          uint16 *tasksEvents;
   \                     tasksEvents:
   \   000000                DS 2
   \   000002                REQUIRE __INIT_XDATA_Z
    102          
    103          /*********************************************************************
    104           * FUNCTIONS
    105           *********************************************************************/
    106          
    107          /*********************************************************************
    108           * @fn      osalInitTasks
    109           *
    110           * @brief   This function invokes the initialization function for each task.
    111           *
    112           * @param   void
    113           *
    114           * @return  none
    115           */

   \                                 In  segment BANKED_CODE, align 1, keep-with-next
    116          void osalInitTasks( void )
   \                     osalInitTasks:
    117          {
   \   000000   C082         PUSH    DPL
   \   000002   C083         PUSH    DPH
   \   000004                ; Saved register size: 2
   \   000004                ; Auto size: 0
    118            uint8 taskID = 0;
    119          
    120            tasksEvents = (uint16 *)osal_mem_alloc( sizeof( uint16 ) * tasksCnt);
   \   000004                ; Setup parameters for call to function osal_mem_alloc
   \   000004   7A18         MOV     R2,#0x18
   \   000006   7B00         MOV     R3,#0x0
   \   000008   12....       LCALL   ??osal_mem_alloc?relay
   \   00000B   90....       MOV     DPTR,#tasksEvents
   \   00000E   EA           MOV     A,R2
   \   00000F   F0           MOVX    @DPTR,A
   \   000010   A3           INC     DPTR
   \   000011   EB           MOV     A,R3
   \   000012   F0           MOVX    @DPTR,A
    121            osal_memset( tasksEvents, 0, (sizeof( uint16 ) * tasksCnt));
   \   000013                ; Setup parameters for call to function osal_memset
   \   000013   7C18         MOV     R4,#0x18
   \   000015   7D00         MOV     R5,#0x0
   \   000017   7900         MOV     R1,#0x0
   \   000019   12....       LCALL   ??osal_memset?relay
    122          
    123            macTaskInit( taskID++ );
   \   00001C                ; Setup parameters for call to function macTaskInit
   \   00001C   7900         MOV     R1,#0x0
   \   00001E   12....       LCALL   ??macTaskInit?relay
    124            nwk_init( taskID++ );
   \   000021                ; Setup parameters for call to function nwk_init
   \   000021   7901         MOV     R1,#0x1
   \   000023   12....       LCALL   ??nwk_init?relay
    125            Hal_Init( taskID++ );
   \   000026                ; Setup parameters for call to function Hal_Init
   \   000026   7902         MOV     R1,#0x2
   \   000028   12....       LCALL   ??Hal_Init?relay
    126          #if defined( MT_TASK )
    127            MT_TaskInit( taskID++ );
   \   00002B                ; Setup parameters for call to function MT_TaskInit
   \   00002B   7903         MOV     R1,#0x3
   \   00002D   12....       LCALL   ??MT_TaskInit?relay
    128          #endif
    129            APS_Init( taskID++ );
   \   000030                ; Setup parameters for call to function APS_Init
   \   000030   7904         MOV     R1,#0x4
   \   000032   12....       LCALL   ??APS_Init?relay
    130          #if defined ( ZIGBEE_FRAGMENTATION )
    131            APSF_Init( taskID++ );
   \   000035                ; Setup parameters for call to function APSF_Init
   \   000035   7905         MOV     R1,#0x5
   \   000037   12....       LCALL   ??APSF_Init?relay
    132          #endif
    133            ZDApp_Init( taskID++ );
   \   00003A                ; Setup parameters for call to function ZDApp_Init
   \   00003A   7906         MOV     R1,#0x6
   \   00003C   12....       LCALL   ??ZDApp_Init?relay
    134          #if defined ( ZIGBEE_FREQ_AGILITY ) || defined ( ZIGBEE_PANID_CONFLICT )
    135            ZDNwkMgr_Init( taskID++ );
   \   00003F                ; Setup parameters for call to function ZDNwkMgr_Init
   \   00003F   7907         MOV     R1,#0x7
   \   000041   12....       LCALL   ??ZDNwkMgr_Init?relay
    136          #endif
    137          #if defined( INTER_PAN )
    138            StubAPS_Init( taskID++ );
   \   000044                ; Setup parameters for call to function StubAPS_Init
   \   000044   7908         MOV     R1,#0x8
   \   000046   12....       LCALL   ??StubAPS_Init?relay
    139          #endif
    140            zcl_Init( taskID++ );
   \   000049                ; Setup parameters for call to function zcl_Init
   \   000049   7909         MOV     R1,#0x9
   \   00004B   12....       LCALL   ??zcl_Init?relay
    141          #if defined ( ZCL_KEY_ESTABLISH )
    142            zclGeneral_KeyEstablish_Init( taskID++ );
   \   00004E                ; Setup parameters for call to function zclGeneral_KeyEstablish_Init
   \   00004E   790A         MOV     R1,#0xa
   \   000050   12....       LCALL   ??zclGeneral_KeyEstablish_Init?relay
    143          #endif
    144            esp_Init( taskID );
   \   000053                ; Setup parameters for call to function esp_Init
   \   000053   790B         MOV     R1,#0xb
   \   000055   12....       LCALL   ??esp_Init?relay
    145          }
   \   000058   D083         POP     DPH
   \   00005A   D082         POP     DPL
   \   00005C   02....       LJMP    ?BRET

   \                                 In  segment BANK_RELAYS, align 1
   \                     ??osalInitTasks?relay:
   \   000000   12....       LCALL   ?BDISPATCH
   \   000003   ......       DC24    osalInitTasks
    146          
    147          /*********************************************************************
    148          *********************************************************************/

   Maximum stack usage in bytes:

     Function                       ISTACK PSTACK XSTACK
     --------                       ------ ------ ------
     osalInitTasks                      2      0      0
       -> osal_mem_alloc                4      0      0
       -> osal_memset                   4      0      0
       -> macTaskInit                   4      0      0
       -> nwk_init                      4      0      0
       -> Hal_Init                      4      0      0
       -> MT_TaskInit                   4      0      0
       -> APS_Init                      4      0      0
       -> APSF_Init                     4      0      0
       -> ZDApp_Init                    4      0      0
       -> ZDNwkMgr_Init                 4      0      0
       -> StubAPS_Init                  4      0      0
       -> zcl_Init                      4      0      0
       -> zclGeneral_KeyEstablish_Init
                                        4      0      0
       -> esp_Init                      4      0      0


   Segment part sizes:

     Function/Label        Bytes
     --------------        -----
     tasksArr                24
     tasksCnt                 1
     tasksEvents              2
     osalInitTasks           95
     ??osalInitTasks?relay    6

 
 95 bytes in segment BANKED_CODE
  6 bytes in segment BANK_RELAYS
 25 bytes in segment XDATA_ROM_C
  2 bytes in segment XDATA_Z
 
 101 bytes of CODE  memory
  25 bytes of CONST memory
   2 bytes of XDATA memory

Errors: none
Warnings: none
