///////////////////////////////////////////////////////////////////////////////
//                                                                            /
// IAR C/C++ Compiler V8.10.3.10338/W32 for 8051        05/Aug/2016  10:44:39 /
// Copyright 2004-2011 IAR Systems AB.                                        /
//                                                                            /
//    Core               =  plain                                             /
//    Code model         =  banked                                            /
//    Data model         =  large                                             /
//    Calling convention =  xdata reentrant                                   /
//    Constant location  =  data_rom                                          /
//    Dptr setup         =  1,16                                              /
//    Source file        =  G:\»ªÖÚÎÞÏß\12.´®¿ÚÍ¸´«Ö®ÎÞÏßQQ\ZStack-2.5.1a\Com /
//                          ponents\stack\zcl\zcl.c                           /
//    Command line       =  -f G:\»ªÖÚÎÞÏß\12.´®¿ÚÍ¸´«Ö®ÎÞÏßQQ\ZStack-2.5.1a\ /
//                          Projects\zstack\SE\SampleApp\CC2530DB\..\..\..\To /
//                          ols\CC2530DB\f8wCoord.cfg (-DCPU32MHZ             /
//                          -DROOT=__near_func -DMAC_CFG_APP_PENDING_QUEUE=TR /
//                          UE -DMAC_CFG_TX_DATA_MAX=5 -DMAC_CFG_TX_MAX=8     /
//                          -DMAC_CFG_RX_MAX=5 -DZDO_COORDINATOR -DRTR_NWK)   /
//                          -f G:\»ªÖÚÎÞÏß\12.´®¿ÚÍ¸´«Ö®ÎÞÏßQQ\ZStack-2.5.1a\ /
//                          Projects\zstack\SE\SampleApp\CC2530DB\..\..\..\To /
//                          ols\CC2530DB\f8wConfig.cfg (-DZIGBEEPRO           /
//                          -DSECURE=0 -DZG_SECURE_DYNAMIC=0 -DREFLECTOR      /
//                          -DDEFAULT_CHANLIST=0x02000000                     /
//                          -DZDAPP_CONFIG_PAN_ID=0x1688                      /
//                          -DNWK_START_DELAY=100 -DEXTENDED_JOINING_RANDOM_M /
//                          ASK=0x007F -DBEACON_REQUEST_DELAY=100             /
//                          -DBEACON_REQ_DELAY_MASK=0x00FF                    /
//                          -DLINK_STATUS_JITTER_MASK=0x007F                  /
//                          -DROUTE_EXPIRY_TIME=30 -DAPSC_ACK_WAIT_DURATION_P /
//                          OLLED=3000 -DNWK_INDIRECT_MSG_TIMEOUT=7           /
//                          -DMAX_RREQ_ENTRIES=8 -DAPSC_MAX_FRAME_RETRIES=3   /
//                          -DNWK_MAX_DATA_RETRIES=2                          /
//                          -DMAX_POLL_FAILURE_RETRIES=2 -DMAX_BCAST=9        /
//                          -DAPS_MAX_GROUPS=16 -DMAX_RTG_ENTRIES=40          /
//                          -DNWK_MAX_BINDING_ENTRIES=4                       /
//                          -DMAX_BINDING_CLUSTER_IDS=4                       /
//                          "-DDEFAULT_KEY={0x01, 0x03, 0x05, 0x07, 0x09,     /
//                          0x0B, 0x0D, 0x0F, 0x00, 0x02, 0x04, 0x06, 0x08,   /
//                          0x0A, 0x0C, 0x0D}" -DMAC_MAX_FRAME_SIZE=116       /
//                          -DZDNWKMGR_MIN_TRANSMISSIONS=20 "-DCONST=const    /
//                          __code" -DGENERIC=__generic                       /
//                          -DRFD_RCVC_ALWAYS_ON=FALSE -DPOLL_RATE=1000       /
//                          -DQUEUED_POLL_RATE=100 -DRESPONSE_POLL_RATE=100   /
//                          -DREJOIN_POLL_RATE=440) -f                        /
//                          G:\»ªÖÚÎÞÏß\12.´®¿ÚÍ¸´«Ö®ÎÞÏßQQ\ZStack-2.5.1a\Pro /
//                          jects\zstack\SE\SampleApp\CC2530DB\..\..\..\Tools /
//                          \CC2530DB\f8wZCL.cfg (-DZCL_READ -DZCL_WRITE      /
//                          -DZCL_BASIC -DZCL_IDENTIFY -DZCL_ON_OFF           /
//                          -DZCL_KEY_ESTABLISH -DZCL_KEY_ESTABLISHMENT_KEY_G /
//                          ENERATE_TIMEOUT=4 -DZCL_KEY_ESTABLISHMENT_MAC_GEN /
//                          ERATE_TIMEOUT=10 -DZCL_KEY_ESTABLISHMENT_EKEY_GEN /
//                          ERATE_TIMEOUT=10 -DZCL_LOAD_CONTROL               /
//                          -DZCL_SIMPLE_METERING -DZCL_PRICING               /
//                          -DZCL_MESSAGE -DZCL_TUNNELING -DZCL_TOU)          /
//                          -DZCL_DEVICE_MGMT G:\»ªÖÚÎÞÏß\12.´®¿ÚÍ¸´«Ö®ÎÞÏßQQ /
//                          \ZStack-2.5.1a\Components\stack\zcl\zcl.c -D      /
//                          TC_LINKKEY_JOIN -D ZTOOL_P1 -D MT_TASK -D         /
//                          MT_APP_FUNC -D MT_SYS_FUNC -D LCD_SUPPORTED -D    /
//                          INT_HEAP_LEN=2450 -D NV_INIT -D xNV_RESTORE -D    /
//                          ZCL_REPORT -D INTER_PAN -D                        /
//                          ZDSECMGR_TC_DEVICE_MAX=16 -D TEST_CERT_DATA -lC   /
//                          "G:\»ªÖÚÎÞÏß\12.´®¿ÚÍ¸´«Ö®ÎÞÏßQQ\ZStack-2.5.1a\Pr /
//                          ojects\zstack\SE\SampleApp\CC2530DB\ESP -         /
//                          Coordinator\List\" -lA "G:\»ªÖÚÎÞÏß\12.´®¿ÚÍ¸´«Ö® /
//                          ÎÞÏßQQ\ZStack-2.5.1a\Projects\zstack\SE\SampleApp /
//                          \CC2530DB\ESP - Coordinator\List\"                /
//                          --diag_suppress Pe001,Pa010 -o                    /
//                          "G:\»ªÖÚÎÞÏß\12.´®¿ÚÍ¸´«Ö®ÎÞÏßQQ\ZStack-2.5.1a\Pr /
//                          ojects\zstack\SE\SampleApp\CC2530DB\ESP -         /
//                          Coordinator\Obj\" -e --no_code_motion --debug     /
//                          --core=plain --dptr=16,1 --data_model=large       /
//                          --code_model=banked --calling_convention=xdata_re /
//                          entrant --place_constants=data_rom                /
//                          --nr_virtual_regs 16 -I                           /
//                          G:\»ªÖÚÎÞÏß\12.´®¿ÚÍ¸´«Ö®ÎÞÏßQQ\ZStack-2.5.1a\Pro /
//                          jects\zstack\SE\SampleApp\CC2530DB\ -I            /
//                          G:\»ªÖÚÎÞÏß\12.´®¿ÚÍ¸´«Ö®ÎÞÏßQQ\ZStack-2.5.1a\Pro /
//                          jects\zstack\SE\SampleApp\CC2530DB\..\Source\ -I  /
//                          G:\»ªÖÚÎÞÏß\12.´®¿ÚÍ¸´«Ö®ÎÞÏßQQ\ZStack-2.5.1a\Pro /
//                          jects\zstack\SE\SampleApp\CC2530DB\..\..\Source\  /
//                          -I G:\»ªÖÚÎÞÏß\12.´®¿ÚÍ¸´«Ö®ÎÞÏßQQ\ZStack-2.5.1a\ /
//                          Projects\zstack\SE\SampleApp\CC2530DB\..\..\..\ZM /
//                          ain\TI2530DB\ -I G:\»ªÖÚÎÞÏß\12.´®¿ÚÍ¸´«Ö®ÎÞÏßQQ\ /
//                          ZStack-2.5.1a\Projects\zstack\SE\SampleApp\CC2530 /
//                          DB\..\..\..\..\..\Components\hal\include\ -I      /
//                          G:\»ªÖÚÎÞÏß\12.´®¿ÚÍ¸´«Ö®ÎÞÏßQQ\ZStack-2.5.1a\Pro /
//                          jects\zstack\SE\SampleApp\CC2530DB\..\..\..\..\.. /
//                          \Components\hal\target\CC2530EB\ -I               /
//                          G:\»ªÖÚÎÞÏß\12.´®¿ÚÍ¸´«Ö®ÎÞÏßQQ\ZStack-2.5.1a\Pro /
//                          jects\zstack\SE\SampleApp\CC2530DB\..\..\..\..\.. /
//                          \Components\mac\include\ -I                       /
//                          G:\»ªÖÚÎÞÏß\12.´®¿ÚÍ¸´«Ö®ÎÞÏßQQ\ZStack-2.5.1a\Pro /
//                          jects\zstack\SE\SampleApp\CC2530DB\..\..\..\..\.. /
//                          \Components\mac\high_level\ -I                    /
//                          G:\»ªÖÚÎÞÏß\12.´®¿ÚÍ¸´«Ö®ÎÞÏßQQ\ZStack-2.5.1a\Pro /
//                          jects\zstack\SE\SampleApp\CC2530DB\..\..\..\..\.. /
//                          \Components\mac\low_level\srf04\ -I               /
//                          G:\»ªÖÚÎÞÏß\12.´®¿ÚÍ¸´«Ö®ÎÞÏßQQ\ZStack-2.5.1a\Pro /
//                          jects\zstack\SE\SampleApp\CC2530DB\..\..\..\..\.. /
//                          \Components\mac\low_level\srf04\single_chip\ -I   /
//                          G:\»ªÖÚÎÞÏß\12.´®¿ÚÍ¸´«Ö®ÎÞÏßQQ\ZStack-2.5.1a\Pro /
//                          jects\zstack\SE\SampleApp\CC2530DB\..\..\..\..\.. /
//                          \Components\mt\ -I G:\»ªÖÚÎÞÏß\12.´®¿ÚÍ¸´«Ö®ÎÞÏßQ /
//                          Q\ZStack-2.5.1a\Projects\zstack\SE\SampleApp\CC25 /
//                          30DB\..\..\..\..\..\Components\osal\include\ -I   /
//                          G:\»ªÖÚÎÞÏß\12.´®¿ÚÍ¸´«Ö®ÎÞÏßQQ\ZStack-2.5.1a\Pro /
//                          jects\zstack\SE\SampleApp\CC2530DB\..\..\..\..\.. /
//                          \Components\services\saddr\ -I                    /
//                          G:\»ªÖÚÎÞÏß\12.´®¿ÚÍ¸´«Ö®ÎÞÏßQQ\ZStack-2.5.1a\Pro /
//                          jects\zstack\SE\SampleApp\CC2530DB\..\..\..\..\.. /
//                          \Components\services\sdata\ -I                    /
//                          G:\»ªÖÚÎÞÏß\12.´®¿ÚÍ¸´«Ö®ÎÞÏßQQ\ZStack-2.5.1a\Pro /
//                          jects\zstack\SE\SampleApp\CC2530DB\..\..\..\..\.. /
//                          \Components\stack\af\ -I                          /
//                          G:\»ªÖÚÎÞÏß\12.´®¿ÚÍ¸´«Ö®ÎÞÏßQQ\ZStack-2.5.1a\Pro /
//                          jects\zstack\SE\SampleApp\CC2530DB\..\..\..\..\.. /
//                          \Components\stack\nwk\ -I                         /
//                          G:\»ªÖÚÎÞÏß\12.´®¿ÚÍ¸´«Ö®ÎÞÏßQQ\ZStack-2.5.1a\Pro /
//                          jects\zstack\SE\SampleApp\CC2530DB\..\..\..\..\.. /
//                          \Components\stack\sapi\ -I                        /
//                          G:\»ªÖÚÎÞÏß\12.´®¿ÚÍ¸´«Ö®ÎÞÏßQQ\ZStack-2.5.1a\Pro /
//                          jects\zstack\SE\SampleApp\CC2530DB\..\..\..\..\.. /
//                          \Components\stack\sec\ -I                         /
//                          G:\»ªÖÚÎÞÏß\12.´®¿ÚÍ¸´«Ö®ÎÞÏßQQ\ZStack-2.5.1a\Pro /
//                          jects\zstack\SE\SampleApp\CC2530DB\..\..\..\..\.. /
//                          \Components\stack\sys\ -I                         /
//                          G:\»ªÖÚÎÞÏß\12.´®¿ÚÍ¸´«Ö®ÎÞÏßQQ\ZStack-2.5.1a\Pro /
//                          jects\zstack\SE\SampleApp\CC2530DB\..\..\..\..\.. /
//                          \Components\stack\zcl\ -I                         /
//                          G:\»ªÖÚÎÞÏß\12.´®¿ÚÍ¸´«Ö®ÎÞÏßQQ\ZStack-2.5.1a\Pro /
//                          jects\zstack\SE\SampleApp\CC2530DB\..\..\..\..\.. /
//                          \Components\stack\zdo\ -I                         /
//                          G:\»ªÖÚÎÞÏß\12.´®¿ÚÍ¸´«Ö®ÎÞÏßQQ\ZStack-2.5.1a\Pro /
//                          jects\zstack\SE\SampleApp\CC2530DB\..\..\..\..\.. /
//                          \Components\zmac\ -I G:\»ªÖÚÎÞÏß\12.´®¿ÚÍ¸´«Ö®ÎÞÏ /
//                          ßQQ\ZStack-2.5.1a\Projects\zstack\SE\SampleApp\CC /
//                          2530DB\..\..\..\..\..\Components\zmac\f8w\ -Ohz   /
//                          --require_prototypes                              /
//    List file          =  G:\»ªÖÚÎÞÏß\12.´®¿ÚÍ¸´«Ö®ÎÞÏßQQ\ZStack-2.5.1a\Pro /
//                          jects\zstack\SE\SampleApp\CC2530DB\ESP -          /
//                          Coordinator\List\zcl.s51                          /
//                                                                            /
//                                                                            /
///////////////////////////////////////////////////////////////////////////////

        NAME zcl

        RTMODEL "__SystemLibrary", "CLib"
        RTMODEL "__calling_convention", "xdata_reentrant"
        RTMODEL "__code_model", "banked"
        RTMODEL "__core", "plain"
        RTMODEL "__data_model", "large"
        RTMODEL "__dptr_size", "16"
        RTMODEL "__extended_stack", "disabled"
        RTMODEL "__location_for_constants", "data"
        RTMODEL "__number_of_dptrs", "1"
        RTMODEL "__rt_version", "1"

        RSEG DOVERLAY:DATA:NOROOT(0)
        RSEG IOVERLAY:IDATA:NOROOT(0)
        RSEG ISTACK:IDATA:NOROOT(0)
        RSEG PSTACK:XDATA:NOROOT(0)
        RSEG XSTACK:XDATA:NOROOT(0)

        EXTERN ?ALLOC_XSTACK8
        EXTERN ?BANKED_ENTER_XDATA
        EXTERN ?BANKED_LEAVE_XDATA
        EXTERN ?BDISPATCH
        EXTERN ?BRET
        EXTERN ?CALL_IND
        EXTERN ?DEALLOC_XSTACK8
        EXTERN ?L_MOV_X
        EXTERN ?MOVE_LONG8_XDATA_CODE
        EXTERN ?MOVE_LONG8_XDATA_XDATA
        EXTERN ?PUSH_XSTACK8_X_FOUR
        EXTERN ?PUSH_XSTACK8_X_TWO
        EXTERN ?PUSH_XSTACK_I_ONE
        EXTERN ?PUSH_XSTACK_I_THREE
        EXTERN ?PUSH_XSTACK_I_TWO
        EXTERN ?S_SHL
        EXTERN ?UC_SWITCH_SPARSE
        EXTERN ?UL_SHR
        EXTERN ?US_DIV_MOD
        EXTERN ?US_SHR
        EXTERN ?V0
        EXTERN ?XSP
        EXTERN ?XSTACK_DISP0_8
        EXTERN ?XSTORE_R2345
        EXTERN __INIT_XDATA_I
        EXTERN __INIT_XDATA_Z

        PUBLIC ??zclAnalogDataType?relay
        FUNCTION ??zclAnalogDataType?relay,0203H
        FUNCTION ??zclAuthorizeWrite?relay,0203H
        FUNCTION ??zclBuildHdr?relay,0203H
        PUBLIC ??zclFindAttrRec?relay
        FUNCTION ??zclFindAttrRec?relay,0203H
        FUNCTION ??zclFindAttrRecsList?relay,0203H
        FUNCTION ??zclFindClusterOption?relay,0203H
        PUBLIC ??zclGetAttrDataLength?relay
        FUNCTION ??zclGetAttrDataLength?relay,0203H
        FUNCTION ??zclGetAttrDataLengthUsingCB?relay,0203H
        FUNCTION ??zclGetAuthorizeCB?relay,0203H
        FUNCTION ??zclGetClusterOption?relay,0203H
        PUBLIC ??zclGetDataTypeLength?relay
        FUNCTION ??zclGetDataTypeLength?relay,0203H
        FUNCTION ??zclGetReadWriteCB?relay,0203H
        PUBLIC ??zclParseHdr?relay
        FUNCTION ??zclParseHdr?relay,0203H
        PUBLIC ??zclParseInConfigReportCmd?relay
        FUNCTION ??zclParseInConfigReportCmd?relay,0203H
        FUNCTION ??zclParseInConfigReportRspCmd?relay,0203H
        FUNCTION ??zclParseInDefaultRspCmd?relay,0203H
        PUBLIC ??zclParseInReadCmd?relay
        FUNCTION ??zclParseInReadCmd?relay,0203H
        PUBLIC ??zclParseInReadReportCfgCmd?relay
        FUNCTION ??zclParseInReadReportCfgCmd?relay,0203H
        FUNCTION ??zclParseInReadReportCfgRspCmd?relay,0203H
        FUNCTION ??zclParseInReadRspCmd?relay,0203H
        PUBLIC ??zclParseInReportCmd?relay
        FUNCTION ??zclParseInReportCmd?relay,0203H
        PUBLIC ??zclParseInWriteCmd?relay
        FUNCTION ??zclParseInWriteCmd?relay,0203H
        FUNCTION ??zclParseInWriteRspCmd?relay,0203H
        FUNCTION ??zclProcessInReadCmd?relay,0203H
        FUNCTION ??zclProcessInWriteCmd?relay,0203H
        FUNCTION ??zclProcessInWriteUndividedCmd?relay,0203H
        PUBLIC ??zclProcessMessageMSG?relay
        FUNCTION ??zclProcessMessageMSG?relay,0203H
        PUBLIC ??zclReadAttrData?relay
        FUNCTION ??zclReadAttrData?relay,0203H
        FUNCTION ??zclReadAttrDataUsingCB?relay,0203H
        FUNCTION ??zclRevertWriteUndividedCmd?relay,0203H
        FUNCTION ??zclSendMsg?relay,0203H
        PUBLIC ??zclSerializeData?relay
        FUNCTION ??zclSerializeData?relay,0203H
        FUNCTION ??zclSetSecurityOption?relay,0203H
        FUNCTION ??zclWriteAttrData?relay,0203H
        FUNCTION ??zclWriteAttrDataUsingCB?relay,0203H
        FUNCTION ??zcl_BuildAnalogData?relay,0203H
        FUNCTION ??zcl_DeviceOperational?relay,0203H
        PUBLIC ??zcl_Init?relay
        FUNCTION ??zcl_Init?relay,0203H
        PUBLIC ??zcl_SendCommand?relay
        FUNCTION ??zcl_SendCommand?relay,0203H
        PUBLIC ??zcl_SendConfigReportCmd?relay
        FUNCTION ??zcl_SendConfigReportCmd?relay,0203H
        PUBLIC ??zcl_SendConfigReportRspCmd?relay
        FUNCTION ??zcl_SendConfigReportRspCmd?relay,0203H
        PUBLIC ??zcl_SendDefaultRspCmd?relay
        FUNCTION ??zcl_SendDefaultRspCmd?relay,0203H
        PUBLIC ??zcl_SendRead?relay
        FUNCTION ??zcl_SendRead?relay,0203H
        PUBLIC ??zcl_SendReadReportCfgCmd?relay
        FUNCTION ??zcl_SendReadReportCfgCmd?relay,0203H
        PUBLIC ??zcl_SendReadReportCfgRspCmd?relay
        FUNCTION ??zcl_SendReadReportCfgRspCmd?relay,0203H
        PUBLIC ??zcl_SendReadRsp?relay
        FUNCTION ??zcl_SendReadRsp?relay,0203H
        PUBLIC ??zcl_SendReportCmd?relay
        FUNCTION ??zcl_SendReportCmd?relay,0203H
        PUBLIC ??zcl_SendWriteRequest?relay
        FUNCTION ??zcl_SendWriteRequest?relay,0203H
        PUBLIC ??zcl_SendWriteRsp?relay
        FUNCTION ??zcl_SendWriteRsp?relay,0203H
        PUBLIC ??zcl_event_loop?relay
        FUNCTION ??zcl_event_loop?relay,0203H
        PUBLIC ??zcl_getRawAFMsg?relay
        FUNCTION ??zcl_getRawAFMsg?relay,0203H
        PUBLIC ??zcl_registerAttrList?relay
        FUNCTION ??zcl_registerAttrList?relay,0203H
        PUBLIC ??zcl_registerClusterOptionList?relay
        FUNCTION ??zcl_registerClusterOptionList?relay,0203H
        PUBLIC ??zcl_registerForMsg?relay
        FUNCTION ??zcl_registerForMsg?relay,0203H
        PUBLIC ??zcl_registerPlugin?relay
        FUNCTION ??zcl_registerPlugin?relay,0203H
        PUBLIC ??zcl_registerReadWriteCB?relay
        FUNCTION ??zcl_registerReadWriteCB?relay,0203H
        PUBLIC ??zcl_registerValidateAttrData?relay
        FUNCTION ??zcl_registerValidateAttrData?relay,0203H
        PUBLIC zclAnalogDataType
        FUNCTION zclAnalogDataType,080203H
        ARGFRAME XSTACK, 27, STACK
        ARGFRAME IOVERLAY, 0, STATIC
        ARGFRAME DOVERLAY, 0, STATIC
        LOCFRAME ISTACK, 2, STACK
        FUNCTION zclAuthorizeWrite,021203H
        ARGFRAME XSTACK, 16, STACK
        ARGFRAME IOVERLAY, 0, STATIC
        ARGFRAME DOVERLAY, 0, STATIC
        LOCFRAME XSTACK, 14, STACK
        FUNCTION zclBuildHdr,0203H
        ARGFRAME XSTACK, 33, STACK
        ARGFRAME IOVERLAY, 0, STATIC
        ARGFRAME DOVERLAY, 0, STATIC
        LOCFRAME ISTACK, 1, STACK
        LOCFRAME XSTACK, 9, STACK
        PUBLIC zclFindAttrRec
        FUNCTION zclFindAttrRec,021203H
        ARGFRAME XSTACK, 38, STACK
        ARGFRAME IOVERLAY, 0, STATIC
        ARGFRAME DOVERLAY, 0, STATIC
        LOCFRAME XSTACK, 18, STACK
        FUNCTION zclFindAttrRecsList,0203H
        ARGFRAME XSTACK, 18, STACK
        ARGFRAME IOVERLAY, 0, STATIC
        ARGFRAME DOVERLAY, 0, STATIC
        LOCFRAME ISTACK, 2, STACK
        FUNCTION zclFindClusterOption,0203H
        ARGFRAME XSTACK, 10, STACK
        ARGFRAME IOVERLAY, 0, STATIC
        ARGFRAME DOVERLAY, 0, STATIC
        LOCFRAME XSTACK, 9, STACK
        PUBLIC zclGetAttrDataLength
        FUNCTION zclGetAttrDataLength,021203H
        ARGFRAME XSTACK, 36, STACK
        ARGFRAME IOVERLAY, 0, STATIC
        ARGFRAME DOVERLAY, 0, STATIC
        LOCFRAME XSTACK, 9, STACK
        FUNCTION zclGetAttrDataLengthUsingCB,021203H
        ARGFRAME XSTACK, 36, STACK
        ARGFRAME IOVERLAY, 0, STATIC
        ARGFRAME DOVERLAY, 0, STATIC
        LOCFRAME XSTACK, 22, STACK
        FUNCTION zclGetAuthorizeCB,021203H
        ARGFRAME XSTACK, 30, STACK
        ARGFRAME IOVERLAY, 0, STATIC
        ARGFRAME DOVERLAY, 0, STATIC
        LOCFRAME XSTACK, 10, STACK
        FUNCTION zclGetClusterOption,021203H
        ARGFRAME XSTACK, 33, STACK
        ARGFRAME IOVERLAY, 0, STATIC
        ARGFRAME DOVERLAY, 0, STATIC
        LOCFRAME XSTACK, 10, STACK
        PUBLIC zclGetDataTypeLength
        FUNCTION zclGetDataTypeLength,080203H
        ARGFRAME XSTACK, 27, STACK
        ARGFRAME IOVERLAY, 0, STATIC
        ARGFRAME DOVERLAY, 0, STATIC
        LOCFRAME ISTACK, 2, STACK
        FUNCTION zclGetReadWriteCB,021203H
        ARGFRAME XSTACK, 20, STACK
        ARGFRAME IOVERLAY, 0, STATIC
        ARGFRAME DOVERLAY, 0, STATIC
        LOCFRAME XSTACK, 10, STACK
        PUBLIC zclParseHdr
        FUNCTION zclParseHdr,021203H
        ARGFRAME XSTACK, 33, STACK
        ARGFRAME IOVERLAY, 0, STATIC
        ARGFRAME DOVERLAY, 0, STATIC
        LOCFRAME ISTACK, 1, STACK
        LOCFRAME XSTACK, 12, STACK
        PUBLIC zclParseInConfigReportCmd
        FUNCTION zclParseInConfigReportCmd,021603H
        ARGFRAME XSTACK, 0, STACK
        LOCFRAME ISTACK, 1, STACK
        LOCFRAME XSTACK, 20, STACK
        FUNCTION zclParseInConfigReportRspCmd,021603H
        ARGFRAME XSTACK, 0, STACK
        LOCFRAME ISTACK, 1, STACK
        LOCFRAME XSTACK, 11, STACK
        FUNCTION zclParseInDefaultRspCmd,021603H
        ARGFRAME XSTACK, 0, STACK
        LOCFRAME ISTACK, 1, STACK
        LOCFRAME XSTACK, 10, STACK
        PUBLIC zclParseInReadCmd
        FUNCTION zclParseInReadCmd,021603H
        ARGFRAME XSTACK, 0, STACK
        LOCFRAME ISTACK, 1, STACK
        LOCFRAME XSTACK, 12, STACK
        PUBLIC zclParseInReadReportCfgCmd
        FUNCTION zclParseInReadReportCfgCmd,021603H
        ARGFRAME XSTACK, 0, STACK
        LOCFRAME ISTACK, 1, STACK
        LOCFRAME XSTACK, 12, STACK
        FUNCTION zclParseInReadReportCfgRspCmd,021603H
        ARGFRAME XSTACK, 0, STACK
        LOCFRAME ISTACK, 1, STACK
        LOCFRAME XSTACK, 20, STACK
        FUNCTION zclParseInReadRspCmd,021603H
        ARGFRAME XSTACK, 0, STACK
        LOCFRAME ISTACK, 1, STACK
        LOCFRAME XSTACK, 25, STACK
        PUBLIC zclParseInReportCmd
        FUNCTION zclParseInReportCmd,021603H
        ARGFRAME XSTACK, 0, STACK
        LOCFRAME ISTACK, 1, STACK
        LOCFRAME XSTACK, 25, STACK
        PUBLIC zclParseInWriteCmd
        FUNCTION zclParseInWriteCmd,021603H
        ARGFRAME XSTACK, 0, STACK
        LOCFRAME ISTACK, 1, STACK
        LOCFRAME XSTACK, 25, STACK
        FUNCTION zclParseInWriteRspCmd,021603H
        ARGFRAME XSTACK, 0, STACK
        LOCFRAME ISTACK, 1, STACK
        LOCFRAME XSTACK, 14, STACK
        FUNCTION zclProcessInReadCmd,021603H
        ARGFRAME XSTACK, 0, STACK
        LOCFRAME ISTACK, 1, STACK
        LOCFRAME XSTACK, 35, STACK
        FUNCTION zclProcessInWriteCmd,021603H
        ARGFRAME XSTACK, 0, STACK
        LOCFRAME ISTACK, 1, STACK
        LOCFRAME XSTACK, 35, STACK
        FUNCTION zclProcessInWriteUndividedCmd,021603H
        ARGFRAME XSTACK, 0, STACK
        LOCFRAME ISTACK, 1, STACK
        LOCFRAME XSTACK, 41, STACK
        PUBLIC zclProcessMessageMSG
        FUNCTION zclProcessMessageMSG,021203H
        ARGFRAME XSTACK, 12, STACK
        ARGFRAME IOVERLAY, 0, STATIC
        ARGFRAME DOVERLAY, 0, STATIC
        LOCFRAME ISTACK, 1, STACK
        LOCFRAME XSTACK, 40, STACK
        PUBLIC zclReadAttrData
        FUNCTION zclReadAttrData,021203H
        ARGFRAME XSTACK, 38, STACK
        ARGFRAME IOVERLAY, 0, STATIC
        ARGFRAME DOVERLAY, 0, STATIC
        LOCFRAME XSTACK, 22, STACK
        FUNCTION zclReadAttrDataUsingCB,021203H
        ARGFRAME XSTACK, 40, STACK
        ARGFRAME IOVERLAY, 0, STATIC
        ARGFRAME DOVERLAY, 0, STATIC
        LOCFRAME XSTACK, 24, STACK
        FUNCTION zclRevertWriteUndividedCmd,021203H
        ARGFRAME XSTACK, 38, STACK
        ARGFRAME IOVERLAY, 0, STATIC
        ARGFRAME DOVERLAY, 0, STATIC
        LOCFRAME XSTACK, 31, STACK
        FUNCTION zclSendMsg,021603H
        ARGFRAME XSTACK, 0, STACK
        LOCFRAME ISTACK, 1, STACK
        LOCFRAME XSTACK, 10, STACK
        PUBLIC zclSerializeData
        FUNCTION zclSerializeData,0a1203H
        ARGFRAME XSTACK, 28, STACK
        ARGFRAME IOVERLAY, 0, STATIC
        ARGFRAME DOVERLAY, 0, STATIC
        LOCFRAME ISTACK, 1, STACK
        LOCFRAME XSTACK, 20, STACK
        FUNCTION zclSetSecurityOption,021203H
        ARGFRAME XSTACK, 33, STACK
        ARGFRAME IOVERLAY, 0, STATIC
        ARGFRAME DOVERLAY, 0, STATIC
        LOCFRAME XSTACK, 10, STACK
        FUNCTION zclWriteAttrData,021203H
        ARGFRAME XSTACK, 38, STACK
        ARGFRAME IOVERLAY, 0, STATIC
        ARGFRAME DOVERLAY, 0, STATIC
        LOCFRAME XSTACK, 18, STACK
        FUNCTION zclWriteAttrDataUsingCB,021203H
        ARGFRAME XSTACK, 38, STACK
        ARGFRAME IOVERLAY, 0, STATIC
        ARGFRAME DOVERLAY, 0, STATIC
        LOCFRAME XSTACK, 20, STACK
        FUNCTION zcl_BuildAnalogData,021203H
        ARGFRAME XSTACK, 20, STACK
        ARGFRAME IOVERLAY, 0, STATIC
        ARGFRAME DOVERLAY, 0, STATIC
        LOCFRAME ISTACK, 1, STACK
        LOCFRAME XSTACK, 9, STACK
        FUNCTION zcl_DeviceOperational,021203H
        ARGFRAME XSTACK, 35, STACK
        ARGFRAME IOVERLAY, 0, STATIC
        ARGFRAME DOVERLAY, 0, STATIC
        LOCFRAME XSTACK, 22, STACK
        PUBLIC zcl_Init
        FUNCTION zcl_Init,0203H
        ARGFRAME XSTACK, 0, STACK
        LOCFRAME ISTACK, 2, STACK
        PUBLIC zcl_RegisteredMsgTaskID
        PUBLIC zcl_SendCommand
        FUNCTION zcl_SendCommand,021203H
        ARGFRAME XSTACK, 39, STACK
        ARGFRAME IOVERLAY, 0, STATIC
        ARGFRAME DOVERLAY, 0, STATIC
        LOCFRAME ISTACK, 1, STACK
        LOCFRAME XSTACK, 39, STACK
        PUBLIC zcl_SendConfigReportCmd
        FUNCTION zcl_SendConfigReportCmd,021203H
        ARGFRAME XSTACK, 5, STACK
        LOCFRAME ISTACK, 1, STACK
        LOCFRAME XSTACK, 38, STACK
        PUBLIC zcl_SendConfigReportRspCmd
        FUNCTION zcl_SendConfigReportRspCmd,021203H
        ARGFRAME XSTACK, 5, STACK
        LOCFRAME ISTACK, 1, STACK
        LOCFRAME XSTACK, 33, STACK
        PUBLIC zcl_SendDefaultRspCmd
        FUNCTION zcl_SendDefaultRspCmd,021203H
        ARGFRAME XSTACK, 40, STACK
        ARGFRAME IOVERLAY, 0, STATIC
        ARGFRAME DOVERLAY, 0, STATIC
        LOCFRAME ISTACK, 1, STACK
        LOCFRAME XSTACK, 27, STACK
        PUBLIC zcl_SendRead
        FUNCTION zcl_SendRead,021203H
        ARGFRAME XSTACK, 5, STACK
        LOCFRAME ISTACK, 1, STACK
        LOCFRAME XSTACK, 33, STACK
        PUBLIC zcl_SendReadReportCfgCmd
        FUNCTION zcl_SendReadReportCfgCmd,021203H
        ARGFRAME XSTACK, 5, STACK
        LOCFRAME ISTACK, 1, STACK
        LOCFRAME XSTACK, 33, STACK
        PUBLIC zcl_SendReadReportCfgRspCmd
        FUNCTION zcl_SendReadReportCfgRspCmd,021203H
        ARGFRAME XSTACK, 5, STACK
        LOCFRAME ISTACK, 1, STACK
        LOCFRAME XSTACK, 38, STACK
        PUBLIC zcl_SendReadRsp
        FUNCTION zcl_SendReadRsp,021203H
        ARGFRAME XSTACK, 35, STACK
        ARGFRAME IOVERLAY, 0, STATIC
        ARGFRAME DOVERLAY, 0, STATIC
        LOCFRAME ISTACK, 1, STACK
        LOCFRAME XSTACK, 39, STACK
        PUBLIC zcl_SendReportCmd
        FUNCTION zcl_SendReportCmd,021203H
        ARGFRAME XSTACK, 5, STACK
        LOCFRAME ISTACK, 1, STACK
        LOCFRAME XSTACK, 35, STACK
        PUBLIC zcl_SendWriteRequest
        FUNCTION zcl_SendWriteRequest,021203H
        ARGFRAME XSTACK, 6, STACK
        LOCFRAME ISTACK, 1, STACK
        LOCFRAME XSTACK, 35, STACK
        PUBLIC zcl_SendWriteRsp
        FUNCTION zcl_SendWriteRsp,021203H
        ARGFRAME XSTACK, 41, STACK
        ARGFRAME IOVERLAY, 0, STATIC
        ARGFRAME DOVERLAY, 0, STATIC
        LOCFRAME ISTACK, 1, STACK
        LOCFRAME XSTACK, 33, STACK
        PUBLIC zcl_SeqNum
        PUBLIC zcl_TaskID
        PUBLIC zcl_ValidateAttrDataCB
        PUBLIC zcl_event_loop
        FUNCTION zcl_event_loop,021203H
        ARGFRAME XSTACK, 0, STACK
        LOCFRAME XSTACK, 12, STACK
        PUBLIC zcl_getRawAFMsg
        FUNCTION zcl_getRawAFMsg,0203H
        ARGFRAME XSTACK, 0, STACK
        LOCFRAME ISTACK, 2, STACK
        PUBLIC zcl_registerAttrList
        FUNCTION zcl_registerAttrList,021203H
        ARGFRAME XSTACK, 0, STACK
        LOCFRAME ISTACK, 1, STACK
        LOCFRAME XSTACK, 12, STACK
        PUBLIC zcl_registerClusterOptionList
        FUNCTION zcl_registerClusterOptionList,021203H
        ARGFRAME XSTACK, 0, STACK
        LOCFRAME ISTACK, 1, STACK
        LOCFRAME XSTACK, 12, STACK
        PUBLIC zcl_registerForMsg
        FUNCTION zcl_registerForMsg,0203H
        ARGFRAME XSTACK, 0, STACK
        LOCFRAME ISTACK, 2, STACK
        PUBLIC zcl_registerPlugin
        FUNCTION zcl_registerPlugin,021203H
        ARGFRAME XSTACK, 2, STACK
        LOCFRAME XSTACK, 14, STACK
        PUBLIC zcl_registerReadWriteCB
        FUNCTION zcl_registerReadWriteCB,021203H
        ARGFRAME XSTACK, 0, STACK
        LOCFRAME XSTACK, 14, STACK
        PUBLIC zcl_registerValidateAttrData
        FUNCTION zcl_registerValidateAttrData,0203H
        ARGFRAME XSTACK, 0, STACK
        LOCFRAME ISTACK, 2, STACK
        
        CFI Names cfiNames0
        CFI StackFrame CFA_SP SP IDATA
        CFI StackFrame CFA_PSP16 PSP16 XDATA
        CFI StackFrame CFA_XSP16 XSP16 XDATA
        CFI StaticOverlayFrame CFA_IOVERLAY IOVERLAY
        CFI StaticOverlayFrame CFA_DOVERLAY DOVERLAY
        CFI Resource `PSW.CY`:1, `B.BR0`:1, `B.BR1`:1, `B.BR2`:1, `B.BR3`:1
        CFI Resource `B.BR4`:1, `B.BR5`:1, `B.BR6`:1, `B.BR7`:1, `VB.BR8`:1
        CFI Resource `VB.BR9`:1, `VB.BR10`:1, `VB.BR11`:1, `VB.BR12`:1
        CFI Resource `VB.BR13`:1, `VB.BR14`:1, `VB.BR15`:1, VB:8, B:8, A:8
        CFI Resource PSW:8, DPL0:8, DPH0:8, R0:8, R1:8, R2:8, R3:8, R4:8, R5:8
        CFI Resource R6:8, R7:8, V0:8, V1:8, V2:8, V3:8, V4:8, V5:8, V6:8, V7:8
        CFI Resource V8:8, V9:8, V10:8, V11:8, V12:8, V13:8, V14:8, V15:8, SP:8
        CFI Resource PSPH:8, PSPL:8, PSP16:16, XSPH:8, XSPL:8, XSP16:16
        CFI VirtualResource ?RET:24
        CFI Resource ?BRET_EXT:8
        CFI VirtualResource ?RET_HIGH:8, ?RET_LOW:8
        CFI ResourceParts PSP16 PSPH, PSPL
        CFI ResourceParts XSP16 XSPH, XSPL
        CFI ResourceParts ?RET ?BRET_EXT, ?RET_HIGH, ?RET_LOW
        CFI EndNames cfiNames0
        
        CFI Common cfiCommon0 Using cfiNames0
        CFI CodeAlign 1
        CFI DataAlign -1
        CFI ReturnAddress ?RET CODE
        CFI CFA_DOVERLAY Used
        CFI CFA_IOVERLAY Used
        CFI CFA_SP SP+-3
        CFI CFA_PSP16 PSP16+0
        CFI CFA_XSP16 XSP16+0
        CFI `PSW.CY` SameValue
        CFI `B.BR0` SameValue
        CFI `B.BR1` SameValue
        CFI `B.BR2` SameValue
        CFI `B.BR3` SameValue
        CFI `B.BR4` SameValue
        CFI `B.BR5` SameValue
        CFI `B.BR6` SameValue
        CFI `B.BR7` SameValue
        CFI `VB.BR8` SameValue
        CFI `VB.BR9` SameValue
        CFI `VB.BR10` SameValue
        CFI `VB.BR11` SameValue
        CFI `VB.BR12` SameValue
        CFI `VB.BR13` SameValue
        CFI `VB.BR14` SameValue
        CFI `VB.BR15` SameValue
        CFI VB SameValue
        CFI B Undefined
        CFI A Undefined
        CFI PSW SameValue
        CFI DPL0 SameValue
        CFI DPH0 SameValue
        CFI R0 Undefined
        CFI R1 Undefined
        CFI R2 Undefined
        CFI R3 Undefined
        CFI R4 Undefined
        CFI R5 Undefined
        CFI R6 SameValue
        CFI R7 SameValue
        CFI V0 SameValue
        CFI V1 SameValue
        CFI V2 SameValue
        CFI V3 SameValue
        CFI V4 SameValue
        CFI V5 SameValue
        CFI V6 SameValue
        CFI V7 SameValue
        CFI V8 SameValue
        CFI V9 SameValue
        CFI V10 SameValue
        CFI V11 SameValue
        CFI V12 SameValue
        CFI V13 SameValue
        CFI V14 SameValue
        CFI V15 SameValue
        CFI PSPH Undefined
        CFI PSPL Undefined
        CFI XSPH Undefined
        CFI XSPL Undefined
        CFI ?RET Concat
        CFI ?BRET_EXT Frame(CFA_SP, 3)
        CFI ?RET_HIGH Frame(CFA_SP, 2)
        CFI ?RET_LOW Frame(CFA_SP, 1)
        CFI EndCommon cfiCommon0
        
        
        CFI Common cfiCommon1 Using cfiNames0
        CFI CodeAlign 1
        CFI DataAlign -1
        CFI ReturnAddress ?RET CODE
        CFI CFA_DOVERLAY Used
        CFI CFA_IOVERLAY Used
        CFI CFA_SP SP+-2
        CFI CFA_PSP16 PSP16+0
        CFI CFA_XSP16 XSP16+0
        CFI `PSW.CY` SameValue
        CFI `B.BR0` SameValue
        CFI `B.BR1` SameValue
        CFI `B.BR2` SameValue
        CFI `B.BR3` SameValue
        CFI `B.BR4` SameValue
        CFI `B.BR5` SameValue
        CFI `B.BR6` SameValue
        CFI `B.BR7` SameValue
        CFI `VB.BR8` SameValue
        CFI `VB.BR9` SameValue
        CFI `VB.BR10` SameValue
        CFI `VB.BR11` SameValue
        CFI `VB.BR12` SameValue
        CFI `VB.BR13` SameValue
        CFI `VB.BR14` SameValue
        CFI `VB.BR15` SameValue
        CFI VB SameValue
        CFI B SameValue
        CFI A SameValue
        CFI PSW SameValue
        CFI DPL0 SameValue
        CFI DPH0 SameValue
        CFI R0 SameValue
        CFI R1 SameValue
        CFI R2 SameValue
        CFI R3 SameValue
        CFI R4 SameValue
        CFI R5 SameValue
        CFI R6 SameValue
        CFI R7 SameValue
        CFI V0 SameValue
        CFI V1 SameValue
        CFI V2 SameValue
        CFI V3 SameValue
        CFI V4 SameValue
        CFI V5 SameValue
        CFI V6 SameValue
        CFI V7 SameValue
        CFI V8 SameValue
        CFI V9 SameValue
        CFI V10 SameValue
        CFI V11 SameValue
        CFI V12 SameValue
        CFI V13 SameValue
        CFI V14 SameValue
        CFI V15 SameValue
        CFI PSPH Undefined
        CFI PSPL Undefined
        CFI XSPH Undefined
        CFI XSPL Undefined
        CFI ?RET Concat
        CFI ?BRET_EXT SameValue
        CFI ?RET_HIGH Frame(CFA_SP, 2)
        CFI ?RET_LOW Frame(CFA_SP, 1)
        CFI EndCommon cfiCommon1
        
osal_msg_receive    SYMBOL "osal_msg_receive"
osal_msg_deallocate SYMBOL "osal_msg_deallocate"
osal_msg_send       SYMBOL "osal_msg_send"
osal_mem_alloc      SYMBOL "osal_mem_alloc"
afFindEndPointDesc  SYMBOL "afFindEndPointDesc"
StubAPS_InterPan    SYMBOL "StubAPS_InterPan"
osal_memset         SYMBOL "osal_memset"
osal_memcpy         SYMBOL "osal_memcpy"
AF_DataRequest      SYMBOL "AF_DataRequest"
osal_mem_free       SYMBOL "osal_mem_free"
osal_buffer_uint32  SYMBOL "osal_buffer_uint32"
osal_build_uint32   SYMBOL "osal_build_uint32"
osal_msg_allocate   SYMBOL "osal_msg_allocate"
??AF_DataRequest?relay SYMBOL "?relay", AF_DataRequest
??StubAPS_InterPan?relay SYMBOL "?relay", StubAPS_InterPan
??afFindEndPointDesc?relay SYMBOL "?relay", afFindEndPointDesc
??osal_buffer_uint32?relay SYMBOL "?relay", osal_buffer_uint32
??osal_build_uint32?relay SYMBOL "?relay", osal_build_uint32
??osal_mem_alloc?relay SYMBOL "?relay", osal_mem_alloc
??osal_mem_free?relay SYMBOL "?relay", osal_mem_free
??osal_memcpy?relay SYMBOL "?relay", osal_memcpy
??osal_memset?relay SYMBOL "?relay", osal_memset
??osal_msg_allocate?relay SYMBOL "?relay", osal_msg_allocate
??osal_msg_deallocate?relay SYMBOL "?relay", osal_msg_deallocate
??osal_msg_receive?relay SYMBOL "?relay", osal_msg_receive
??osal_msg_send?relay SYMBOL "?relay", osal_msg_send
zclAnalogDataType   SYMBOL "zclAnalogDataType"
??zclAnalogDataType?relay SYMBOL "?relay", zclAnalogDataType
zclFindAttrRec      SYMBOL "zclFindAttrRec"
??zclFindAttrRec?relay SYMBOL "?relay", zclFindAttrRec
zclGetAttrDataLength SYMBOL "zclGetAttrDataLength"
??zclGetAttrDataLength?relay SYMBOL "?relay", zclGetAttrDataLength
zclGetDataTypeLength SYMBOL "zclGetDataTypeLength"
??zclGetDataTypeLength?relay SYMBOL "?relay", zclGetDataTypeLength
zclParseHdr         SYMBOL "zclParseHdr"
??zclParseHdr?relay SYMBOL "?relay", zclParseHdr
zclParseInConfigReportCmd SYMBOL "zclParseInConfigReportCmd"
??zclParseInConfigReportCmd?relay SYMBOL "?relay", zclParseInConfigReportCmd
zclParseInReadCmd   SYMBOL "zclParseInReadCmd"
??zclParseInReadCmd?relay SYMBOL "?relay", zclParseInReadCmd
zclParseInReadReportCfgCmd SYMBOL "zclParseInReadReportCfgCmd"
??zclParseInReadReportCfgCmd?relay SYMBOL "?relay", zclParseInReadReportCfgCmd
zclParseInReportCmd SYMBOL "zclParseInReportCmd"
??zclParseInReportCmd?relay SYMBOL "?relay", zclParseInReportCmd
zclParseInWriteCmd  SYMBOL "zclParseInWriteCmd"
??zclParseInWriteCmd?relay SYMBOL "?relay", zclParseInWriteCmd
zclProcessMessageMSG SYMBOL "zclProcessMessageMSG"
??zclProcessMessageMSG?relay SYMBOL "?relay", zclProcessMessageMSG
zclReadAttrData     SYMBOL "zclReadAttrData"
??zclReadAttrData?relay SYMBOL "?relay", zclReadAttrData
zclSerializeData    SYMBOL "zclSerializeData"
??zclSerializeData?relay SYMBOL "?relay", zclSerializeData
zcl_Init            SYMBOL "zcl_Init"
??zcl_Init?relay    SYMBOL "?relay", zcl_Init
zcl_SendCommand     SYMBOL "zcl_SendCommand"
??zcl_SendCommand?relay SYMBOL "?relay", zcl_SendCommand
zcl_SendConfigReportCmd SYMBOL "zcl_SendConfigReportCmd"
??zcl_SendConfigReportCmd?relay SYMBOL "?relay", zcl_SendConfigReportCmd
zcl_SendConfigReportRspCmd SYMBOL "zcl_SendConfigReportRspCmd"
??zcl_SendConfigReportRspCmd?relay SYMBOL "?relay", zcl_SendConfigReportRspCmd
zcl_SendDefaultRspCmd SYMBOL "zcl_SendDefaultRspCmd"
??zcl_SendDefaultRspCmd?relay SYMBOL "?relay", zcl_SendDefaultRspCmd
zcl_SendRead        SYMBOL "zcl_SendRead"
??zcl_SendRead?relay SYMBOL "?relay", zcl_SendRead
zcl_SendReadReportCfgCmd SYMBOL "zcl_SendReadReportCfgCmd"
??zcl_SendReadReportCfgCmd?relay SYMBOL "?relay", zcl_SendReadReportCfgCmd
zcl_SendReadReportCfgRspCmd SYMBOL "zcl_SendReadReportCfgRspCmd"
??zcl_SendReadReportCfgRspCmd?relay SYMBOL "?relay", zcl_SendReadReportCfgRspCmd
zcl_SendReadRsp     SYMBOL "zcl_SendReadRsp"
??zcl_SendReadRsp?relay SYMBOL "?relay", zcl_SendReadRsp
zcl_SendReportCmd   SYMBOL "zcl_SendReportCmd"
??zcl_SendReportCmd?relay SYMBOL "?relay", zcl_SendReportCmd
zcl_SendWriteRequest SYMBOL "zcl_SendWriteRequest"
??zcl_SendWriteRequest?relay SYMBOL "?relay", zcl_SendWriteRequest
zcl_SendWriteRsp    SYMBOL "zcl_SendWriteRsp"
??zcl_SendWriteRsp?relay SYMBOL "?relay", zcl_SendWriteRsp
zcl_event_loop      SYMBOL "zcl_event_loop"
??zcl_event_loop?relay SYMBOL "?relay", zcl_event_loop
zcl_getRawAFMsg     SYMBOL "zcl_getRawAFMsg"
??zcl_getRawAFMsg?relay SYMBOL "?relay", zcl_getRawAFMsg
zcl_registerAttrList SYMBOL "zcl_registerAttrList"
??zcl_registerAttrList?relay SYMBOL "?relay", zcl_registerAttrList
zcl_registerClusterOptionList SYMBOL "zcl_registerClusterOptionList"
??zcl_registerClusterOptionList?relay SYMBOL "?relay", zcl_registerClusterOptionList
zcl_registerForMsg  SYMBOL "zcl_registerForMsg"
??zcl_registerForMsg?relay SYMBOL "?relay", zcl_registerForMsg
zcl_registerPlugin  SYMBOL "zcl_registerPlugin"
??zcl_registerPlugin?relay SYMBOL "?relay", zcl_registerPlugin
zcl_registerReadWriteCB SYMBOL "zcl_registerReadWriteCB"
??zcl_registerReadWriteCB?relay SYMBOL "?relay", zcl_registerReadWriteCB
zcl_registerValidateAttrData SYMBOL "zcl_registerValidateAttrData"
??zcl_registerValidateAttrData?relay SYMBOL "?relay", zcl_registerValidateAttrData

        EXTERN osal_msg_receive
        FUNCTION osal_msg_receive,0202H
        ARGFRAME ISTACK, 0, STACK
        ARGFRAME PSTACK, 0, STACK
        ARGFRAME XSTACK, 12, STACK
        ARGFRAME IOVERLAY, 0, STATIC
        ARGFRAME DOVERLAY, 0, STATIC
        EXTERN osal_msg_deallocate
        FUNCTION osal_msg_deallocate,0202H
        ARGFRAME ISTACK, 0, STACK
        ARGFRAME PSTACK, 0, STACK
        ARGFRAME XSTACK, 12, STACK
        ARGFRAME IOVERLAY, 0, STATIC
        ARGFRAME DOVERLAY, 0, STATIC
        EXTERN osal_msg_send
        FUNCTION osal_msg_send,0202H
        ARGFRAME ISTACK, 0, STACK
        ARGFRAME PSTACK, 0, STACK
        ARGFRAME XSTACK, 12, STACK
        ARGFRAME IOVERLAY, 0, STATIC
        ARGFRAME DOVERLAY, 0, STATIC
        EXTERN osal_mem_alloc
        FUNCTION osal_mem_alloc,0202H
        ARGFRAME ISTACK, 0, STACK
        ARGFRAME PSTACK, 0, STACK
        ARGFRAME XSTACK, 36, STACK
        ARGFRAME IOVERLAY, 0, STATIC
        ARGFRAME DOVERLAY, 0, STATIC
        EXTERN afFindEndPointDesc
        FUNCTION afFindEndPointDesc,0202H
        ARGFRAME ISTACK, 0, STACK
        ARGFRAME PSTACK, 0, STACK
        ARGFRAME XSTACK, 33, STACK
        ARGFRAME IOVERLAY, 0, STATIC
        ARGFRAME DOVERLAY, 0, STATIC
        EXTERN StubAPS_InterPan
        FUNCTION StubAPS_InterPan,0202H
        ARGFRAME ISTACK, 0, STACK
        ARGFRAME PSTACK, 0, STACK
        ARGFRAME XSTACK, 33, STACK
        ARGFRAME IOVERLAY, 0, STATIC
        ARGFRAME DOVERLAY, 0, STATIC
        EXTERN osal_memset
        FUNCTION osal_memset,0202H
        ARGFRAME ISTACK, 0, STACK
        ARGFRAME PSTACK, 0, STACK
        ARGFRAME XSTACK, 30, STACK
        ARGFRAME IOVERLAY, 0, STATIC
        ARGFRAME DOVERLAY, 0, STATIC
        EXTERN osal_memcpy
        FUNCTION osal_memcpy,0202H
        ARGFRAME ISTACK, 0, STACK
        ARGFRAME PSTACK, 0, STACK
        ARGFRAME XSTACK, 33, STACK
        ARGFRAME IOVERLAY, 0, STATIC
        ARGFRAME DOVERLAY, 0, STATIC
        EXTERN AF_DataRequest
        FUNCTION AF_DataRequest,0202H
        ARGFRAME ISTACK, 0, STACK
        ARGFRAME PSTACK, 0, STACK
        ARGFRAME XSTACK, 39, STACK
        ARGFRAME IOVERLAY, 0, STATIC
        ARGFRAME DOVERLAY, 0, STATIC
        EXTERN osal_mem_free
        FUNCTION osal_mem_free,0202H
        ARGFRAME ISTACK, 0, STACK
        ARGFRAME PSTACK, 0, STACK
        ARGFRAME XSTACK, 36, STACK
        ARGFRAME IOVERLAY, 0, STATIC
        ARGFRAME DOVERLAY, 0, STATIC
        EXTERN osal_buffer_uint32
        FUNCTION osal_buffer_uint32,0202H
        ARGFRAME ISTACK, 0, STACK
        ARGFRAME PSTACK, 0, STACK
        ARGFRAME XSTACK, 20, STACK
        ARGFRAME IOVERLAY, 0, STATIC
        ARGFRAME DOVERLAY, 0, STATIC
        EXTERN osal_build_uint32
        FUNCTION osal_build_uint32,0202H
        ARGFRAME ISTACK, 0, STACK
        ARGFRAME PSTACK, 0, STACK
        ARGFRAME XSTACK, 9, STACK
        ARGFRAME IOVERLAY, 0, STATIC
        ARGFRAME DOVERLAY, 0, STATIC
        EXTERN osal_msg_allocate
        FUNCTION osal_msg_allocate,0202H
        ARGFRAME ISTACK, 0, STACK
        ARGFRAME PSTACK, 0, STACK
        ARGFRAME XSTACK, 10, STACK
        ARGFRAME IOVERLAY, 0, STATIC
        ARGFRAME DOVERLAY, 0, STATIC
        EXTERN ??AF_DataRequest?relay
        FUNCTION ??AF_DataRequest?relay,00H
        EXTERN ??StubAPS_InterPan?relay
        FUNCTION ??StubAPS_InterPan?relay,00H
        EXTERN ??afFindEndPointDesc?relay
        FUNCTION ??afFindEndPointDesc?relay,00H
        EXTERN ??osal_buffer_uint32?relay
        FUNCTION ??osal_buffer_uint32?relay,00H
        EXTERN ??osal_build_uint32?relay
        FUNCTION ??osal_build_uint32?relay,00H
        EXTERN ??osal_mem_alloc?relay
        FUNCTION ??osal_mem_alloc?relay,00H
        EXTERN ??osal_mem_free?relay
        FUNCTION ??osal_mem_free?relay,00H
        EXTERN ??osal_memcpy?relay
        FUNCTION ??osal_memcpy?relay,00H
        EXTERN ??osal_memset?relay
        FUNCTION ??osal_memset?relay,00H
        EXTERN ??osal_msg_allocate?relay
        FUNCTION ??osal_msg_allocate?relay,00H
        EXTERN ??osal_msg_deallocate?relay
        FUNCTION ??osal_msg_deallocate?relay,00H
        EXTERN ??osal_msg_receive?relay
        FUNCTION ??osal_msg_receive?relay,00H
        EXTERN ??osal_msg_send?relay
        FUNCTION ??osal_msg_send?relay,00H

// G:\»ªÖÚÎÞÏß\12.´®¿ÚÍ¸´«Ö®ÎÞÏßQQ\ZStack-2.5.1a\Components\stack\zcl\zcl.c
//    1 /**************************************************************************************************
//    2   Filename:       zcl.c
//    3   Revised:        $Date: 2012-01-30 10:40:08 -0800 (Mon, 30 Jan 2012) $
//    4   Revision:       $Revision: 29096 $
//    5 
//    6   Description:    This file contains the Zigbee Cluster Library Foundation functions.
//    7 
//    8 
//    9   Copyright 2006-2012 Texas Instruments Incorporated. All rights reserved.
//   10 
//   11   IMPORTANT: Your use of this Software is limited to those specific rights
//   12   granted under the terms of a software license agreement between the user
//   13   who downloaded the software, his/her employer (which must be your employer)
//   14   and Texas Instruments Incorporated (the "License").  You may not use this
//   15   Software unless you agree to abide by the terms of the License. The License
//   16   limits your use, and you acknowledge, that the Software may not be modified,
//   17   copied or distributed unless embedded on a Texas Instruments microcontroller
//   18   or used solely and exclusively in conjunction with a Texas Instruments radio
//   19   frequency transceiver, which is integrated into your product.  Other than for
//   20   the foregoing purpose, you may not use, reproduce, copy, prepare derivative
//   21   works of, modify, distribute, perform, display or sell this Software and/or
//   22   its documentation for any purpose.
//   23 
//   24   YOU FURTHER ACKNOWLEDGE AND AGREE THAT THE SOFTWARE AND DOCUMENTATION ARE
//   25   PROVIDED “AS IS” WITHOUT WARRANTY OF ANY KIND, EITHER EXPRESS OR IMPLIED,
//   26   INCLUDING WITHOUT LIMITATION, ANY WARRANTY OF MERCHANTABILITY, TITLE,
//   27   NON-INFRINGEMENT AND FITNESS FOR A PARTICULAR PURPOSE. IN NO EVENT SHALL
//   28   TEXAS INSTRUMENTS OR ITS LICENSORS BE LIABLE OR OBLIGATED UNDER CONTRACT,
//   29   NEGLIGENCE, STRICT LIABILITY, CONTRIBUTION, BREACH OF WARRANTY, OR OTHER
//   30   LEGAL EQUITABLE THEORY ANY DIRECT OR INDIRECT DAMAGES OR EXPENSES
//   31   INCLUDING BUT NOT LIMITED TO ANY INCIDENTAL, SPECIAL, INDIRECT, PUNITIVE
//   32   OR CONSEQUENTIAL DAMAGES, LOST PROFITS OR LOST DATA, COST OF PROCUREMENT
//   33   OF SUBSTITUTE GOODS, TECHNOLOGY, SERVICES, OR ANY CLAIMS BY THIRD PARTIES
//   34   (INCLUDING BUT NOT LIMITED TO ANY DEFENSE THEREOF), OR OTHER SIMILAR COSTS.
//   35 
//   36   Should you have any questions regarding your right to use this Software,
//   37   contact Texas Instruments Incorporated at www.TI.com.
//   38 **************************************************************************************************/
//   39 
//   40 /*********************************************************************
//   41  * INCLUDES
//   42  */
//   43 #include "ZComDef.h"
//   44 #include "OSAL.h"
//   45 #include "OSAL_Tasks.h"
//   46 #include "AF.h"
//   47 #include "ZDConfig.h"
//   48 
//   49 #include "zcl.h"
//   50 #include "zcl_general.h"
//   51 
//   52 #if defined ( INTER_PAN )
//   53   #include "stub_aps.h"
//   54 #endif
//   55 
//   56 /*********************************************************************
//   57  * MACROS
//   58  */
//   59 /*** Frame Control ***/
//   60 #define zcl_FCType( a )               ( (a) & ZCL_FRAME_CONTROL_TYPE )
//   61 #define zcl_FCManuSpecific( a )       ( (a) & ZCL_FRAME_CONTROL_MANU_SPECIFIC )
//   62 #define zcl_FCDirection( a )          ( (a) & ZCL_FRAME_CONTROL_DIRECTION )
//   63 #define zcl_FCDisableDefaultRsp( a )  ( (a) & ZCL_FRAME_CONTROL_DISABLE_DEFAULT_RSP )
//   64 
//   65 /*** Attribute Access Control ***/
//   66 #define zcl_AccessCtrlRead( a )       ( (a) & ACCESS_CONTROL_READ )
//   67 #define zcl_AccessCtrlWrite( a )      ( (a) & ACCESS_CONTROL_WRITE )
//   68 #define zcl_AccessCtrlCmd( a )        ( (a) & ACCESS_CONTROL_CMD )
//   69 #define zcl_AccessCtrlAuthRead( a )   ( (a) & ACCESS_CONTROL_AUTH_READ )
//   70 #define zcl_AccessCtrlAuthWrite( a )  ( (a) & ACCESS_CONTROL_AUTH_WRITE )
//   71 
//   72 #define zclParseCmd( a, b )           zclCmdTable[(a)].pfnParseInProfile( (b) )
//   73 #define zclProcessCmd( a, b )         zclCmdTable[(a)].pfnProcessInProfile( (b) )
//   74 
//   75 #define zcl_DefaultRspCmd( zclHdr )   ( zcl_ProfileCmd( (zclHdr).fc.type )     && \ 
//   76                                         (zclHdr).fc.manuSpecific == 0          && \ 
//   77                                         (zclHdr).commandID == ZCL_CMD_DEFAULT_RSP )
//   78 
//   79 // Commands that have corresponding responses
//   80 #define CMD_HAS_RSP( cmd )            ( (cmd) == ZCL_CMD_READ            || \ 
//   81                                         (cmd) == ZCL_CMD_WRITE           || \ 
//   82                                         (cmd) == ZCL_CMD_WRITE_UNDIVIDED || \ 
//   83                                         (cmd) == ZCL_CMD_CONFIG_REPORT   || \ 
//   84                                         (cmd) == ZCL_CMD_READ_REPORT_CFG || \ 
//   85                                         (cmd) == ZCL_CMD_DISCOVER        || \ 
//   86                                         (cmd) == ZCL_CMD_DEFAULT_RSP ) // exception
//   87 
//   88 /*********************************************************************
//   89  * CONSTANTS
//   90  */
//   91 
//   92 /*********************************************************************
//   93  * TYPEDEFS
//   94  */
//   95 typedef struct zclLibPlugin
//   96 {
//   97   struct zclLibPlugin *next;
//   98   uint16              startClusterID;    // starting cluster ID
//   99   uint16              endClusterID;      // ending cluster ID
//  100   zclInHdlr_t         pfnIncomingHdlr;    // function to handle incoming message
//  101 } zclLibPlugin_t;
//  102 
//  103 // Attribute record list item
//  104 typedef struct zclAttrRecsList
//  105 {
//  106   struct zclAttrRecsList *next;
//  107   uint8                  endpoint;      // Used to link it into the endpoint descriptor
//  108   zclReadWriteCB_t       pfnReadWriteCB;// Read or Write attribute value callback function
//  109   zclAuthorizeCB_t       pfnAuthorizeCB;// Authorize Read or Write operation
//  110   uint8                  numAttributes; // Number of the following records
//  111   CONST zclAttrRec_t     *attrs;        // attribute records
//  112 } zclAttrRecsList;
//  113 
//  114 // Cluster option list item
//  115 typedef struct zclClusterOptionList
//  116 {
//  117   struct zclClusterOptionList *next;
//  118   uint8                       endpoint;   // Used to link it into the endpoint descriptor
//  119   uint8                       numOptions; // Number of the following records
//  120   zclOptionRec_t              *options;   // option records
//  121 } zclClusterOptionList;
//  122 
//  123 typedef void *(*zclParseInProfileCmd_t)( zclParseCmd_t *pCmd );
//  124 typedef uint8 (*zclProcessInProfileCmd_t)( zclIncoming_t *pInMsg );
//  125 
//  126 typedef struct
//  127 {
//  128   zclParseInProfileCmd_t   pfnParseInProfile;
//  129   zclProcessInProfileCmd_t pfnProcessInProfile;
//  130 } zclCmdItems_t;
//  131 
//  132 
//  133 /*********************************************************************
//  134  * GLOBAL VARIABLES
//  135  */

        RSEG XDATA_Z:XDATA:NOROOT(0)
        DATA8
//  136 uint8 zcl_TaskID;
zcl_TaskID:
        DS 1
        REQUIRE __INIT_XDATA_Z
//  137 
//  138 // The task Id of the Application where the unprocessed Foundation
//  139 // Command/Response messages will be sent to.

        RSEG XDATA_I:XDATA:NOROOT(0)
//  140 uint8 zcl_RegisteredMsgTaskID = TASK_NO_TASK;
zcl_RegisteredMsgTaskID:
        DATA8
        DS 1
        REQUIRE `?<Initializer for zcl_RegisteredMsgTaskID>`
        REQUIRE __INIT_XDATA_I
//  141 
//  142 // The Application should register its attribute data validation function

        RSEG XDATA_Z:XDATA:NOROOT(0)
        DATA16
//  143 zclValidateAttrData_t zcl_ValidateAttrDataCB = NULL;
zcl_ValidateAttrDataCB:
        DS 2
        REQUIRE __INIT_XDATA_Z
//  144 
//  145 // ZCL Sequence number

        RSEG XDATA_Z:XDATA:NOROOT(0)
        DATA8
//  146 uint8 zcl_SeqNum = 0x00;
zcl_SeqNum:
        DS 1
        REQUIRE __INIT_XDATA_Z
//  147 
//  148 /*********************************************************************
//  149  * EXTERNAL VARIABLES
//  150  */
//  151 
//  152 /*********************************************************************
//  153  * EXTERNAL FUNCTIONS
//  154  */
//  155 
//  156 /*********************************************************************
//  157  * LOCAL VARIABLES
//  158  */

        RSEG XDATA_Z:XDATA:NOROOT(0)
        DATA16
//  159 static zclLibPlugin_t *plugins;
plugins:
        DS 2
        REQUIRE __INIT_XDATA_Z

        RSEG XDATA_Z:XDATA:NOROOT(0)
        DATA16
//  160 static zclAttrRecsList *attrList;
attrList:
        DS 2
        REQUIRE __INIT_XDATA_Z

        RSEG XDATA_Z:XDATA:NOROOT(0)
        DATA16
//  161 static zclClusterOptionList *clusterOptionList;
clusterOptionList:
        DS 2
        REQUIRE __INIT_XDATA_Z

        RSEG XDATA_Z:XDATA:NOROOT(0)
        DATA8
//  162 static uint8 zcl_TransID = 0;  // This is the unique message ID (counter)
zcl_TransID:
        DS 1
        REQUIRE __INIT_XDATA_Z
//  163 

        RSEG XDATA_Z:XDATA:NOROOT(0)
        DATA16
//  164 static afIncomingMSGPacket_t *rawAFMsg = NULL;
rawAFMsg:
        DS 2
        REQUIRE __INIT_XDATA_Z
//  165 
//  166 /*********************************************************************
//  167  * LOCAL FUNCTIONS
//  168  */
//  169 void zclProcessMessageMSG( afIncomingMSGPacket_t *pkt );  // Not static for ZNP build.
//  170 static uint8 *zclBuildHdr( zclFrameHdr_t *hdr, uint8 *pData );
//  171 static uint8 zclCalcHdrSize( zclFrameHdr_t *hdr );
//  172 static zclLibPlugin_t *zclFindPlugin( uint16 clusterID, uint16 profileID );
//  173 static zclAttrRecsList *zclFindAttrRecsList( uint8 endpoint );
//  174 static zclOptionRec_t *zclFindClusterOption( uint8 endpoint, uint16 clusterID );
//  175 static uint8 zclGetClusterOption( uint8 endpoint, uint16 clusterID );
//  176 static void zclSetSecurityOption( uint8 endpoint, uint16 clusterID, uint8 enable );
//  177 
//  178 static uint8 zcl_DeviceOperational( uint8 srcEP, uint16 clusterID, uint8 frameType, uint8 cmd, uint16 profileID );
//  179 
//  180 #if defined ( ZCL_READ ) || defined ( ZCL_WRITE )
//  181 static zclReadWriteCB_t zclGetReadWriteCB( uint8 endpoint );
//  182 static zclAuthorizeCB_t zclGetAuthorizeCB( uint8 endpoint );
//  183 #endif // ZCL_READ || ZCL_WRITE
//  184 
//  185 #ifdef ZCL_READ
//  186 static uint16 zclGetAttrDataLengthUsingCB( uint8 endpoint, uint16 clusterID, uint16 attrId );
//  187 static ZStatus_t zclReadAttrDataUsingCB( uint8 endpoint, uint16 clusterId, uint16 attrId,
//  188                                          uint8 *pAttrData, uint16 *pDataLen );
//  189 static ZStatus_t zclAuthorizeRead( uint8 endpoint, afAddrType_t *srcAddr, zclAttrRec_t *pAttr );
//  190 static void *zclParseInReadRspCmd( zclParseCmd_t *pCmd );
//  191 static uint8 zclProcessInReadCmd( zclIncoming_t *pInMsg );
//  192 #endif // ZCL_READ
//  193 
//  194 #ifdef ZCL_WRITE
//  195 static ZStatus_t zclWriteAttrData( uint8 endpoint, afAddrType_t *srcAddr,
//  196                                    zclAttrRec_t *pAttr, zclWriteRec_t *pWriteRec );
//  197 static ZStatus_t zclWriteAttrDataUsingCB( uint8 endpoint, afAddrType_t *srcAddr,
//  198                                           zclAttrRec_t *pAttr, uint8 *pAttrData );
//  199 static ZStatus_t zclAuthorizeWrite( uint8 endpoint, afAddrType_t *srcAddr, zclAttrRec_t *pAttr );
//  200 static void *zclParseInWriteRspCmd( zclParseCmd_t *pCmd );
//  201 static uint8 zclProcessInWriteCmd( zclIncoming_t *pInMsg );
//  202 static uint8 zclProcessInWriteUndividedCmd( zclIncoming_t *pInMsg );
//  203 #endif // ZCL_WRITE
//  204 
//  205 #ifdef ZCL_REPORT
//  206 static void *zclParseInConfigReportRspCmd( zclParseCmd_t *pCmd );
//  207 static void *zclParseInReadReportCfgRspCmd( zclParseCmd_t *pCmd );
//  208 #endif // ZCL_REPORT
//  209 
//  210 static void *zclParseInDefaultRspCmd( zclParseCmd_t *pCmd );
//  211 
//  212 #ifdef ZCL_DISCOVER
//  213 static uint8 zclFindNextAttrRec( uint8 endpoint, uint16 clusterID, uint16 *attrId, zclAttrRec_t *pAttr );
//  214 static void *zclParseInDiscRspCmd( zclParseCmd_t *pCmd );
//  215 static uint8 zclProcessInDiscCmd( zclIncoming_t *pInMsg );
//  216 #endif // ZCL_DISCOVER
//  217 
//  218 static uint8 zclSendMsg( zclIncoming_t *pInMsg );
//  219 
//  220 /*********************************************************************
//  221  * Parse Profile Command Function Table
//  222  */

        RSEG CODE_C:CODE:REORDER:NOROOT(0)
        DATA8
//  223 static CONST zclCmdItems_t zclCmdTable[] =
zclCmdTable:
        DATA16
        DW ??zclParseInReadCmd?relay
        DW ??zclProcessInReadCmd?relay
        DW ??zclParseInReadRspCmd?relay
        DW ??zclSendMsg?relay
        DW ??zclParseInWriteCmd?relay
        DW ??zclProcessInWriteCmd?relay
        DW ??zclParseInWriteCmd?relay
        DW ??zclProcessInWriteUndividedCmd?relay
        DW ??zclParseInWriteRspCmd?relay
        DW ??zclSendMsg?relay
        DW ??zclParseInWriteCmd?relay
        DW ??zclProcessInWriteCmd?relay
        DW ??zclParseInConfigReportCmd?relay
        DW ??zclSendMsg?relay
        DW ??zclParseInConfigReportRspCmd?relay
        DW ??zclSendMsg?relay
        DW ??zclParseInReadReportCfgCmd?relay
        DW ??zclSendMsg?relay
        DW ??zclParseInReadReportCfgRspCmd?relay
        DW ??zclSendMsg?relay
        DW ??zclParseInReportCmd?relay
        DW ??zclSendMsg?relay
        DW ??zclParseInDefaultRspCmd?relay
        DW ??zclSendMsg?relay
        DW 0H
        DW 0H
        DW 0H
        DW 0H
//  224 {
//  225 #ifdef ZCL_READ
//  226   /* ZCL_CMD_READ */                { zclParseInReadCmd,             zclProcessInReadCmd             },
//  227   /* ZCL_CMD_READ_RSP */            { zclParseInReadRspCmd,          zclSendMsg                      },
//  228 #else
//  229   /* ZCL_CMD_READ */                { NULL,                          NULL                            },
//  230   /* ZCL_CMD_READ_RSP */            { NULL,                          NULL                            },
//  231 #endif // ZCL_READ
//  232 
//  233 #ifdef ZCL_WRITE
//  234   /* ZCL_CMD_WRITE */               { zclParseInWriteCmd,            zclProcessInWriteCmd            },
//  235   /* ZCL_CMD_WRITE_UNDIVIDED */     { zclParseInWriteCmd,            zclProcessInWriteUndividedCmd   },
//  236   /* ZCL_CMD_WRITE_RSP */           { zclParseInWriteRspCmd,         zclSendMsg                      },
//  237   /* ZCL_CMD_WRITE_NO_RSP */        { zclParseInWriteCmd,            zclProcessInWriteCmd            },
//  238 #else
//  239   /* ZCL_CMD_WRITE */               { NULL,                          NULL                            },
//  240   /* ZCL_CMD_WRITE_UNDIVIDED */     { NULL,                          NULL                            },
//  241   /* ZCL_CMD_WRITE_RSP */           { NULL,                          NULL                            },
//  242   /* ZCL_CMD_WRITE_NO_RSP */        { NULL,                          NULL                            },
//  243 #endif // ZCL_WRITE
//  244 
//  245 #ifdef ZCL_REPORT
//  246   /* ZCL_CMD_CONFIG_REPORT */       { zclParseInConfigReportCmd,     zclSendMsg                      },
//  247   /* ZCL_CMD_CONFIG_REPORT_RSP */   { zclParseInConfigReportRspCmd,  zclSendMsg                      },
//  248   /* ZCL_CMD_READ_REPORT_CFG */     { zclParseInReadReportCfgCmd,    zclSendMsg                      },
//  249   /* ZCL_CMD_READ_REPORT_CFG_RSP */ { zclParseInReadReportCfgRspCmd, zclSendMsg                      },
//  250   /* ZCL_CMD_REPORT */              { zclParseInReportCmd,           zclSendMsg                      },
//  251 #else
//  252   /* ZCL_CMD_CONFIG_REPORT */       { NULL,                          NULL                            },
//  253   /* ZCL_CMD_CONFIG_REPORT_RSP */   { NULL,                          NULL                            },
//  254   /* ZCL_CMD_READ_REPORT_CFG */     { NULL,                          NULL                            },
//  255   /* ZCL_CMD_READ_REPORT_CFG_RSP */ { NULL,                          NULL                            },
//  256   /* ZCL_CMD_REPORT */              { NULL,                          NULL                            },
//  257 #endif // ZCL_REPORT
//  258 
//  259   /* ZCL_CMD_DEFAULT_RSP */         { zclParseInDefaultRspCmd,       zclSendMsg                      },
//  260 
//  261 #ifdef ZCL_DISCOVER
//  262   /* ZCL_CMD_DISCOVER */            { zclParseInDiscCmd,             zclProcessInDiscCmd             },
//  263   /* ZCL_CMD_DISCOVER_RSP */        { zclParseInDiscRspCmd,          zclSendMsg                      }
//  264 #else
//  265   /* ZCL_CMD_DISCOVER */            { NULL,                          NULL                            },
//  266   /* ZCL_CMD_DISCOVER_RSP */        { NULL,                          NULL                            }
//  267 #endif // ZCL_DISCOVER
//  268 };
//  269 
//  270 /*********************************************************************
//  271  * PUBLIC FUNCTIONS
//  272  *********************************************************************/
//  273 
//  274 /*********************************************************************
//  275  * @fn          zcl_Init
//  276  *
//  277  * @brief       Initialization function for the zcl layer.
//  278  *
//  279  * @param       task_id - ZCL task id
//  280  *
//  281  * @return      none
//  282  */

        RSEG BANKED_CODE:CODE:NOROOT(0)
//  283 void zcl_Init( uint8 task_id )
zcl_Init:
        CFI Block cfiBlock0 Using cfiCommon0
        CFI Function zcl_Init
        CODE
//  284 {
        PUSH    DPL
        CFI DPL0 Frame(CFA_SP, 4)
        CFI CFA_SP SP+-4
        PUSH    DPH
        CFI DPH0 Frame(CFA_SP, 5)
        CFI CFA_SP SP+-5
        ; Saved register size: 2
        ; Auto size: 0
//  285   zcl_TaskID = task_id;
        MOV     A,R1
        MOV     DPTR,#zcl_TaskID
        MOVX    @DPTR,A
//  286 
//  287   plugins = (zclLibPlugin_t  *)NULL;
        MOV     DPTR,#plugins
        CLR     A
        MOVX    @DPTR,A
        INC     DPTR
        MOVX    @DPTR,A
//  288   attrList = (zclAttrRecsList *)NULL;
        MOV     DPTR,#attrList
        MOVX    @DPTR,A
        INC     DPTR
        MOVX    @DPTR,A
//  289   clusterOptionList = (zclClusterOptionList *)NULL;
        MOV     DPTR,#clusterOptionList
        MOVX    @DPTR,A
        INC     DPTR
        MOVX    @DPTR,A
//  290 }
        LJMP    ?Subroutine0 & 0xFFFF
        CFI EndBlock cfiBlock0
//  291 
//  292 /*********************************************************************
//  293  * @fn          zcl_event_loop
//  294  *
//  295  * @brief       Event Loop Processor for zcl.
//  296  *
//  297  * @param       task_id - task id
//  298  * @param       events - event bitmap
//  299  *
//  300  * @return      unprocessed events
//  301  */

        RSEG BANKED_CODE:CODE:NOROOT(0)
//  302 uint16 zcl_event_loop( uint8 task_id, uint16 events )
zcl_event_loop:
        CFI Block cfiBlock1 Using cfiCommon0
        CFI Function zcl_event_loop
        CODE
//  303 {
        FUNCALL zcl_event_loop, osal_msg_receive
        LOCFRAME ISTACK, 0, STACK
        LOCFRAME PSTACK, 0, STACK
        LOCFRAME XSTACK, 12, STACK
        LOCFRAME IOVERLAY, 0, STATIC
        LOCFRAME DOVERLAY, 0, STATIC
        ARGFRAME ISTACK, 0, STACK
        ARGFRAME PSTACK, 0, STACK
        ARGFRAME XSTACK, 12, STACK
        ARGFRAME IOVERLAY, 0, STATIC
        ARGFRAME DOVERLAY, 0, STATIC
        FUNCALL zcl_event_loop, zclProcessMessageMSG
        LOCFRAME ISTACK, 0, STACK
        LOCFRAME PSTACK, 0, STACK
        LOCFRAME XSTACK, 12, STACK
        LOCFRAME IOVERLAY, 0, STATIC
        LOCFRAME DOVERLAY, 0, STATIC
        ARGFRAME ISTACK, 0, STACK
        ARGFRAME PSTACK, 0, STACK
        ARGFRAME XSTACK, 12, STACK
        ARGFRAME IOVERLAY, 0, STATIC
        ARGFRAME DOVERLAY, 0, STATIC
        FUNCALL zcl_event_loop, osal_msg_deallocate
        LOCFRAME ISTACK, 0, STACK
        LOCFRAME PSTACK, 0, STACK
        LOCFRAME XSTACK, 12, STACK
        LOCFRAME IOVERLAY, 0, STATIC
        LOCFRAME DOVERLAY, 0, STATIC
        ARGFRAME ISTACK, 0, STACK
        ARGFRAME PSTACK, 0, STACK
        ARGFRAME XSTACK, 12, STACK
        ARGFRAME IOVERLAY, 0, STATIC
        ARGFRAME DOVERLAY, 0, STATIC
        FUNCALL zcl_event_loop, osal_msg_receive
        LOCFRAME ISTACK, 0, STACK
        LOCFRAME PSTACK, 0, STACK
        LOCFRAME XSTACK, 12, STACK
        LOCFRAME IOVERLAY, 0, STATIC
        LOCFRAME DOVERLAY, 0, STATIC
        ARGFRAME ISTACK, 0, STACK
        ARGFRAME PSTACK, 0, STACK
        ARGFRAME XSTACK, 12, STACK
        ARGFRAME IOVERLAY, 0, STATIC
        ARGFRAME DOVERLAY, 0, STATIC
        FUNCALL zcl_event_loop, osal_msg_send
        LOCFRAME ISTACK, 0, STACK
        LOCFRAME PSTACK, 0, STACK
        LOCFRAME XSTACK, 12, STACK
        LOCFRAME IOVERLAY, 0, STATIC
        LOCFRAME DOVERLAY, 0, STATIC
        ARGFRAME ISTACK, 0, STACK
        ARGFRAME PSTACK, 0, STACK
        ARGFRAME XSTACK, 12, STACK
        ARGFRAME IOVERLAY, 0, STATIC
        ARGFRAME DOVERLAY, 0, STATIC
        MOV     A,#-0xc
        LCALL   ?BANKED_ENTER_XDATA
        CFI DPH0 load(1, XDATA, add(CFA_XSP16, literal(-1)))
        CFI DPL0 load(1, XDATA, add(CFA_XSP16, literal(-2)))
        CFI ?BRET_EXT load(1, XDATA, add(CFA_XSP16, literal(-3)))
        CFI ?RET_HIGH load(1, XDATA, add(CFA_XSP16, literal(-4)))
        CFI ?RET_LOW load(1, XDATA, add(CFA_XSP16, literal(-5)))
        CFI R7 load(1, XDATA, add(CFA_XSP16, literal(-6)))
        CFI V3 load(1, XDATA, add(CFA_XSP16, literal(-7)))
        CFI V2 load(1, XDATA, add(CFA_XSP16, literal(-8)))
        CFI V1 load(1, XDATA, add(CFA_XSP16, literal(-9)))
        CFI V0 load(1, XDATA, add(CFA_XSP16, literal(-10)))
        CFI VB load(1, XDATA, add(CFA_XSP16, literal(-11)))
        CFI R6 load(1, XDATA, add(CFA_XSP16, literal(-12)))
        CFI CFA_SP SP+0
        CFI CFA_XSP16 add(XSP16, 12)
        ; Saved register size: 12
        ; Auto size: 0
        MOV     ?V0 + 0,R2
        MOV     ?V0 + 1,R3
//  304   uint8 *msgPtr;
//  305 
//  306   (void)task_id;  // Intentionally unreferenced parameter
//  307 
//  308   if ( events & SYS_EVENT_MSG )
        MOV     A,R3
        ANL     A,#0x80
        JZ      ??zcl_event_loop_0
//  309   {
//  310     msgPtr = osal_msg_receive( zcl_TaskID );
        ; Setup parameters for call to function osal_msg_receive
        SJMP    ??zcl_event_loop_1
//  311     while ( msgPtr != NULL )
//  312     {
//  313       uint8 dealloc = TRUE;
//  314 
//  315       if ( *msgPtr == AF_INCOMING_MSG_CMD )
//  316       {
//  317         rawAFMsg = (afIncomingMSGPacket_t *)msgPtr;
??zcl_event_loop_2:
        MOV     DPTR,#rawAFMsg
        MOV     A,R6
        MOVX    @DPTR,A
        INC     DPTR
        MOV     A,R7
        MOVX    @DPTR,A
//  318         zclProcessMessageMSG( rawAFMsg );
        ; Setup parameters for call to function zclProcessMessageMSG
        MOV     DPTR,#rawAFMsg
        LCALL   ??Subroutine234_0 & 0xFFFF
??CrossCallReturnLabel_393:
        LCALL   ??zclProcessMessageMSG?relay
//  319         rawAFMsg = NULL;
        MOV     DPTR,#rawAFMsg
        CLR     A
        MOVX    @DPTR,A
        INC     DPTR
        MOVX    @DPTR,A
//  320       }
//  321       else if ( zcl_RegisteredMsgTaskID != TASK_NO_TASK )
//  322       {
//  323         // send it to another task to process.
//  324         osal_msg_send( zcl_RegisteredMsgTaskID, msgPtr );
//  325         dealloc = FALSE;
//  326       }
//  327 
//  328       // Release the memory
//  329       if ( dealloc )
//  330       {
//  331         osal_msg_deallocate( msgPtr );
??zcl_event_loop_3:
        ; Setup parameters for call to function osal_msg_deallocate
        MOV     A,R6
        MOV     R2,A
        MOV     A,R7
        MOV     R3,A
        LCALL   ??osal_msg_deallocate?relay
//  332       }
//  333 
//  334       // Next
//  335       msgPtr = osal_msg_receive( zcl_TaskID );
??zcl_event_loop_1:
        ; Setup parameters for call to function osal_msg_receive
        MOV     DPTR,#zcl_TaskID
        MOVX    A,@DPTR
        MOV     R1,A
        LCALL   ??osal_msg_receive?relay
        MOV     ?V0 + 2,R2
        MOV     ?V0 + 3,R3
        MOV     R6,?V0 + 2
        MOV     R7,?V0 + 3
        MOV     A,R6
        ORL     A,R7
        JZ      ??zcl_event_loop_4
        MOV     DPL,R6
        MOV     DPH,R7
        MOVX    A,@DPTR
        XRL     A,#0x1a
        JZ      ??zcl_event_loop_2
        MOV     DPTR,#zcl_RegisteredMsgTaskID
        MOVX    A,@DPTR
        CPL     A
        JZ      ??zcl_event_loop_3
        ; Setup parameters for call to function osal_msg_send
        MOV     A,R6
        MOV     R2,A
        MOV     A,R7
        MOV     R3,A
        MOVX    A,@DPTR
        MOV     R1,A
        LCALL   ??osal_msg_send?relay
        SJMP    ??zcl_event_loop_1
//  336     }
//  337 
//  338     // return unprocessed events
//  339     return (events ^ SYS_EVENT_MSG);
??zcl_event_loop_4:
        MOV     R2,?V0 + 0
        MOV     A,?V0 + 1
        XRL     A,#0x80
        MOV     R3,A
        SJMP    ??zcl_event_loop_5
//  340   }
//  341 
//  342   // Discard unknown events
//  343   return 0;
??zcl_event_loop_0:
        MOV     R2,#0x0
        MOV     R3,#0x0
??zcl_event_loop_5:
        LJMP    ?Subroutine1 & 0xFFFF
        CFI EndBlock cfiBlock1
//  344 }
//  345 
//  346 /*********************************************************************
//  347  * @fn          zcl_getRawAFMsg
//  348  *
//  349  * @brief       Call to get original unprocessed AF message
//  350  *              (not parsed by ZCL).
//  351  *
//  352  *   NOTE:  This function can only be called during a ZCL callback function
//  353  *          and the calling function must NOT change any data in the message.
//  354  *
//  355  * @param       none
//  356  *
//  357  * @return      pointer to original AF message, NULL if not processing
//  358  *              AF message.
//  359  */

        RSEG BANKED_CODE:CODE:NOROOT(0)
//  360 afIncomingMSGPacket_t *zcl_getRawAFMsg( void )
zcl_getRawAFMsg:
        CFI Block cfiBlock2 Using cfiCommon0
        CFI Function zcl_getRawAFMsg
        CODE
//  361 {
        PUSH    DPL
        CFI DPL0 Frame(CFA_SP, 4)
        CFI CFA_SP SP+-4
        PUSH    DPH
        CFI DPH0 Frame(CFA_SP, 5)
        CFI CFA_SP SP+-5
        ; Saved register size: 2
        ; Auto size: 0
//  362   return ( rawAFMsg );
        MOV     DPTR,#rawAFMsg
        LCALL   ??Subroutine234_0 & 0xFFFF
??CrossCallReturnLabel_394:
        LJMP    ?Subroutine0 & 0xFFFF
        CFI EndBlock cfiBlock2
//  363 }
//  364 
//  365 /*********************************************************************
//  366  * @fn          zcl_registerPlugin
//  367  *
//  368  * @brief       Add a Cluster Library handler
//  369  *
//  370  * @param       startClusterID - starting cluster ID
//  371  * @param       endClusterID - ending cluster ID
//  372  * @param       pfnHdlr - function pointer to incoming message handler
//  373  *
//  374  * @return      ZSuccess if OK
//  375  */

        RSEG BANKED_CODE:CODE:NOROOT(0)
//  376 ZStatus_t zcl_registerPlugin( uint16 startClusterID,
zcl_registerPlugin:
        CFI Block cfiBlock3 Using cfiCommon0
        CFI Function zcl_registerPlugin
        CODE
//  377           uint16 endClusterID, zclInHdlr_t pfnIncomingHdlr )
//  378 {
        FUNCALL zcl_registerPlugin, osal_mem_alloc
        LOCFRAME ISTACK, 0, STACK
        LOCFRAME PSTACK, 0, STACK
        LOCFRAME XSTACK, 14, STACK
        LOCFRAME IOVERLAY, 0, STATIC
        LOCFRAME DOVERLAY, 0, STATIC
        ARGFRAME ISTACK, 0, STACK
        ARGFRAME PSTACK, 0, STACK
        ARGFRAME XSTACK, 14, STACK
        ARGFRAME IOVERLAY, 0, STATIC
        ARGFRAME DOVERLAY, 0, STATIC
        MOV     A,#-0xe
        LCALL   ?BANKED_ENTER_XDATA
        CFI DPH0 load(1, XDATA, add(CFA_XSP16, literal(-1)))
        CFI DPL0 load(1, XDATA, add(CFA_XSP16, literal(-2)))
        CFI ?BRET_EXT load(1, XDATA, add(CFA_XSP16, literal(-3)))
        CFI ?RET_HIGH load(1, XDATA, add(CFA_XSP16, literal(-4)))
        CFI ?RET_LOW load(1, XDATA, add(CFA_XSP16, literal(-5)))
        CFI R7 load(1, XDATA, add(CFA_XSP16, literal(-6)))
        CFI V5 load(1, XDATA, add(CFA_XSP16, literal(-7)))
        CFI V4 load(1, XDATA, add(CFA_XSP16, literal(-8)))
        CFI V3 load(1, XDATA, add(CFA_XSP16, literal(-9)))
        CFI V2 load(1, XDATA, add(CFA_XSP16, literal(-10)))
        CFI V1 load(1, XDATA, add(CFA_XSP16, literal(-11)))
        CFI V0 load(1, XDATA, add(CFA_XSP16, literal(-12)))
        CFI VB load(1, XDATA, add(CFA_XSP16, literal(-13)))
        CFI R6 load(1, XDATA, add(CFA_XSP16, literal(-14)))
        CFI CFA_SP SP+0
        CFI CFA_XSP16 add(XSP16, 14)
        ; Saved register size: 14
        ; Auto size: 0
        MOV     ?V0 + 0,R2
        MOV     ?V0 + 1,R3
        MOV     ?V0 + 2,R4
        MOV     ?V0 + 3,R5
        MOV     A,#0xe
        LCALL   ?XSTACK_DISP0_8
        LCALL   ??Subroutine240_0 & 0xFFFF
//  379   zclLibPlugin_t *pNewItem;
//  380   zclLibPlugin_t *pLoop;
//  381 
//  382   // Fill in the new profile list
//  383   pNewItem = osal_mem_alloc( sizeof( zclLibPlugin_t ) );
??CrossCallReturnLabel_446:
        ; Setup parameters for call to function osal_mem_alloc
        MOV     R2,#0x8
        MOV     R3,#0x0
        LCALL   ??osal_mem_alloc?relay
        MOV     ?V0 + 4,R2
        MOV     ?V0 + 5,R3
        MOV     R0,?V0 + 4
        MOV     R1,?V0 + 5
//  384   if ( pNewItem == NULL )
        MOV     A,R0
        ORL     A,R1
        JNZ     ??zcl_registerPlugin_0
//  385   {
//  386     return (ZMemError);
        MOV     R1,#0x10
        SJMP    ??CrossCallReturnLabel_49
//  387   }
//  388 
//  389   // Fill in the plugin record.
//  390   pNewItem->next = (zclLibPlugin_t *)NULL;
??zcl_registerPlugin_0:
        LCALL   ?Subroutine155 & 0xFFFF
//  391   pNewItem->startClusterID = startClusterID;
??CrossCallReturnLabel_230:
        INC     DPTR
        LCALL   ?Subroutine37 & 0xFFFF
//  392   pNewItem->endClusterID = endClusterID;
??CrossCallReturnLabel_287:
        MOV     A,?V0 + 2
        MOVX    @DPTR,A
        INC     DPTR
        MOV     A,?V0 + 3
        MOVX    @DPTR,A
//  393   pNewItem->pfnIncomingHdlr = pfnIncomingHdlr;
        MOV     A,R6
        MOV     R2,A
        MOV     A,R7
        MOV     R3,A
        MOV     DPL,R0
        MOV     DPH,R1
        INC     DPTR
        INC     DPTR
        INC     DPTR
        INC     DPTR
        LCALL   ??Subroutine266_0 & 0xFFFF
//  394 
//  395   // Find spot in list
//  396   if (  plugins == NULL )
??CrossCallReturnLabel_589:
        MOV     DPTR,#plugins
        LCALL   ??Subroutine230_0 & 0xFFFF
??CrossCallReturnLabel_388:
        JNZ     ??zcl_registerPlugin_1
//  397   {
//  398     plugins = pNewItem;
        MOV     DPTR,#plugins
        SJMP    ??zcl_registerPlugin_2
//  399   }
//  400   else
//  401   {
//  402     // Look for end of list
//  403     pLoop = plugins;
//  404     while ( pLoop->next != NULL )
//  405     {
//  406       pLoop = pLoop->next;
??zcl_registerPlugin_3:
        MOVX    A,@DPTR
        MOV     R2,A
        INC     DPTR
//  407     }
??zcl_registerPlugin_1:
        LCALL   ?Subroutine57 & 0xFFFF
??CrossCallReturnLabel_68:
        JNZ     ??zcl_registerPlugin_3
//  408 
//  409     // Put new item at end of list
//  410     pLoop->next = pNewItem;
//  411   }
??zcl_registerPlugin_2:
        LCALL   ?Subroutine44 & 0xFFFF
//  412 
//  413   return ( ZSuccess );
??CrossCallReturnLabel_49:
        LJMP    ?Subroutine2 & 0xFFFF
        CFI EndBlock cfiBlock3
//  414 }

        RSEG BANKED_CODE:CODE:NOROOT(0)
?Subroutine37:
        CFI Block cfiCond4 Using cfiCommon0
        CFI NoFunction
        CFI Conditional ??CrossCallReturnLabel_287
        CFI R6 load(1, XDATA, add(CFA_XSP16, literal(-14)))
        CFI VB load(1, XDATA, add(CFA_XSP16, literal(-13)))
        CFI V0 load(1, XDATA, add(CFA_XSP16, literal(-12)))
        CFI V1 load(1, XDATA, add(CFA_XSP16, literal(-11)))
        CFI V2 load(1, XDATA, add(CFA_XSP16, literal(-10)))
        CFI V3 load(1, XDATA, add(CFA_XSP16, literal(-9)))
        CFI V4 load(1, XDATA, add(CFA_XSP16, literal(-8)))
        CFI V5 load(1, XDATA, add(CFA_XSP16, literal(-7)))
        CFI R7 load(1, XDATA, add(CFA_XSP16, literal(-6)))
        CFI ?RET_LOW load(1, XDATA, add(CFA_XSP16, literal(-5)))
        CFI ?RET_HIGH load(1, XDATA, add(CFA_XSP16, literal(-4)))
        CFI ?BRET_EXT load(1, XDATA, add(CFA_XSP16, literal(-3)))
        CFI DPL0 load(1, XDATA, add(CFA_XSP16, literal(-2)))
        CFI DPH0 load(1, XDATA, add(CFA_XSP16, literal(-1)))
        CFI CFA_SP SP+0
        CFI CFA_XSP16 add(XSP16, 14)
        CFI Block cfiCond5 Using cfiCommon0
        CFI (cfiCond5) NoFunction
        CFI (cfiCond5) Conditional ??CrossCallReturnLabel_288
        CFI (cfiCond5) R6 load(1, XDATA, add(CFA_XSP16, literal(-12)))
        CFI (cfiCond5) VB load(1, XDATA, add(CFA_XSP16, literal(-11)))
        CFI (cfiCond5) V0 load(1, XDATA, add(CFA_XSP16, literal(-10)))
        CFI (cfiCond5) V1 load(1, XDATA, add(CFA_XSP16, literal(-9)))
        CFI (cfiCond5) V2 load(1, XDATA, add(CFA_XSP16, literal(-8)))
        CFI (cfiCond5) V3 load(1, XDATA, add(CFA_XSP16, literal(-7)))
        CFI (cfiCond5) R7 load(1, XDATA, add(CFA_XSP16, literal(-6)))
        CFI (cfiCond5) ?RET_LOW load(1, XDATA, add(CFA_XSP16, literal(-5)))
        CFI (cfiCond5) ?RET_HIGH load(1, XDATA, add(CFA_XSP16, literal(-4)))
        CFI (cfiCond5) ?BRET_EXT load(1, XDATA, add(CFA_XSP16, literal(-3)))
        CFI (cfiCond5) DPL0 load(1, XDATA, add(CFA_XSP16, literal(-2)))
        CFI (cfiCond5) DPH0 load(1, XDATA, add(CFA_XSP16, literal(-1)))
        CFI (cfiCond5) CFA_SP SP+0
        CFI (cfiCond5) CFA_XSP16 add(XSP16, 12)
        CFI Block cfiPicker6 Using cfiCommon1
        CFI (cfiPicker6) NoFunction
        CFI (cfiPicker6) Picker
        MOV     A,?V0 + 1
        CFI EndBlock cfiCond4
        CFI EndBlock cfiCond5
        CFI EndBlock cfiPicker6
        REQUIRE ??Subroutine207_0
        ; // Fall through to label ??Subroutine207_0

        RSEG BANKED_CODE:CODE:NOROOT(0)
??Subroutine207_0:
        CFI Block cfiCond7 Using cfiCommon0
        CFI NoFunction
        CFI Conditional ??CrossCallReturnLabel_289
        CFI R6 load(1, XDATA, add(CFA_XSP16, literal(-14)))
        CFI VB load(1, XDATA, add(CFA_XSP16, literal(-13)))
        CFI V0 load(1, XDATA, add(CFA_XSP16, literal(-12)))
        CFI V1 load(1, XDATA, add(CFA_XSP16, literal(-11)))
        CFI V2 load(1, XDATA, add(CFA_XSP16, literal(-10)))
        CFI V3 load(1, XDATA, add(CFA_XSP16, literal(-9)))
        CFI V4 load(1, XDATA, add(CFA_XSP16, literal(-8)))
        CFI V5 load(1, XDATA, add(CFA_XSP16, literal(-7)))
        CFI R7 load(1, XDATA, add(CFA_XSP16, literal(-6)))
        CFI ?RET_LOW load(1, XDATA, add(CFA_XSP16, literal(-5)))
        CFI ?RET_HIGH load(1, XDATA, add(CFA_XSP16, literal(-4)))
        CFI ?BRET_EXT load(1, XDATA, add(CFA_XSP16, literal(-3)))
        CFI DPL0 load(1, XDATA, add(CFA_XSP16, literal(-2)))
        CFI DPH0 load(1, XDATA, add(CFA_XSP16, literal(-1)))
        CFI CFA_SP SP+0
        CFI CFA_XSP16 add(XSP16, 14)
        CFI Block cfiCond8 Using cfiCommon0
        CFI (cfiCond8) NoFunction
        CFI (cfiCond8) Conditional ??CrossCallReturnLabel_287
        CFI (cfiCond8) R6 load(1, XDATA, add(CFA_XSP16, literal(-14)))
        CFI (cfiCond8) VB load(1, XDATA, add(CFA_XSP16, literal(-13)))
        CFI (cfiCond8) V0 load(1, XDATA, add(CFA_XSP16, literal(-12)))
        CFI (cfiCond8) V1 load(1, XDATA, add(CFA_XSP16, literal(-11)))
        CFI (cfiCond8) V2 load(1, XDATA, add(CFA_XSP16, literal(-10)))
        CFI (cfiCond8) V3 load(1, XDATA, add(CFA_XSP16, literal(-9)))
        CFI (cfiCond8) V4 load(1, XDATA, add(CFA_XSP16, literal(-8)))
        CFI (cfiCond8) V5 load(1, XDATA, add(CFA_XSP16, literal(-7)))
        CFI (cfiCond8) R7 load(1, XDATA, add(CFA_XSP16, literal(-6)))
        CFI (cfiCond8) ?RET_LOW load(1, XDATA, add(CFA_XSP16, literal(-5)))
        CFI (cfiCond8) ?RET_HIGH load(1, XDATA, add(CFA_XSP16, literal(-4)))
        CFI (cfiCond8) ?BRET_EXT load(1, XDATA, add(CFA_XSP16, literal(-3)))
        CFI (cfiCond8) DPL0 load(1, XDATA, add(CFA_XSP16, literal(-2)))
        CFI (cfiCond8) DPH0 load(1, XDATA, add(CFA_XSP16, literal(-1)))
        CFI (cfiCond8) CFA_SP SP+0
        CFI (cfiCond8) CFA_XSP16 add(XSP16, 14)
        CFI Block cfiCond9 Using cfiCommon0
        CFI (cfiCond9) NoFunction
        CFI (cfiCond9) Conditional ??CrossCallReturnLabel_288
        CFI (cfiCond9) R6 load(1, XDATA, add(CFA_XSP16, literal(-12)))
        CFI (cfiCond9) VB load(1, XDATA, add(CFA_XSP16, literal(-11)))
        CFI (cfiCond9) V0 load(1, XDATA, add(CFA_XSP16, literal(-10)))
        CFI (cfiCond9) V1 load(1, XDATA, add(CFA_XSP16, literal(-9)))
        CFI (cfiCond9) V2 load(1, XDATA, add(CFA_XSP16, literal(-8)))
        CFI (cfiCond9) V3 load(1, XDATA, add(CFA_XSP16, literal(-7)))
        CFI (cfiCond9) R7 load(1, XDATA, add(CFA_XSP16, literal(-6)))
        CFI (cfiCond9) ?RET_LOW load(1, XDATA, add(CFA_XSP16, literal(-5)))
        CFI (cfiCond9) ?RET_HIGH load(1, XDATA, add(CFA_XSP16, literal(-4)))
        CFI (cfiCond9) ?BRET_EXT load(1, XDATA, add(CFA_XSP16, literal(-3)))
        CFI (cfiCond9) DPL0 load(1, XDATA, add(CFA_XSP16, literal(-2)))
        CFI (cfiCond9) DPH0 load(1, XDATA, add(CFA_XSP16, literal(-1)))
        CFI (cfiCond9) CFA_SP SP+0
        CFI (cfiCond9) CFA_XSP16 add(XSP16, 12)
        CFI Block cfiPicker10 Using cfiCommon1
        CFI (cfiPicker10) NoFunction
        CFI (cfiPicker10) Picker
        LCALL   ?Subroutine160 & 0xFFFF
??CrossCallReturnLabel_290:
        RET
        CFI EndBlock cfiCond7
        CFI EndBlock cfiCond8
        CFI EndBlock cfiCond9
        CFI EndBlock cfiPicker10

        RSEG BANKED_CODE:CODE:NOROOT(0)
?Subroutine160:
        CFI Block cfiCond11 Using cfiCommon0
        CFI NoFunction
        CFI Conditional ??CrossCallReturnLabel_290, ??CrossCallReturnLabel_287
        CFI R6 load(1, XDATA, add(CFA_XSP16, literal(-14)))
        CFI VB load(1, XDATA, add(CFA_XSP16, literal(-13)))
        CFI V0 load(1, XDATA, add(CFA_XSP16, literal(-12)))
        CFI V1 load(1, XDATA, add(CFA_XSP16, literal(-11)))
        CFI V2 load(1, XDATA, add(CFA_XSP16, literal(-10)))
        CFI V3 load(1, XDATA, add(CFA_XSP16, literal(-9)))
        CFI V4 load(1, XDATA, add(CFA_XSP16, literal(-8)))
        CFI V5 load(1, XDATA, add(CFA_XSP16, literal(-7)))
        CFI R7 load(1, XDATA, add(CFA_XSP16, literal(-6)))
        CFI ?RET_LOW load(1, XDATA, add(CFA_XSP16, literal(-5)))
        CFI ?RET_HIGH load(1, XDATA, add(CFA_XSP16, literal(-4)))
        CFI ?BRET_EXT load(1, XDATA, add(CFA_XSP16, literal(-3)))
        CFI DPL0 load(1, XDATA, add(CFA_XSP16, literal(-2)))
        CFI DPH0 load(1, XDATA, add(CFA_XSP16, literal(-1)))
        CFI CFA_SP SP+0
        CFI CFA_XSP16 add(XSP16, 14)
        CFI Block cfiCond12 Using cfiCommon0
        CFI (cfiCond12) NoFunction
        CFI (cfiCond12) Conditional ??CrossCallReturnLabel_290, ??CrossCallReturnLabel_288
        CFI (cfiCond12) R6 load(1, XDATA, add(CFA_XSP16, literal(-12)))
        CFI (cfiCond12) VB load(1, XDATA, add(CFA_XSP16, literal(-11)))
        CFI (cfiCond12) V0 load(1, XDATA, add(CFA_XSP16, literal(-10)))
        CFI (cfiCond12) V1 load(1, XDATA, add(CFA_XSP16, literal(-9)))
        CFI (cfiCond12) V2 load(1, XDATA, add(CFA_XSP16, literal(-8)))
        CFI (cfiCond12) V3 load(1, XDATA, add(CFA_XSP16, literal(-7)))
        CFI (cfiCond12) R7 load(1, XDATA, add(CFA_XSP16, literal(-6)))
        CFI (cfiCond12) ?RET_LOW load(1, XDATA, add(CFA_XSP16, literal(-5)))
        CFI (cfiCond12) ?RET_HIGH load(1, XDATA, add(CFA_XSP16, literal(-4)))
        CFI (cfiCond12) ?BRET_EXT load(1, XDATA, add(CFA_XSP16, literal(-3)))
        CFI (cfiCond12) DPL0 load(1, XDATA, add(CFA_XSP16, literal(-2)))
        CFI (cfiCond12) DPH0 load(1, XDATA, add(CFA_XSP16, literal(-1)))
        CFI (cfiCond12) CFA_SP SP+0
        CFI (cfiCond12) CFA_XSP16 add(XSP16, 12)
        CFI Block cfiCond13 Using cfiCommon0
        CFI (cfiCond13) NoFunction
        CFI (cfiCond13) Conditional ??CrossCallReturnLabel_290, ??CrossCallReturnLabel_289
        CFI (cfiCond13) R6 load(1, XDATA, add(CFA_XSP16, literal(-14)))
        CFI (cfiCond13) VB load(1, XDATA, add(CFA_XSP16, literal(-13)))
        CFI (cfiCond13) V0 load(1, XDATA, add(CFA_XSP16, literal(-12)))
        CFI (cfiCond13) V1 load(1, XDATA, add(CFA_XSP16, literal(-11)))
        CFI (cfiCond13) V2 load(1, XDATA, add(CFA_XSP16, literal(-10)))
        CFI (cfiCond13) V3 load(1, XDATA, add(CFA_XSP16, literal(-9)))
        CFI (cfiCond13) V4 load(1, XDATA, add(CFA_XSP16, literal(-8)))
        CFI (cfiCond13) V5 load(1, XDATA, add(CFA_XSP16, literal(-7)))
        CFI (cfiCond13) R7 load(1, XDATA, add(CFA_XSP16, literal(-6)))
        CFI (cfiCond13) ?RET_LOW load(1, XDATA, add(CFA_XSP16, literal(-5)))
        CFI (cfiCond13) ?RET_HIGH load(1, XDATA, add(CFA_XSP16, literal(-4)))
        CFI (cfiCond13) ?BRET_EXT load(1, XDATA, add(CFA_XSP16, literal(-3)))
        CFI (cfiCond13) DPL0 load(1, XDATA, add(CFA_XSP16, literal(-2)))
        CFI (cfiCond13) DPH0 load(1, XDATA, add(CFA_XSP16, literal(-1)))
        CFI (cfiCond13) CFA_SP SP+0
        CFI (cfiCond13) CFA_XSP16 add(XSP16, 14)
        CFI Block cfiCond14 Using cfiCommon0
        CFI (cfiCond14) NoFunction
        CFI (cfiCond14) Conditional ??CrossCallReturnLabel_291, ??CrossCallReturnLabel_37
        CFI (cfiCond14) R6 load(1, XDATA, add(CFA_XSP16, literal(-12)))
        CFI (cfiCond14) VB load(1, XDATA, add(CFA_XSP16, literal(-11)))
        CFI (cfiCond14) V0 load(1, XDATA, add(CFA_XSP16, literal(-10)))
        CFI (cfiCond14) V1 load(1, XDATA, add(CFA_XSP16, literal(-9)))
        CFI (cfiCond14) V2 load(1, XDATA, add(CFA_XSP16, literal(-8)))
        CFI (cfiCond14) V3 load(1, XDATA, add(CFA_XSP16, literal(-7)))
        CFI (cfiCond14) R7 load(1, XDATA, add(CFA_XSP16, literal(-6)))
        CFI (cfiCond14) ?RET_LOW load(1, XDATA, add(CFA_XSP16, literal(-5)))
        CFI (cfiCond14) ?RET_HIGH load(1, XDATA, add(CFA_XSP16, literal(-4)))
        CFI (cfiCond14) ?BRET_EXT load(1, XDATA, add(CFA_XSP16, literal(-3)))
        CFI (cfiCond14) DPL0 load(1, XDATA, add(CFA_XSP16, literal(-2)))
        CFI (cfiCond14) DPH0 load(1, XDATA, add(CFA_XSP16, literal(-1)))
        CFI (cfiCond14) CFA_SP SP+0
        CFI (cfiCond14) CFA_XSP16 add(XSP16, 12)
        CFI Block cfiCond15 Using cfiCommon0
        CFI (cfiCond15) NoFunction
        CFI (cfiCond15) Conditional ??CrossCallReturnLabel_291, ??CrossCallReturnLabel_38
        CFI (cfiCond15) R6 load(1, XDATA, add(CFA_XSP16, literal(-12)))
        CFI (cfiCond15) VB load(1, XDATA, add(CFA_XSP16, literal(-11)))
        CFI (cfiCond15) V0 load(1, XDATA, add(CFA_XSP16, literal(-10)))
        CFI (cfiCond15) V1 load(1, XDATA, add(CFA_XSP16, literal(-9)))
        CFI (cfiCond15) V2 load(1, XDATA, add(CFA_XSP16, literal(-8)))
        CFI (cfiCond15) V3 load(1, XDATA, add(CFA_XSP16, literal(-7)))
        CFI (cfiCond15) R7 load(1, XDATA, add(CFA_XSP16, literal(-6)))
        CFI (cfiCond15) ?RET_LOW load(1, XDATA, add(CFA_XSP16, literal(-5)))
        CFI (cfiCond15) ?RET_HIGH load(1, XDATA, add(CFA_XSP16, literal(-4)))
        CFI (cfiCond15) ?BRET_EXT load(1, XDATA, add(CFA_XSP16, literal(-3)))
        CFI (cfiCond15) DPL0 load(1, XDATA, add(CFA_XSP16, literal(-2)))
        CFI (cfiCond15) DPH0 load(1, XDATA, add(CFA_XSP16, literal(-1)))
        CFI (cfiCond15) CFA_SP SP+0
        CFI (cfiCond15) CFA_XSP16 add(XSP16, 12)
        CFI Block cfiPicker16 Using cfiCommon1
        CFI (cfiPicker16) NoFunction
        CFI (cfiPicker16) Picker
        LCALL   ?Subroutine201 & 0xFFFF
??CrossCallReturnLabel_292:
        INC     DPTR
        INC     DPTR
        INC     DPTR
        RET
        CFI EndBlock cfiCond11
        CFI EndBlock cfiCond12
        CFI EndBlock cfiCond13
        CFI EndBlock cfiCond14
        CFI EndBlock cfiCond15
        CFI EndBlock cfiPicker16
//  415 
//  416 /*********************************************************************
//  417  * @fn          zcl_registerAttrList
//  418  *
//  419  * @brief       Register an Attribute List with ZCL Foundation
//  420  *
//  421  * @param       endpoint - endpoint the attribute list belongs to
//  422  * @param       numAttr - number of attributes in list
//  423  * @param       newAttrList - array of Attribute records.
//  424  *                            NOTE: THE ATTRIBUTE IDs (FOR A CLUSTER) MUST BE IN
//  425  *                            ASCENDING ORDER. OTHERWISE, THE DISCOVERY RESPONSE
//  426  *                            COMMAND WILL NOT HAVE THE RIGHT ATTRIBUTE INFO
//  427  *
//  428  * @return      ZSuccess if OK
//  429  */

        RSEG BANKED_CODE:CODE:NOROOT(0)
//  430 ZStatus_t zcl_registerAttrList( uint8 endpoint, uint8 numAttr, CONST zclAttrRec_t newAttrList[] )
zcl_registerAttrList:
        CFI Block cfiBlock17 Using cfiCommon0
        CFI Function zcl_registerAttrList
        CODE
//  431 {
        FUNCALL zcl_registerAttrList, osal_mem_alloc
        LOCFRAME ISTACK, 0, STACK
        LOCFRAME PSTACK, 0, STACK
        LOCFRAME XSTACK, 12, STACK
        LOCFRAME IOVERLAY, 0, STATIC
        LOCFRAME DOVERLAY, 0, STATIC
        ARGFRAME ISTACK, 0, STACK
        ARGFRAME PSTACK, 0, STACK
        ARGFRAME XSTACK, 12, STACK
        ARGFRAME IOVERLAY, 0, STATIC
        ARGFRAME DOVERLAY, 0, STATIC
        MOV     A,#-0xc
        LCALL   ?BANKED_ENTER_XDATA
        CFI DPH0 load(1, XDATA, add(CFA_XSP16, literal(-1)))
        CFI DPL0 load(1, XDATA, add(CFA_XSP16, literal(-2)))
        CFI ?BRET_EXT load(1, XDATA, add(CFA_XSP16, literal(-3)))
        CFI ?RET_HIGH load(1, XDATA, add(CFA_XSP16, literal(-4)))
        CFI ?RET_LOW load(1, XDATA, add(CFA_XSP16, literal(-5)))
        CFI R7 load(1, XDATA, add(CFA_XSP16, literal(-6)))
        CFI V3 load(1, XDATA, add(CFA_XSP16, literal(-7)))
        CFI V2 load(1, XDATA, add(CFA_XSP16, literal(-8)))
        CFI V1 load(1, XDATA, add(CFA_XSP16, literal(-9)))
        CFI V0 load(1, XDATA, add(CFA_XSP16, literal(-10)))
        CFI VB load(1, XDATA, add(CFA_XSP16, literal(-11)))
        CFI R6 load(1, XDATA, add(CFA_XSP16, literal(-12)))
        CFI CFA_SP SP+0
        CFI CFA_XSP16 add(XSP16, 12)
        ; Saved register size: 12
        ; Auto size: 0
        MOV     ?V0 + 0,R1
        MOV     ?V0 + 1,R2
        MOV     A,R4
        MOV     R6,A
        MOV     A,R5
        MOV     R7,A
//  432   zclAttrRecsList *pNewItem;
//  433   zclAttrRecsList *pLoop;
//  434 
//  435   // Fill in the new profile list
//  436   pNewItem = osal_mem_alloc( sizeof( zclAttrRecsList ) );
        ; Setup parameters for call to function osal_mem_alloc
        MOV     R2,#0xa
        LCALL   ?Subroutine120 & 0xFFFF
//  437   if ( pNewItem == NULL )
??CrossCallReturnLabel_180:
        JNZ     ??zcl_registerAttrList_0
//  438   {
//  439     return (ZMemError);
        MOV     R1,#0x10
        SJMP    ??CrossCallReturnLabel_50
//  440   }
//  441 
//  442   pNewItem->next = (zclAttrRecsList *)NULL;
??zcl_registerAttrList_0:
        LCALL   ?Subroutine24 & 0xFFFF
//  443   pNewItem->endpoint = endpoint;
//  444   pNewItem->pfnReadWriteCB = NULL;
??CrossCallReturnLabel_18:
        CLR     A
        MOVX    @DPTR,A
        INC     DPTR
        LCALL   ?Subroutine36 & 0xFFFF
//  445   pNewItem->numAttributes = numAttr;
??CrossCallReturnLabel_37:
        MOV     A,?V0 + 1
        LCALL   ?Subroutine36 & 0xFFFF
//  446   pNewItem->attrs = newAttrList;
??CrossCallReturnLabel_38:
        INC     DPTR
        MOV     A,R6
        MOVX    @DPTR,A
        INC     DPTR
        MOV     A,R7
        MOVX    @DPTR,A
//  447 
//  448   // Find spot in list
//  449   if ( attrList == NULL )
        MOV     DPTR,#attrList
        LCALL   ??Subroutine230_0 & 0xFFFF
??CrossCallReturnLabel_389:
        JNZ     ??zcl_registerAttrList_1
//  450   {
//  451     attrList = pNewItem;
        MOV     DPTR,#attrList
        SJMP    ??zcl_registerAttrList_2
//  452   }
//  453   else
//  454   {
//  455     // Look for end of list
//  456     pLoop = attrList;
//  457     while ( pLoop->next != NULL )
//  458     {
//  459       pLoop = pLoop->next;
??zcl_registerAttrList_3:
        MOVX    A,@DPTR
        MOV     R2,A
        INC     DPTR
//  460     }
??zcl_registerAttrList_1:
        LCALL   ?Subroutine57 & 0xFFFF
??CrossCallReturnLabel_69:
        JNZ     ??zcl_registerAttrList_3
//  461 
//  462     // Put new item at end of list
//  463     pLoop->next = pNewItem;
//  464   }
??zcl_registerAttrList_2:
        LCALL   ?Subroutine44 & 0xFFFF
//  465 
//  466   return ( ZSuccess );
??CrossCallReturnLabel_50:
        LJMP    ?Subroutine1 & 0xFFFF
        CFI EndBlock cfiBlock17
//  467 }

        RSEG BANKED_CODE:CODE:NOROOT(0)
?Subroutine57:
        CFI Block cfiCond18 Using cfiCommon0
        CFI NoFunction
        CFI Conditional ??CrossCallReturnLabel_68
        CFI R6 load(1, XDATA, add(CFA_XSP16, literal(-14)))
        CFI VB load(1, XDATA, add(CFA_XSP16, literal(-13)))
        CFI V0 load(1, XDATA, add(CFA_XSP16, literal(-12)))
        CFI V1 load(1, XDATA, add(CFA_XSP16, literal(-11)))
        CFI V2 load(1, XDATA, add(CFA_XSP16, literal(-10)))
        CFI V3 load(1, XDATA, add(CFA_XSP16, literal(-9)))
        CFI V4 load(1, XDATA, add(CFA_XSP16, literal(-8)))
        CFI V5 load(1, XDATA, add(CFA_XSP16, literal(-7)))
        CFI R7 load(1, XDATA, add(CFA_XSP16, literal(-6)))
        CFI ?RET_LOW load(1, XDATA, add(CFA_XSP16, literal(-5)))
        CFI ?RET_HIGH load(1, XDATA, add(CFA_XSP16, literal(-4)))
        CFI ?BRET_EXT load(1, XDATA, add(CFA_XSP16, literal(-3)))
        CFI DPL0 load(1, XDATA, add(CFA_XSP16, literal(-2)))
        CFI DPH0 load(1, XDATA, add(CFA_XSP16, literal(-1)))
        CFI CFA_SP SP+0
        CFI CFA_XSP16 add(XSP16, 14)
        CFI Block cfiCond19 Using cfiCommon0
        CFI (cfiCond19) NoFunction
        CFI (cfiCond19) Conditional ??CrossCallReturnLabel_69
        CFI (cfiCond19) R6 load(1, XDATA, add(CFA_XSP16, literal(-12)))
        CFI (cfiCond19) VB load(1, XDATA, add(CFA_XSP16, literal(-11)))
        CFI (cfiCond19) V0 load(1, XDATA, add(CFA_XSP16, literal(-10)))
        CFI (cfiCond19) V1 load(1, XDATA, add(CFA_XSP16, literal(-9)))
        CFI (cfiCond19) V2 load(1, XDATA, add(CFA_XSP16, literal(-8)))
        CFI (cfiCond19) V3 load(1, XDATA, add(CFA_XSP16, literal(-7)))
        CFI (cfiCond19) R7 load(1, XDATA, add(CFA_XSP16, literal(-6)))
        CFI (cfiCond19) ?RET_LOW load(1, XDATA, add(CFA_XSP16, literal(-5)))
        CFI (cfiCond19) ?RET_HIGH load(1, XDATA, add(CFA_XSP16, literal(-4)))
        CFI (cfiCond19) ?BRET_EXT load(1, XDATA, add(CFA_XSP16, literal(-3)))
        CFI (cfiCond19) DPL0 load(1, XDATA, add(CFA_XSP16, literal(-2)))
        CFI (cfiCond19) DPH0 load(1, XDATA, add(CFA_XSP16, literal(-1)))
        CFI (cfiCond19) CFA_SP SP+0
        CFI (cfiCond19) CFA_XSP16 add(XSP16, 12)
        CFI Block cfiCond20 Using cfiCommon0
        CFI (cfiCond20) NoFunction
        CFI (cfiCond20) Conditional ??CrossCallReturnLabel_70
        CFI (cfiCond20) R6 load(1, XDATA, add(CFA_XSP16, literal(-12)))
        CFI (cfiCond20) VB load(1, XDATA, add(CFA_XSP16, literal(-11)))
        CFI (cfiCond20) V0 load(1, XDATA, add(CFA_XSP16, literal(-10)))
        CFI (cfiCond20) V1 load(1, XDATA, add(CFA_XSP16, literal(-9)))
        CFI (cfiCond20) V2 load(1, XDATA, add(CFA_XSP16, literal(-8)))
        CFI (cfiCond20) V3 load(1, XDATA, add(CFA_XSP16, literal(-7)))
        CFI (cfiCond20) R7 load(1, XDATA, add(CFA_XSP16, literal(-6)))
        CFI (cfiCond20) ?RET_LOW load(1, XDATA, add(CFA_XSP16, literal(-5)))
        CFI (cfiCond20) ?RET_HIGH load(1, XDATA, add(CFA_XSP16, literal(-4)))
        CFI (cfiCond20) ?BRET_EXT load(1, XDATA, add(CFA_XSP16, literal(-3)))
        CFI (cfiCond20) DPL0 load(1, XDATA, add(CFA_XSP16, literal(-2)))
        CFI (cfiCond20) DPH0 load(1, XDATA, add(CFA_XSP16, literal(-1)))
        CFI (cfiCond20) CFA_SP SP+0
        CFI (cfiCond20) CFA_XSP16 add(XSP16, 12)
        CFI Block cfiPicker21 Using cfiCommon1
        CFI (cfiPicker21) NoFunction
        CFI (cfiPicker21) Picker
        MOVX    A,@DPTR
        MOV     R3,A
        MOV     DPL,R2
        MOV     DPH,R3
        LCALL   ??Subroutine236_0 & 0xFFFF
??CrossCallReturnLabel_429:
        MOV     A,R4
        ORL     A,R5
        MOV     DPL,R2
        MOV     DPH,R3
        RET
        CFI EndBlock cfiCond18
        CFI EndBlock cfiCond19
        CFI EndBlock cfiCond20
        CFI EndBlock cfiPicker21

        RSEG BANKED_CODE:CODE:NOROOT(0)
?Subroutine44:
        CFI Block cfiCond22 Using cfiCommon0
        CFI NoFunction
        CFI Conditional ??CrossCallReturnLabel_49
        CFI R6 load(1, XDATA, add(CFA_XSP16, literal(-14)))
        CFI VB load(1, XDATA, add(CFA_XSP16, literal(-13)))
        CFI V0 load(1, XDATA, add(CFA_XSP16, literal(-12)))
        CFI V1 load(1, XDATA, add(CFA_XSP16, literal(-11)))
        CFI V2 load(1, XDATA, add(CFA_XSP16, literal(-10)))
        CFI V3 load(1, XDATA, add(CFA_XSP16, literal(-9)))
        CFI V4 load(1, XDATA, add(CFA_XSP16, literal(-8)))
        CFI V5 load(1, XDATA, add(CFA_XSP16, literal(-7)))
        CFI R7 load(1, XDATA, add(CFA_XSP16, literal(-6)))
        CFI ?RET_LOW load(1, XDATA, add(CFA_XSP16, literal(-5)))
        CFI ?RET_HIGH load(1, XDATA, add(CFA_XSP16, literal(-4)))
        CFI ?BRET_EXT load(1, XDATA, add(CFA_XSP16, literal(-3)))
        CFI DPL0 load(1, XDATA, add(CFA_XSP16, literal(-2)))
        CFI DPH0 load(1, XDATA, add(CFA_XSP16, literal(-1)))
        CFI CFA_SP SP+0
        CFI CFA_XSP16 add(XSP16, 14)
        CFI Block cfiCond23 Using cfiCommon0
        CFI (cfiCond23) NoFunction
        CFI (cfiCond23) Conditional ??CrossCallReturnLabel_50
        CFI (cfiCond23) R6 load(1, XDATA, add(CFA_XSP16, literal(-12)))
        CFI (cfiCond23) VB load(1, XDATA, add(CFA_XSP16, literal(-11)))
        CFI (cfiCond23) V0 load(1, XDATA, add(CFA_XSP16, literal(-10)))
        CFI (cfiCond23) V1 load(1, XDATA, add(CFA_XSP16, literal(-9)))
        CFI (cfiCond23) V2 load(1, XDATA, add(CFA_XSP16, literal(-8)))
        CFI (cfiCond23) V3 load(1, XDATA, add(CFA_XSP16, literal(-7)))
        CFI (cfiCond23) R7 load(1, XDATA, add(CFA_XSP16, literal(-6)))
        CFI (cfiCond23) ?RET_LOW load(1, XDATA, add(CFA_XSP16, literal(-5)))
        CFI (cfiCond23) ?RET_HIGH load(1, XDATA, add(CFA_XSP16, literal(-4)))
        CFI (cfiCond23) ?BRET_EXT load(1, XDATA, add(CFA_XSP16, literal(-3)))
        CFI (cfiCond23) DPL0 load(1, XDATA, add(CFA_XSP16, literal(-2)))
        CFI (cfiCond23) DPH0 load(1, XDATA, add(CFA_XSP16, literal(-1)))
        CFI (cfiCond23) CFA_SP SP+0
        CFI (cfiCond23) CFA_XSP16 add(XSP16, 12)
        CFI Block cfiCond24 Using cfiCommon0
        CFI (cfiCond24) NoFunction
        CFI (cfiCond24) Conditional ??CrossCallReturnLabel_51
        CFI (cfiCond24) R6 load(1, XDATA, add(CFA_XSP16, literal(-12)))
        CFI (cfiCond24) VB load(1, XDATA, add(CFA_XSP16, literal(-11)))
        CFI (cfiCond24) V0 load(1, XDATA, add(CFA_XSP16, literal(-10)))
        CFI (cfiCond24) V1 load(1, XDATA, add(CFA_XSP16, literal(-9)))
        CFI (cfiCond24) V2 load(1, XDATA, add(CFA_XSP16, literal(-8)))
        CFI (cfiCond24) V3 load(1, XDATA, add(CFA_XSP16, literal(-7)))
        CFI (cfiCond24) R7 load(1, XDATA, add(CFA_XSP16, literal(-6)))
        CFI (cfiCond24) ?RET_LOW load(1, XDATA, add(CFA_XSP16, literal(-5)))
        CFI (cfiCond24) ?RET_HIGH load(1, XDATA, add(CFA_XSP16, literal(-4)))
        CFI (cfiCond24) ?BRET_EXT load(1, XDATA, add(CFA_XSP16, literal(-3)))
        CFI (cfiCond24) DPL0 load(1, XDATA, add(CFA_XSP16, literal(-2)))
        CFI (cfiCond24) DPH0 load(1, XDATA, add(CFA_XSP16, literal(-1)))
        CFI (cfiCond24) CFA_SP SP+0
        CFI (cfiCond24) CFA_XSP16 add(XSP16, 12)
        CFI Block cfiPicker25 Using cfiCommon1
        CFI (cfiPicker25) NoFunction
        CFI (cfiPicker25) Picker
        MOV     A,R0
        MOVX    @DPTR,A
        INC     DPTR
        MOV     A,R1
        MOVX    @DPTR,A
        MOV     R1,#0x0
        RET
        CFI EndBlock cfiCond22
        CFI EndBlock cfiCond23
        CFI EndBlock cfiCond24
        CFI EndBlock cfiPicker25

        RSEG BANKED_CODE:CODE:NOROOT(0)
?Subroutine36:
        CFI Block cfiCond26 Using cfiCommon0
        CFI NoFunction
        CFI Conditional ??CrossCallReturnLabel_37
        CFI R6 load(1, XDATA, add(CFA_XSP16, literal(-12)))
        CFI VB load(1, XDATA, add(CFA_XSP16, literal(-11)))
        CFI V0 load(1, XDATA, add(CFA_XSP16, literal(-10)))
        CFI V1 load(1, XDATA, add(CFA_XSP16, literal(-9)))
        CFI V2 load(1, XDATA, add(CFA_XSP16, literal(-8)))
        CFI V3 load(1, XDATA, add(CFA_XSP16, literal(-7)))
        CFI R7 load(1, XDATA, add(CFA_XSP16, literal(-6)))
        CFI ?RET_LOW load(1, XDATA, add(CFA_XSP16, literal(-5)))
        CFI ?RET_HIGH load(1, XDATA, add(CFA_XSP16, literal(-4)))
        CFI ?BRET_EXT load(1, XDATA, add(CFA_XSP16, literal(-3)))
        CFI DPL0 load(1, XDATA, add(CFA_XSP16, literal(-2)))
        CFI DPH0 load(1, XDATA, add(CFA_XSP16, literal(-1)))
        CFI CFA_SP SP+0
        CFI CFA_XSP16 add(XSP16, 12)
        CFI Block cfiCond27 Using cfiCommon0
        CFI (cfiCond27) NoFunction
        CFI (cfiCond27) Conditional ??CrossCallReturnLabel_38
        CFI (cfiCond27) R6 load(1, XDATA, add(CFA_XSP16, literal(-12)))
        CFI (cfiCond27) VB load(1, XDATA, add(CFA_XSP16, literal(-11)))
        CFI (cfiCond27) V0 load(1, XDATA, add(CFA_XSP16, literal(-10)))
        CFI (cfiCond27) V1 load(1, XDATA, add(CFA_XSP16, literal(-9)))
        CFI (cfiCond27) V2 load(1, XDATA, add(CFA_XSP16, literal(-8)))
        CFI (cfiCond27) V3 load(1, XDATA, add(CFA_XSP16, literal(-7)))
        CFI (cfiCond27) R7 load(1, XDATA, add(CFA_XSP16, literal(-6)))
        CFI (cfiCond27) ?RET_LOW load(1, XDATA, add(CFA_XSP16, literal(-5)))
        CFI (cfiCond27) ?RET_HIGH load(1, XDATA, add(CFA_XSP16, literal(-4)))
        CFI (cfiCond27) ?BRET_EXT load(1, XDATA, add(CFA_XSP16, literal(-3)))
        CFI (cfiCond27) DPL0 load(1, XDATA, add(CFA_XSP16, literal(-2)))
        CFI (cfiCond27) DPH0 load(1, XDATA, add(CFA_XSP16, literal(-1)))
        CFI (cfiCond27) CFA_SP SP+0
        CFI (cfiCond27) CFA_XSP16 add(XSP16, 12)
        CFI Block cfiPicker28 Using cfiCommon1
        CFI (cfiPicker28) NoFunction
        CFI (cfiPicker28) Picker
        LCALL   ?Subroutine160 & 0xFFFF
??CrossCallReturnLabel_291:
        INC     DPTR
        INC     DPTR
        INC     DPTR
        RET
        CFI EndBlock cfiCond26
        CFI EndBlock cfiCond27
        CFI EndBlock cfiPicker28
//  468 
//  469 /*********************************************************************
//  470  * @fn          zcl_registerClusterOptionList
//  471  *
//  472  * @brief       Register a Cluster Option List with ZCL Foundation
//  473  *
//  474  * @param       endpoint - endpoint the option list belongs to
//  475  * @param       numOption - number of options in list
//  476  * @param       optionList - array of cluster option records.
//  477  *
//  478  *              NOTE: This API should be called to enable 'Application
//  479  *                    Link Key' security and/or 'APS ACK' for a specific
//  480  *                    Cluster. The 'Application Link Key' is discarded
//  481  *                    if security isn't enabled on the device.
//  482  *                    The default behavior is 'Network Key' when security
//  483  *                    is enabled and no 'APS ACK' for the ZCL messages.
//  484  *
//  485  * @return      ZSuccess if OK
//  486  */

        RSEG BANKED_CODE:CODE:NOROOT(0)
//  487 ZStatus_t zcl_registerClusterOptionList( uint8 endpoint, uint8 numOption, zclOptionRec_t optionList[] )
zcl_registerClusterOptionList:
        CFI Block cfiBlock29 Using cfiCommon0
        CFI Function zcl_registerClusterOptionList
        CODE
//  488 {
        FUNCALL zcl_registerClusterOptionList, osal_mem_alloc
        LOCFRAME ISTACK, 0, STACK
        LOCFRAME PSTACK, 0, STACK
        LOCFRAME XSTACK, 12, STACK
        LOCFRAME IOVERLAY, 0, STATIC
        LOCFRAME DOVERLAY, 0, STATIC
        ARGFRAME ISTACK, 0, STACK
        ARGFRAME PSTACK, 0, STACK
        ARGFRAME XSTACK, 12, STACK
        ARGFRAME IOVERLAY, 0, STATIC
        ARGFRAME DOVERLAY, 0, STATIC
        MOV     A,#-0xc
        LCALL   ?BANKED_ENTER_XDATA
        CFI DPH0 load(1, XDATA, add(CFA_XSP16, literal(-1)))
        CFI DPL0 load(1, XDATA, add(CFA_XSP16, literal(-2)))
        CFI ?BRET_EXT load(1, XDATA, add(CFA_XSP16, literal(-3)))
        CFI ?RET_HIGH load(1, XDATA, add(CFA_XSP16, literal(-4)))
        CFI ?RET_LOW load(1, XDATA, add(CFA_XSP16, literal(-5)))
        CFI R7 load(1, XDATA, add(CFA_XSP16, literal(-6)))
        CFI V3 load(1, XDATA, add(CFA_XSP16, literal(-7)))
        CFI V2 load(1, XDATA, add(CFA_XSP16, literal(-8)))
        CFI V1 load(1, XDATA, add(CFA_XSP16, literal(-9)))
        CFI V0 load(1, XDATA, add(CFA_XSP16, literal(-10)))
        CFI VB load(1, XDATA, add(CFA_XSP16, literal(-11)))
        CFI R6 load(1, XDATA, add(CFA_XSP16, literal(-12)))
        CFI CFA_SP SP+0
        CFI CFA_XSP16 add(XSP16, 12)
        ; Saved register size: 12
        ; Auto size: 0
        MOV     ?V0 + 0,R1
        MOV     ?V0 + 1,R2
        MOV     A,R4
        MOV     R6,A
        MOV     A,R5
        MOV     R7,A
//  489   zclClusterOptionList *pNewItem;
//  490   zclClusterOptionList *pLoop;
//  491 
//  492   // Fill in the new profile list
//  493   pNewItem = osal_mem_alloc( sizeof( zclClusterOptionList ) );
        ; Setup parameters for call to function osal_mem_alloc
        MOV     R2,#0x6
        LCALL   ?Subroutine120 & 0xFFFF
//  494   if ( pNewItem == NULL )
??CrossCallReturnLabel_181:
        JNZ     ??zcl_registerClusterOptionList_0
//  495   {
//  496     return (ZMemError);
        MOV     R1,#0x10
        SJMP    ??CrossCallReturnLabel_51
//  497   }
//  498 
//  499   pNewItem->next = (zclClusterOptionList *)NULL;
??zcl_registerClusterOptionList_0:
        LCALL   ?Subroutine24 & 0xFFFF
//  500   pNewItem->endpoint = endpoint;
//  501   pNewItem->numOptions = numOption;
??CrossCallReturnLabel_19:
        LCALL   ?Subroutine37 & 0xFFFF
//  502   pNewItem->options = optionList;
??CrossCallReturnLabel_288:
        MOV     A,R6
        MOVX    @DPTR,A
        INC     DPTR
        MOV     A,R7
        MOVX    @DPTR,A
//  503 
//  504   // Find spot in list
//  505   if ( clusterOptionList == NULL )
        MOV     DPTR,#clusterOptionList
        LCALL   ??Subroutine230_0 & 0xFFFF
??CrossCallReturnLabel_390:
        JNZ     ??zcl_registerClusterOptionList_1
//  506   {
//  507     clusterOptionList = pNewItem;
        MOV     DPTR,#clusterOptionList
        SJMP    ??zcl_registerClusterOptionList_2
//  508   }
//  509   else
//  510   {
//  511     // Look for end of list
//  512     pLoop = clusterOptionList;
//  513     while ( pLoop->next != NULL )
//  514     {
//  515       pLoop = pLoop->next;
??zcl_registerClusterOptionList_3:
        MOVX    A,@DPTR
        MOV     R2,A
        INC     DPTR
//  516     }
??zcl_registerClusterOptionList_1:
        LCALL   ?Subroutine57 & 0xFFFF
??CrossCallReturnLabel_70:
        JNZ     ??zcl_registerClusterOptionList_3
//  517 
//  518     // Put new item at end of list
//  519     pLoop->next = pNewItem;
//  520   }
??zcl_registerClusterOptionList_2:
        LCALL   ?Subroutine44 & 0xFFFF
//  521 
//  522   return ( ZSuccess );
??CrossCallReturnLabel_51:
        LJMP    ?Subroutine1 & 0xFFFF
        CFI EndBlock cfiBlock29
//  523 }

        RSEG BANKED_CODE:CODE:NOROOT(0)
?Subroutine120:
        CFI Block cfiCond30 Using cfiCommon0
        CFI NoFunction
        CFI Conditional ??CrossCallReturnLabel_180
        CFI R6 load(1, XDATA, add(CFA_XSP16, literal(-12)))
        CFI VB load(1, XDATA, add(CFA_XSP16, literal(-11)))
        CFI V0 load(1, XDATA, add(CFA_XSP16, literal(-10)))
        CFI V1 load(1, XDATA, add(CFA_XSP16, literal(-9)))
        CFI V2 load(1, XDATA, add(CFA_XSP16, literal(-8)))
        CFI V3 load(1, XDATA, add(CFA_XSP16, literal(-7)))
        CFI R7 load(1, XDATA, add(CFA_XSP16, literal(-6)))
        CFI ?RET_LOW load(1, XDATA, add(CFA_XSP16, literal(-5)))
        CFI ?RET_HIGH load(1, XDATA, add(CFA_XSP16, literal(-4)))
        CFI ?BRET_EXT load(1, XDATA, add(CFA_XSP16, literal(-3)))
        CFI DPL0 load(1, XDATA, add(CFA_XSP16, literal(-2)))
        CFI DPH0 load(1, XDATA, add(CFA_XSP16, literal(-1)))
        CFI CFA_SP SP+0
        CFI CFA_XSP16 add(XSP16, 12)
        CFI Block cfiCond31 Using cfiCommon0
        CFI (cfiCond31) NoFunction
        CFI (cfiCond31) Conditional ??CrossCallReturnLabel_181
        CFI (cfiCond31) R6 load(1, XDATA, add(CFA_XSP16, literal(-12)))
        CFI (cfiCond31) VB load(1, XDATA, add(CFA_XSP16, literal(-11)))
        CFI (cfiCond31) V0 load(1, XDATA, add(CFA_XSP16, literal(-10)))
        CFI (cfiCond31) V1 load(1, XDATA, add(CFA_XSP16, literal(-9)))
        CFI (cfiCond31) V2 load(1, XDATA, add(CFA_XSP16, literal(-8)))
        CFI (cfiCond31) V3 load(1, XDATA, add(CFA_XSP16, literal(-7)))
        CFI (cfiCond31) R7 load(1, XDATA, add(CFA_XSP16, literal(-6)))
        CFI (cfiCond31) ?RET_LOW load(1, XDATA, add(CFA_XSP16, literal(-5)))
        CFI (cfiCond31) ?RET_HIGH load(1, XDATA, add(CFA_XSP16, literal(-4)))
        CFI (cfiCond31) ?BRET_EXT load(1, XDATA, add(CFA_XSP16, literal(-3)))
        CFI (cfiCond31) DPL0 load(1, XDATA, add(CFA_XSP16, literal(-2)))
        CFI (cfiCond31) DPH0 load(1, XDATA, add(CFA_XSP16, literal(-1)))
        CFI (cfiCond31) CFA_SP SP+0
        CFI (cfiCond31) CFA_XSP16 add(XSP16, 12)
        CFI Block cfiPicker32 Using cfiCommon1
        CFI (cfiPicker32) NoFunction
        CFI (cfiPicker32) Picker
        MOV     R3,#0x0
        LCALL   ??osal_mem_alloc?relay
        MOV     ?V0 + 2,R2
        MOV     ?V0 + 3,R3
        MOV     R0,?V0 + 2
        MOV     R1,?V0 + 3
        MOV     A,R0
        ORL     A,R1
        RET
        CFI EndBlock cfiCond30
        CFI EndBlock cfiCond31
        CFI EndBlock cfiPicker32

        RSEG BANKED_CODE:CODE:NOROOT(0)
?Subroutine24:
        CFI Block cfiCond33 Using cfiCommon0
        CFI NoFunction
        CFI Conditional ??CrossCallReturnLabel_18
        CFI R6 load(1, XDATA, add(CFA_XSP16, literal(-12)))
        CFI VB load(1, XDATA, add(CFA_XSP16, literal(-11)))
        CFI V0 load(1, XDATA, add(CFA_XSP16, literal(-10)))
        CFI V1 load(1, XDATA, add(CFA_XSP16, literal(-9)))
        CFI V2 load(1, XDATA, add(CFA_XSP16, literal(-8)))
        CFI V3 load(1, XDATA, add(CFA_XSP16, literal(-7)))
        CFI R7 load(1, XDATA, add(CFA_XSP16, literal(-6)))
        CFI ?RET_LOW load(1, XDATA, add(CFA_XSP16, literal(-5)))
        CFI ?RET_HIGH load(1, XDATA, add(CFA_XSP16, literal(-4)))
        CFI ?BRET_EXT load(1, XDATA, add(CFA_XSP16, literal(-3)))
        CFI DPL0 load(1, XDATA, add(CFA_XSP16, literal(-2)))
        CFI DPH0 load(1, XDATA, add(CFA_XSP16, literal(-1)))
        CFI CFA_SP SP+0
        CFI CFA_XSP16 add(XSP16, 12)
        CFI Block cfiCond34 Using cfiCommon0
        CFI (cfiCond34) NoFunction
        CFI (cfiCond34) Conditional ??CrossCallReturnLabel_19
        CFI (cfiCond34) R6 load(1, XDATA, add(CFA_XSP16, literal(-12)))
        CFI (cfiCond34) VB load(1, XDATA, add(CFA_XSP16, literal(-11)))
        CFI (cfiCond34) V0 load(1, XDATA, add(CFA_XSP16, literal(-10)))
        CFI (cfiCond34) V1 load(1, XDATA, add(CFA_XSP16, literal(-9)))
        CFI (cfiCond34) V2 load(1, XDATA, add(CFA_XSP16, literal(-8)))
        CFI (cfiCond34) V3 load(1, XDATA, add(CFA_XSP16, literal(-7)))
        CFI (cfiCond34) R7 load(1, XDATA, add(CFA_XSP16, literal(-6)))
        CFI (cfiCond34) ?RET_LOW load(1, XDATA, add(CFA_XSP16, literal(-5)))
        CFI (cfiCond34) ?RET_HIGH load(1, XDATA, add(CFA_XSP16, literal(-4)))
        CFI (cfiCond34) ?BRET_EXT load(1, XDATA, add(CFA_XSP16, literal(-3)))
        CFI (cfiCond34) DPL0 load(1, XDATA, add(CFA_XSP16, literal(-2)))
        CFI (cfiCond34) DPH0 load(1, XDATA, add(CFA_XSP16, literal(-1)))
        CFI (cfiCond34) CFA_SP SP+0
        CFI (cfiCond34) CFA_XSP16 add(XSP16, 12)
        CFI Block cfiPicker35 Using cfiCommon1
        CFI (cfiPicker35) NoFunction
        CFI (cfiPicker35) Picker
        LCALL   ?Subroutine155 & 0xFFFF
??CrossCallReturnLabel_231:
        MOV     DPL,R0
        MOV     DPH,R1
        INC     DPTR
        INC     DPTR
        INC     DPTR
        RET
        CFI EndBlock cfiCond33
        CFI EndBlock cfiCond34
        CFI EndBlock cfiPicker35

        RSEG BANKED_CODE:CODE:NOROOT(0)
?Subroutine155:
        CFI Block cfiCond36 Using cfiCommon0
        CFI NoFunction
        CFI Conditional ??CrossCallReturnLabel_230
        CFI R6 load(1, XDATA, add(CFA_XSP16, literal(-14)))
        CFI VB load(1, XDATA, add(CFA_XSP16, literal(-13)))
        CFI V0 load(1, XDATA, add(CFA_XSP16, literal(-12)))
        CFI V1 load(1, XDATA, add(CFA_XSP16, literal(-11)))
        CFI V2 load(1, XDATA, add(CFA_XSP16, literal(-10)))
        CFI V3 load(1, XDATA, add(CFA_XSP16, literal(-9)))
        CFI V4 load(1, XDATA, add(CFA_XSP16, literal(-8)))
        CFI V5 load(1, XDATA, add(CFA_XSP16, literal(-7)))
        CFI R7 load(1, XDATA, add(CFA_XSP16, literal(-6)))
        CFI ?RET_LOW load(1, XDATA, add(CFA_XSP16, literal(-5)))
        CFI ?RET_HIGH load(1, XDATA, add(CFA_XSP16, literal(-4)))
        CFI ?BRET_EXT load(1, XDATA, add(CFA_XSP16, literal(-3)))
        CFI DPL0 load(1, XDATA, add(CFA_XSP16, literal(-2)))
        CFI DPH0 load(1, XDATA, add(CFA_XSP16, literal(-1)))
        CFI CFA_SP SP+0
        CFI CFA_XSP16 add(XSP16, 14)
        CFI Block cfiCond37 Using cfiCommon0
        CFI (cfiCond37) NoFunction
        CFI (cfiCond37) Conditional ??CrossCallReturnLabel_231, ??CrossCallReturnLabel_18
        CFI (cfiCond37) R6 load(1, XDATA, add(CFA_XSP16, literal(-12)))
        CFI (cfiCond37) VB load(1, XDATA, add(CFA_XSP16, literal(-11)))
        CFI (cfiCond37) V0 load(1, XDATA, add(CFA_XSP16, literal(-10)))
        CFI (cfiCond37) V1 load(1, XDATA, add(CFA_XSP16, literal(-9)))
        CFI (cfiCond37) V2 load(1, XDATA, add(CFA_XSP16, literal(-8)))
        CFI (cfiCond37) V3 load(1, XDATA, add(CFA_XSP16, literal(-7)))
        CFI (cfiCond37) R7 load(1, XDATA, add(CFA_XSP16, literal(-6)))
        CFI (cfiCond37) ?RET_LOW load(1, XDATA, add(CFA_XSP16, literal(-5)))
        CFI (cfiCond37) ?RET_HIGH load(1, XDATA, add(CFA_XSP16, literal(-4)))
        CFI (cfiCond37) ?BRET_EXT load(1, XDATA, add(CFA_XSP16, literal(-3)))
        CFI (cfiCond37) DPL0 load(1, XDATA, add(CFA_XSP16, literal(-2)))
        CFI (cfiCond37) DPH0 load(1, XDATA, add(CFA_XSP16, literal(-1)))
        CFI (cfiCond37) CFA_SP SP+0
        CFI (cfiCond37) CFA_XSP16 add(XSP16, 12)
        CFI Block cfiCond38 Using cfiCommon0
        CFI (cfiCond38) NoFunction
        CFI (cfiCond38) Conditional ??CrossCallReturnLabel_231, ??CrossCallReturnLabel_19
        CFI (cfiCond38) R6 load(1, XDATA, add(CFA_XSP16, literal(-12)))
        CFI (cfiCond38) VB load(1, XDATA, add(CFA_XSP16, literal(-11)))
        CFI (cfiCond38) V0 load(1, XDATA, add(CFA_XSP16, literal(-10)))
        CFI (cfiCond38) V1 load(1, XDATA, add(CFA_XSP16, literal(-9)))
        CFI (cfiCond38) V2 load(1, XDATA, add(CFA_XSP16, literal(-8)))
        CFI (cfiCond38) V3 load(1, XDATA, add(CFA_XSP16, literal(-7)))
        CFI (cfiCond38) R7 load(1, XDATA, add(CFA_XSP16, literal(-6)))
        CFI (cfiCond38) ?RET_LOW load(1, XDATA, add(CFA_XSP16, literal(-5)))
        CFI (cfiCond38) ?RET_HIGH load(1, XDATA, add(CFA_XSP16, literal(-4)))
        CFI (cfiCond38) ?BRET_EXT load(1, XDATA, add(CFA_XSP16, literal(-3)))
        CFI (cfiCond38) DPL0 load(1, XDATA, add(CFA_XSP16, literal(-2)))
        CFI (cfiCond38) DPH0 load(1, XDATA, add(CFA_XSP16, literal(-1)))
        CFI (cfiCond38) CFA_SP SP+0
        CFI (cfiCond38) CFA_XSP16 add(XSP16, 12)
        CFI Block cfiPicker39 Using cfiCommon1
        CFI (cfiPicker39) NoFunction
        CFI (cfiPicker39) Picker
        MOV     DPL,R0
        MOV     DPH,R1
        CLR     A
        MOVX    @DPTR,A
        INC     DPTR
        LCALL   ?Subroutine201 & 0xFFFF
??CrossCallReturnLabel_293:
        INC     DPTR
        MOV     A,?V0 + 0
        MOVX    @DPTR,A
        RET
        CFI EndBlock cfiCond36
        CFI EndBlock cfiCond37
        CFI EndBlock cfiCond38
        CFI EndBlock cfiPicker39

        RSEG BANKED_CODE:CODE:NOROOT(0)
?Subroutine201:
        CFI Block cfiCond40 Using cfiCommon0
        CFI NoFunction
        CFI Conditional ??CrossCallReturnLabel_292, ??CrossCallReturnLabel_290, ??CrossCallReturnLabel_287
        CFI R6 load(1, XDATA, add(CFA_XSP16, literal(-14)))
        CFI VB load(1, XDATA, add(CFA_XSP16, literal(-13)))
        CFI V0 load(1, XDATA, add(CFA_XSP16, literal(-12)))
        CFI V1 load(1, XDATA, add(CFA_XSP16, literal(-11)))
        CFI V2 load(1, XDATA, add(CFA_XSP16, literal(-10)))
        CFI V3 load(1, XDATA, add(CFA_XSP16, literal(-9)))
        CFI V4 load(1, XDATA, add(CFA_XSP16, literal(-8)))
        CFI V5 load(1, XDATA, add(CFA_XSP16, literal(-7)))
        CFI R7 load(1, XDATA, add(CFA_XSP16, literal(-6)))
        CFI ?RET_LOW load(1, XDATA, add(CFA_XSP16, literal(-5)))
        CFI ?RET_HIGH load(1, XDATA, add(CFA_XSP16, literal(-4)))
        CFI ?BRET_EXT load(1, XDATA, add(CFA_XSP16, literal(-3)))
        CFI DPL0 load(1, XDATA, add(CFA_XSP16, literal(-2)))
        CFI DPH0 load(1, XDATA, add(CFA_XSP16, literal(-1)))
        CFI CFA_SP SP+0
        CFI CFA_XSP16 add(XSP16, 14)
        CFI Block cfiCond41 Using cfiCommon0
        CFI (cfiCond41) NoFunction
        CFI (cfiCond41) Conditional ??CrossCallReturnLabel_292, ??CrossCallReturnLabel_290, ??CrossCallReturnLabel_288
        CFI (cfiCond41) R6 load(1, XDATA, add(CFA_XSP16, literal(-12)))
        CFI (cfiCond41) VB load(1, XDATA, add(CFA_XSP16, literal(-11)))
        CFI (cfiCond41) V0 load(1, XDATA, add(CFA_XSP16, literal(-10)))
        CFI (cfiCond41) V1 load(1, XDATA, add(CFA_XSP16, literal(-9)))
        CFI (cfiCond41) V2 load(1, XDATA, add(CFA_XSP16, literal(-8)))
        CFI (cfiCond41) V3 load(1, XDATA, add(CFA_XSP16, literal(-7)))
        CFI (cfiCond41) R7 load(1, XDATA, add(CFA_XSP16, literal(-6)))
        CFI (cfiCond41) ?RET_LOW load(1, XDATA, add(CFA_XSP16, literal(-5)))
        CFI (cfiCond41) ?RET_HIGH load(1, XDATA, add(CFA_XSP16, literal(-4)))
        CFI (cfiCond41) ?BRET_EXT load(1, XDATA, add(CFA_XSP16, literal(-3)))
        CFI (cfiCond41) DPL0 load(1, XDATA, add(CFA_XSP16, literal(-2)))
        CFI (cfiCond41) DPH0 load(1, XDATA, add(CFA_XSP16, literal(-1)))
        CFI (cfiCond41) CFA_SP SP+0
        CFI (cfiCond41) CFA_XSP16 add(XSP16, 12)
        CFI Block cfiCond42 Using cfiCommon0
        CFI (cfiCond42) NoFunction
        CFI (cfiCond42) Conditional ??CrossCallReturnLabel_292, ??CrossCallReturnLabel_290, ??CrossCallReturnLabel_289
        CFI (cfiCond42) R6 load(1, XDATA, add(CFA_XSP16, literal(-14)))
        CFI (cfiCond42) VB load(1, XDATA, add(CFA_XSP16, literal(-13)))
        CFI (cfiCond42) V0 load(1, XDATA, add(CFA_XSP16, literal(-12)))
        CFI (cfiCond42) V1 load(1, XDATA, add(CFA_XSP16, literal(-11)))
        CFI (cfiCond42) V2 load(1, XDATA, add(CFA_XSP16, literal(-10)))
        CFI (cfiCond42) V3 load(1, XDATA, add(CFA_XSP16, literal(-9)))
        CFI (cfiCond42) V4 load(1, XDATA, add(CFA_XSP16, literal(-8)))
        CFI (cfiCond42) V5 load(1, XDATA, add(CFA_XSP16, literal(-7)))
        CFI (cfiCond42) R7 load(1, XDATA, add(CFA_XSP16, literal(-6)))
        CFI (cfiCond42) ?RET_LOW load(1, XDATA, add(CFA_XSP16, literal(-5)))
        CFI (cfiCond42) ?RET_HIGH load(1, XDATA, add(CFA_XSP16, literal(-4)))
        CFI (cfiCond42) ?BRET_EXT load(1, XDATA, add(CFA_XSP16, literal(-3)))
        CFI (cfiCond42) DPL0 load(1, XDATA, add(CFA_XSP16, literal(-2)))
        CFI (cfiCond42) DPH0 load(1, XDATA, add(CFA_XSP16, literal(-1)))
        CFI (cfiCond42) CFA_SP SP+0
        CFI (cfiCond42) CFA_XSP16 add(XSP16, 14)
        CFI Block cfiCond43 Using cfiCommon0
        CFI (cfiCond43) NoFunction
        CFI (cfiCond43) Conditional ??CrossCallReturnLabel_292, ??CrossCallReturnLabel_291, ??CrossCallReturnLabel_37
        CFI (cfiCond43) R6 load(1, XDATA, add(CFA_XSP16, literal(-12)))
        CFI (cfiCond43) VB load(1, XDATA, add(CFA_XSP16, literal(-11)))
        CFI (cfiCond43) V0 load(1, XDATA, add(CFA_XSP16, literal(-10)))
        CFI (cfiCond43) V1 load(1, XDATA, add(CFA_XSP16, literal(-9)))
        CFI (cfiCond43) V2 load(1, XDATA, add(CFA_XSP16, literal(-8)))
        CFI (cfiCond43) V3 load(1, XDATA, add(CFA_XSP16, literal(-7)))
        CFI (cfiCond43) R7 load(1, XDATA, add(CFA_XSP16, literal(-6)))
        CFI (cfiCond43) ?RET_LOW load(1, XDATA, add(CFA_XSP16, literal(-5)))
        CFI (cfiCond43) ?RET_HIGH load(1, XDATA, add(CFA_XSP16, literal(-4)))
        CFI (cfiCond43) ?BRET_EXT load(1, XDATA, add(CFA_XSP16, literal(-3)))
        CFI (cfiCond43) DPL0 load(1, XDATA, add(CFA_XSP16, literal(-2)))
        CFI (cfiCond43) DPH0 load(1, XDATA, add(CFA_XSP16, literal(-1)))
        CFI (cfiCond43) CFA_SP SP+0
        CFI (cfiCond43) CFA_XSP16 add(XSP16, 12)
        CFI Block cfiCond44 Using cfiCommon0
        CFI (cfiCond44) NoFunction
        CFI (cfiCond44) Conditional ??CrossCallReturnLabel_292, ??CrossCallReturnLabel_291, ??CrossCallReturnLabel_38
        CFI (cfiCond44) R6 load(1, XDATA, add(CFA_XSP16, literal(-12)))
        CFI (cfiCond44) VB load(1, XDATA, add(CFA_XSP16, literal(-11)))
        CFI (cfiCond44) V0 load(1, XDATA, add(CFA_XSP16, literal(-10)))
        CFI (cfiCond44) V1 load(1, XDATA, add(CFA_XSP16, literal(-9)))
        CFI (cfiCond44) V2 load(1, XDATA, add(CFA_XSP16, literal(-8)))
        CFI (cfiCond44) V3 load(1, XDATA, add(CFA_XSP16, literal(-7)))
        CFI (cfiCond44) R7 load(1, XDATA, add(CFA_XSP16, literal(-6)))
        CFI (cfiCond44) ?RET_LOW load(1, XDATA, add(CFA_XSP16, literal(-5)))
        CFI (cfiCond44) ?RET_HIGH load(1, XDATA, add(CFA_XSP16, literal(-4)))
        CFI (cfiCond44) ?BRET_EXT load(1, XDATA, add(CFA_XSP16, literal(-3)))
        CFI (cfiCond44) DPL0 load(1, XDATA, add(CFA_XSP16, literal(-2)))
        CFI (cfiCond44) DPH0 load(1, XDATA, add(CFA_XSP16, literal(-1)))
        CFI (cfiCond44) CFA_SP SP+0
        CFI (cfiCond44) CFA_XSP16 add(XSP16, 12)
        CFI Block cfiCond45 Using cfiCommon0
        CFI (cfiCond45) NoFunction
        CFI (cfiCond45) Conditional ??CrossCallReturnLabel_293, ??CrossCallReturnLabel_230
        CFI (cfiCond45) R6 load(1, XDATA, add(CFA_XSP16, literal(-14)))
        CFI (cfiCond45) VB load(1, XDATA, add(CFA_XSP16, literal(-13)))
        CFI (cfiCond45) V0 load(1, XDATA, add(CFA_XSP16, literal(-12)))
        CFI (cfiCond45) V1 load(1, XDATA, add(CFA_XSP16, literal(-11)))
        CFI (cfiCond45) V2 load(1, XDATA, add(CFA_XSP16, literal(-10)))
        CFI (cfiCond45) V3 load(1, XDATA, add(CFA_XSP16, literal(-9)))
        CFI (cfiCond45) V4 load(1, XDATA, add(CFA_XSP16, literal(-8)))
        CFI (cfiCond45) V5 load(1, XDATA, add(CFA_XSP16, literal(-7)))
        CFI (cfiCond45) R7 load(1, XDATA, add(CFA_XSP16, literal(-6)))
        CFI (cfiCond45) ?RET_LOW load(1, XDATA, add(CFA_XSP16, literal(-5)))
        CFI (cfiCond45) ?RET_HIGH load(1, XDATA, add(CFA_XSP16, literal(-4)))
        CFI (cfiCond45) ?BRET_EXT load(1, XDATA, add(CFA_XSP16, literal(-3)))
        CFI (cfiCond45) DPL0 load(1, XDATA, add(CFA_XSP16, literal(-2)))
        CFI (cfiCond45) DPH0 load(1, XDATA, add(CFA_XSP16, literal(-1)))
        CFI (cfiCond45) CFA_SP SP+0
        CFI (cfiCond45) CFA_XSP16 add(XSP16, 14)
        CFI Block cfiCond46 Using cfiCommon0
        CFI (cfiCond46) NoFunction
        CFI (cfiCond46) Conditional ??CrossCallReturnLabel_293, ??CrossCallReturnLabel_231, ??CrossCallReturnLabel_18
        CFI (cfiCond46) R6 load(1, XDATA, add(CFA_XSP16, literal(-12)))
        CFI (cfiCond46) VB load(1, XDATA, add(CFA_XSP16, literal(-11)))
        CFI (cfiCond46) V0 load(1, XDATA, add(CFA_XSP16, literal(-10)))
        CFI (cfiCond46) V1 load(1, XDATA, add(CFA_XSP16, literal(-9)))
        CFI (cfiCond46) V2 load(1, XDATA, add(CFA_XSP16, literal(-8)))
        CFI (cfiCond46) V3 load(1, XDATA, add(CFA_XSP16, literal(-7)))
        CFI (cfiCond46) R7 load(1, XDATA, add(CFA_XSP16, literal(-6)))
        CFI (cfiCond46) ?RET_LOW load(1, XDATA, add(CFA_XSP16, literal(-5)))
        CFI (cfiCond46) ?RET_HIGH load(1, XDATA, add(CFA_XSP16, literal(-4)))
        CFI (cfiCond46) ?BRET_EXT load(1, XDATA, add(CFA_XSP16, literal(-3)))
        CFI (cfiCond46) DPL0 load(1, XDATA, add(CFA_XSP16, literal(-2)))
        CFI (cfiCond46) DPH0 load(1, XDATA, add(CFA_XSP16, literal(-1)))
        CFI (cfiCond46) CFA_SP SP+0
        CFI (cfiCond46) CFA_XSP16 add(XSP16, 12)
        CFI Block cfiCond47 Using cfiCommon0
        CFI (cfiCond47) NoFunction
        CFI (cfiCond47) Conditional ??CrossCallReturnLabel_293, ??CrossCallReturnLabel_231, ??CrossCallReturnLabel_19
        CFI (cfiCond47) R6 load(1, XDATA, add(CFA_XSP16, literal(-12)))
        CFI (cfiCond47) VB load(1, XDATA, add(CFA_XSP16, literal(-11)))
        CFI (cfiCond47) V0 load(1, XDATA, add(CFA_XSP16, literal(-10)))
        CFI (cfiCond47) V1 load(1, XDATA, add(CFA_XSP16, literal(-9)))
        CFI (cfiCond47) V2 load(1, XDATA, add(CFA_XSP16, literal(-8)))
        CFI (cfiCond47) V3 load(1, XDATA, add(CFA_XSP16, literal(-7)))
        CFI (cfiCond47) R7 load(1, XDATA, add(CFA_XSP16, literal(-6)))
        CFI (cfiCond47) ?RET_LOW load(1, XDATA, add(CFA_XSP16, literal(-5)))
        CFI (cfiCond47) ?RET_HIGH load(1, XDATA, add(CFA_XSP16, literal(-4)))
        CFI (cfiCond47) ?BRET_EXT load(1, XDATA, add(CFA_XSP16, literal(-3)))
        CFI (cfiCond47) DPL0 load(1, XDATA, add(CFA_XSP16, literal(-2)))
        CFI (cfiCond47) DPH0 load(1, XDATA, add(CFA_XSP16, literal(-1)))
        CFI (cfiCond47) CFA_SP SP+0
        CFI (cfiCond47) CFA_XSP16 add(XSP16, 12)
        CFI Block cfiCond48 Using cfiCommon0
        CFI (cfiCond48) NoFunction
        CFI (cfiCond48) Conditional ??CrossCallReturnLabel_294
        CFI (cfiCond48) R6 load(1, XDATA, add(CFA_XSP16, literal(-14)))
        CFI (cfiCond48) VB load(1, XDATA, add(CFA_XSP16, literal(-13)))
        CFI (cfiCond48) V0 load(1, XDATA, add(CFA_XSP16, literal(-12)))
        CFI (cfiCond48) V1 load(1, XDATA, add(CFA_XSP16, literal(-11)))
        CFI (cfiCond48) V2 load(1, XDATA, add(CFA_XSP16, literal(-10)))
        CFI (cfiCond48) V3 load(1, XDATA, add(CFA_XSP16, literal(-9)))
        CFI (cfiCond48) V4 load(1, XDATA, add(CFA_XSP16, literal(-8)))
        CFI (cfiCond48) V5 load(1, XDATA, add(CFA_XSP16, literal(-7)))
        CFI (cfiCond48) R7 load(1, XDATA, add(CFA_XSP16, literal(-6)))
        CFI (cfiCond48) ?RET_LOW load(1, XDATA, add(CFA_XSP16, literal(-5)))
        CFI (cfiCond48) ?RET_HIGH load(1, XDATA, add(CFA_XSP16, literal(-4)))
        CFI (cfiCond48) ?BRET_EXT load(1, XDATA, add(CFA_XSP16, literal(-3)))
        CFI (cfiCond48) DPL0 load(1, XDATA, add(CFA_XSP16, literal(-2)))
        CFI (cfiCond48) DPH0 load(1, XDATA, add(CFA_XSP16, literal(-1)))
        CFI (cfiCond48) CFA_SP SP+0
        CFI (cfiCond48) CFA_XSP16 add(XSP16, 16)
        CFI Block cfiPicker49 Using cfiCommon1
        CFI (cfiPicker49) NoFunction
        CFI (cfiPicker49) Picker
        MOVX    @DPTR,A
        MOV     DPL,R0
        MOV     DPH,R1
        INC     DPTR
        RET
        CFI EndBlock cfiCond40
        CFI EndBlock cfiCond41
        CFI EndBlock cfiCond42
        CFI EndBlock cfiCond43
        CFI EndBlock cfiCond44
        CFI EndBlock cfiCond45
        CFI EndBlock cfiCond46
        CFI EndBlock cfiCond47
        CFI EndBlock cfiCond48
        CFI EndBlock cfiPicker49
//  524 
//  525 /*********************************************************************
//  526  * @fn          zcl_registerValidateAttrData
//  527  *
//  528  * @brief       Add a validation function for attribute data
//  529  *
//  530  * @param       pfnValidateAttrData - function pointer to validate routine
//  531  *
//  532  * @return      ZSuccess if OK
//  533  */

        RSEG BANKED_CODE:CODE:NOROOT(0)
//  534 ZStatus_t zcl_registerValidateAttrData( zclValidateAttrData_t pfnValidateAttrData )
zcl_registerValidateAttrData:
        CFI Block cfiBlock50 Using cfiCommon0
        CFI Function zcl_registerValidateAttrData
        CODE
//  535 {
        PUSH    DPL
        CFI DPL0 Frame(CFA_SP, 4)
        CFI CFA_SP SP+-4
        PUSH    DPH
        CFI DPH0 Frame(CFA_SP, 5)
        CFI CFA_SP SP+-5
        ; Saved register size: 2
        ; Auto size: 0
//  536   zcl_ValidateAttrDataCB = pfnValidateAttrData;
        MOV     DPTR,#zcl_ValidateAttrDataCB
        LCALL   ??Subroutine267_0 & 0xFFFF
//  537 
//  538   return ( ZSuccess );
??CrossCallReturnLabel_586:
        MOV     R1,#0x0
        SJMP    ?Subroutine0
        CFI EndBlock cfiBlock50
//  539 }
//  540 
//  541 /*********************************************************************
//  542  * @fn          zcl_registerReadWriteCB
//  543  *
//  544  * @brief       Register the application's callback function to read/write
//  545  *              attribute data, and authorize read/write operation.
//  546  *
//  547  *              Note: The pfnReadWriteCB callback function is only required
//  548  *                    when the attribute data format is unknown to ZCL. The
//  549  *                    callback function gets called when the pointer 'dataPtr'
//  550  *                    to the attribute value is NULL in the attribute database
//  551  *                    registered with the ZCL.
//  552  *
//  553  *              Note: The pfnAuthorizeCB callback function is only required
//  554  *                    when the Read/Write operation on an attribute requires
//  555  *                    authorization (i.e., attributes with ACCESS_CONTROL_AUTH_READ
//  556  *                    or ACCESS_CONTROL_AUTH_WRITE access permissions).
//  557  *
//  558  * @param       endpoint - application's endpoint
//  559  * @param       pfnReadWriteCB - function pointer to read/write routine
//  560  * @param       pfnAuthorizeCB - function pointer to authorize read/write operation
//  561  *
//  562  * @return      ZSuccess if successful. ZFailure, otherwise.
//  563  */

        RSEG BANKED_CODE:CODE:NOROOT(0)
//  564 ZStatus_t zcl_registerReadWriteCB( uint8 endpoint, zclReadWriteCB_t pfnReadWriteCB,
zcl_registerReadWriteCB:
        CFI Block cfiBlock51 Using cfiCommon0
        CFI Function zcl_registerReadWriteCB
        CODE
//  565                                    zclAuthorizeCB_t pfnAuthorizeCB )
//  566 {
        FUNCALL zcl_registerReadWriteCB, zclFindAttrRecsList
        LOCFRAME ISTACK, 0, STACK
        LOCFRAME PSTACK, 0, STACK
        LOCFRAME XSTACK, 14, STACK
        LOCFRAME IOVERLAY, 0, STATIC
        LOCFRAME DOVERLAY, 0, STATIC
        ARGFRAME ISTACK, 0, STACK
        ARGFRAME PSTACK, 0, STACK
        ARGFRAME XSTACK, 14, STACK
        ARGFRAME IOVERLAY, 0, STATIC
        ARGFRAME DOVERLAY, 0, STATIC
        MOV     A,#-0xe
        LCALL   ?BANKED_ENTER_XDATA
        CFI DPH0 load(1, XDATA, add(CFA_XSP16, literal(-1)))
        CFI DPL0 load(1, XDATA, add(CFA_XSP16, literal(-2)))
        CFI ?BRET_EXT load(1, XDATA, add(CFA_XSP16, literal(-3)))
        CFI ?RET_HIGH load(1, XDATA, add(CFA_XSP16, literal(-4)))
        CFI ?RET_LOW load(1, XDATA, add(CFA_XSP16, literal(-5)))
        CFI R7 load(1, XDATA, add(CFA_XSP16, literal(-6)))
        CFI V5 load(1, XDATA, add(CFA_XSP16, literal(-7)))
        CFI V4 load(1, XDATA, add(CFA_XSP16, literal(-8)))
        CFI V3 load(1, XDATA, add(CFA_XSP16, literal(-9)))
        CFI V2 load(1, XDATA, add(CFA_XSP16, literal(-10)))
        CFI V1 load(1, XDATA, add(CFA_XSP16, literal(-11)))
        CFI V0 load(1, XDATA, add(CFA_XSP16, literal(-12)))
        CFI VB load(1, XDATA, add(CFA_XSP16, literal(-13)))
        CFI R6 load(1, XDATA, add(CFA_XSP16, literal(-14)))
        CFI CFA_SP SP+0
        CFI CFA_XSP16 add(XSP16, 14)
        ; Saved register size: 14
        ; Auto size: 0
        MOV     A,R2
        MOV     R6,A
        MOV     A,R3
        MOV     R7,A
        MOV     ?V0 + 0,R4
        MOV     ?V0 + 1,R5
//  567   zclAttrRecsList *pRec = zclFindAttrRecsList( endpoint );
        ; Setup parameters for call to function zclFindAttrRecsList
        LCALL   ??zclFindAttrRecsList?relay
        MOV     ?V0 + 4,R2
        MOV     ?V0 + 5,R3
        MOV     R0,?V0 + 4
        MOV     R1,?V0 + 5
//  568 
//  569   if ( pRec != NULL )
        MOV     A,R0
        ORL     A,R1
        JZ      ??zcl_registerReadWriteCB_0
//  570   {
//  571     pRec->pfnReadWriteCB = pfnReadWriteCB;
        MOV     DPL,R0
        MOV     DPH,R1
        INC     DPTR
        INC     DPTR
        INC     DPTR
        MOV     A,R6
        MOVX    @DPTR,A
        INC     DPTR
        MOV     A,R7
        LCALL   ??Subroutine207_0 & 0xFFFF
//  572     pRec->pfnAuthorizeCB = pfnAuthorizeCB;
??CrossCallReturnLabel_289:
        INC     DPTR
        MOV     A,?V0 + 0
        MOVX    @DPTR,A
        INC     DPTR
        MOV     A,?V0 + 1
        MOVX    @DPTR,A
//  573 
//  574     return ( ZSuccess );
        MOV     R1,#0x0
        SJMP    ??zcl_registerReadWriteCB_1
//  575   }
//  576 
//  577   return ( ZFailure );
??zcl_registerReadWriteCB_0:
        MOV     R1,#0x1
??zcl_registerReadWriteCB_1:
        LJMP    ?Subroutine2 & 0xFFFF
        CFI EndBlock cfiBlock51
//  578 }
//  579 
//  580 /*********************************************************************
//  581  * @fn      zcl_registerForMsg
//  582  *
//  583  * @brief   The ZCL is setup to send all incoming Foundation Command/Response
//  584  *          messages that aren't processed to one task (if a task is
//  585  *          registered).
//  586  *
//  587  * @param   taskId - task Id of the Application where commands will be sent to
//  588  *
//  589  * @return  TRUE if task registeration successful, FALSE otherwise
//  590  *********************************************************************/

        RSEG BANKED_CODE:CODE:NOROOT(0)
//  591 uint8 zcl_registerForMsg( uint8 taskId )
zcl_registerForMsg:
        CFI Block cfiBlock52 Using cfiCommon0
        CFI Function zcl_registerForMsg
        CODE
//  592 {
        PUSH    DPL
        CFI DPL0 Frame(CFA_SP, 4)
        CFI CFA_SP SP+-4
        PUSH    DPH
        CFI DPH0 Frame(CFA_SP, 5)
        CFI CFA_SP SP+-5
        ; Saved register size: 2
        ; Auto size: 0
        MOV     A,R1
        MOV     R0,A
//  593   // Allow only the first task
//  594   if ( zcl_RegisteredMsgTaskID == TASK_NO_TASK )
        MOV     DPTR,#zcl_RegisteredMsgTaskID
        MOVX    A,@DPTR
        CPL     A
        JNZ     ??zcl_registerForMsg_0
//  595   {
//  596     zcl_RegisteredMsgTaskID = taskId;
        MOV     A,R0
        MOVX    @DPTR,A
//  597 
//  598     return ( true );
        MOV     R1,#0x1
        SJMP    ??zcl_registerForMsg_1
//  599   }
//  600 
//  601   return ( false );
??zcl_registerForMsg_0:
        MOV     R1,#0x0
        CFI EndBlock cfiBlock52
??zcl_registerForMsg_1:
        REQUIRE ?Subroutine0
        ; // Fall through to label ?Subroutine0
//  602 }

        RSEG BANKED_CODE:CODE:NOROOT(0)
?Subroutine0:
        CFI Block cfiBlock53 Using cfiCommon0
        CFI NoFunction
        CFI CFA_SP SP+-5
        CFI DPL0 Frame(CFA_SP, 4)
        CFI DPH0 Frame(CFA_SP, 5)
        POP     DPH
        CFI CFA_SP SP+-4
        CFI DPH0 SameValue
        POP     DPL
        CFI CFA_SP SP+-3
        CFI DPL0 SameValue
        LJMP    ?BRET
        CFI EndBlock cfiBlock53
//  603 
//  604 /*********************************************************************
//  605  * @fn      zcl_DeviceOperational
//  606  *
//  607  * @brief   Used to see whether or not the device can send or respond
//  608  *          to application level commands.
//  609  *
//  610  * @param   srcEP - source endpoint
//  611  * @param   clusterID - cluster ID
//  612  * @param   frameType - command type
//  613  * @param   cmd - command ID
//  614  *
//  615  * @return  TRUE if device is operational, FALSE otherwise
//  616  */

        RSEG BANKED_CODE:CODE:NOROOT(0)
//  617 static uint8 zcl_DeviceOperational( uint8 srcEP, uint16 clusterID,
zcl_DeviceOperational:
        CFI Block cfiBlock54 Using cfiCommon0
        CFI Function zcl_DeviceOperational
        CODE
//  618                                     uint8 frameType, uint8 cmd, uint16 profileID )
//  619 {
        FUNCALL zcl_DeviceOperational, zclFindAttrRec
        LOCFRAME ISTACK, 0, STACK
        LOCFRAME PSTACK, 0, STACK
        LOCFRAME XSTACK, 22, STACK
        LOCFRAME IOVERLAY, 0, STATIC
        LOCFRAME DOVERLAY, 0, STATIC
        ARGFRAME ISTACK, 0, STACK
        ARGFRAME PSTACK, 0, STACK
        ARGFRAME XSTACK, 22, STACK
        ARGFRAME IOVERLAY, 0, STATIC
        ARGFRAME DOVERLAY, 0, STATIC
        FUNCALL zcl_DeviceOperational, zclReadAttrData
        LOCFRAME ISTACK, 0, STACK
        LOCFRAME PSTACK, 0, STACK
        LOCFRAME XSTACK, 22, STACK
        LOCFRAME IOVERLAY, 0, STATIC
        LOCFRAME DOVERLAY, 0, STATIC
        ARGFRAME ISTACK, 0, STACK
        ARGFRAME PSTACK, 0, STACK
        ARGFRAME XSTACK, 22, STACK
        ARGFRAME IOVERLAY, 0, STATIC
        ARGFRAME DOVERLAY, 0, STATIC
        MOV     A,#-0xb
        LCALL   ?BANKED_ENTER_XDATA
        CFI DPH0 load(1, XDATA, add(CFA_XSP16, literal(-1)))
        CFI DPL0 load(1, XDATA, add(CFA_XSP16, literal(-2)))
        CFI ?BRET_EXT load(1, XDATA, add(CFA_XSP16, literal(-3)))
        CFI ?RET_HIGH load(1, XDATA, add(CFA_XSP16, literal(-4)))
        CFI ?RET_LOW load(1, XDATA, add(CFA_XSP16, literal(-5)))
        CFI R7 load(1, XDATA, add(CFA_XSP16, literal(-6)))
        CFI V2 load(1, XDATA, add(CFA_XSP16, literal(-7)))
        CFI V1 load(1, XDATA, add(CFA_XSP16, literal(-8)))
        CFI V0 load(1, XDATA, add(CFA_XSP16, literal(-9)))
        CFI VB load(1, XDATA, add(CFA_XSP16, literal(-10)))
        CFI R6 load(1, XDATA, add(CFA_XSP16, literal(-11)))
        CFI CFA_SP SP+0
        CFI CFA_XSP16 add(XSP16, 11)
        ; Saved register size: 11
        ; Auto size: 9
        MOV     A,#-0x9
        LCALL   ?ALLOC_XSTACK8
        CFI CFA_XSP16 add(XSP16, 20)
        MOV     A,R4
        MOV     R7,A
//  620   zclAttrRec_t attrRec;
//  621   uint8 deviceEnabled = DEVICE_ENABLED; // default value
        MOV     DPL,?XSP + 0
        MOV     DPH,?XSP + 1
        MOV     A,#0x1
        MOVX    @DPTR,A
//  622 
//  623   (void)profileID;  // Intentionally unreferenced parameter
//  624 
//  625   // If the device is Disabled (DeviceEnabled attribute is set to Disabled), it
//  626   // cannot send or respond to application level commands, other than commands
//  627   // to read or write attributes. Note that the Identify cluster cannot be
//  628   // disabled, and remains functional regardless of this setting.
//  629   if ( zcl_ProfileCmd( frameType ) && cmd <= ZCL_CMD_WRITE_NO_RSP )
        MOV     A,R7
        JNZ     ??zcl_DeviceOperational_0
        MOV     A,R5
        CLR     C
        SUBB    A,#0x6
        JNC     ??zcl_DeviceOperational_0
//  630   {
//  631     return ( TRUE );
??zcl_DeviceOperational_1:
        MOV     R1,#0x1
        SJMP    ??zcl_DeviceOperational_2
//  632   }
//  633 
//  634   if ( clusterID == ZCL_CLUSTER_ID_GEN_IDENTIFY )
??zcl_DeviceOperational_0:
        MOV     A,#0x3
        XRL     A,R2
        JNZ     ??zcl_DeviceOperational_3
        MOV     A,R3
??zcl_DeviceOperational_3:
        JZ      ??zcl_DeviceOperational_1
//  635   {
//  636     return ( TRUE );
//  637   }
//  638 
//  639   // Is device enabled?
//  640   if ( zclFindAttrRec( srcEP, ZCL_CLUSTER_ID_GEN_BASIC,
//  641                        ATTRID_BASIC_DEVICE_ENABLED, &attrRec ) )
        ; Setup parameters for call to function zclFindAttrRec
        MOV     A,#0x1
        LCALL   ?XSTACK_DISP0_8
        MOV     ?V0 + 0,DPL
        MOV     ?V0 + 1,DPH
        MOV     R0,#?V0 + 0
        LCALL   ?PUSH_XSTACK_I_TWO
        CFI CFA_XSP16 add(XSP16, 22)
        MOV     R4,#0x12
        MOV     R5,#0x0
        MOV     R2,#0x0
        MOV     R3,#0x0
        LCALL   ??Subroutine265_0 & 0xFFFF
??CrossCallReturnLabel_584:
        LCALL   ?DEALLOC_XSTACK8
        CFI CFA_XSP16 add(XSP16, 20)
        MOV     A,R1
        JZ      ??zcl_DeviceOperational_4
//  642   {
//  643     zclReadAttrData( &deviceEnabled, &attrRec, NULL );
        ; Setup parameters for call to function zclReadAttrData
        CLR     A
        MOV     ?V0 + 0,A
        MOV     ?V0 + 1,A
        MOV     R0,#?V0 + 0
        LCALL   ?PUSH_XSTACK_I_TWO
        CFI CFA_XSP16 add(XSP16, 22)
        MOV     A,#0x3
        LCALL   ?XSTACK_DISP0_8
        MOV     R4,DPL
        MOV     R5,DPH
        MOV     A,#0x2
        LCALL   ?XSTACK_DISP0_8
        MOV     R2,DPL
        MOV     R3,DPH
        LCALL   ??zclReadAttrData?relay
        MOV     A,#0x2
        LCALL   ?DEALLOC_XSTACK8
        CFI CFA_XSP16 add(XSP16, 20)
//  644   }
//  645 
//  646   return ( deviceEnabled == DEVICE_ENABLED ? TRUE : FALSE );
??zcl_DeviceOperational_4:
        MOV     DPL,?XSP + 0
        MOV     DPH,?XSP + 1
        MOVX    A,@DPTR
        XRL     A,#0x1
        JZ      ??zcl_DeviceOperational_1
        MOV     R1,#0x0
??zcl_DeviceOperational_2:
        MOV     A,#0x9
        LCALL   ?DEALLOC_XSTACK8
        CFI EndBlock cfiBlock54
        REQUIRE ?Subroutine3
        ; // Fall through to label ?Subroutine3
//  647 }

        RSEG BANKED_CODE:CODE:NOROOT(0)
?Subroutine3:
        CFI Block cfiBlock55 Using cfiCommon0
        CFI NoFunction
        CFI CFA_SP SP+0
        CFI CFA_XSP16 add(XSP16, 11)
        CFI VB load(1, XDATA, add(CFA_XSP16, literal(-10)))
        CFI DPL0 load(1, XDATA, add(CFA_XSP16, literal(-2)))
        CFI DPH0 load(1, XDATA, add(CFA_XSP16, literal(-1)))
        CFI R6 load(1, XDATA, add(CFA_XSP16, literal(-11)))
        CFI R7 load(1, XDATA, add(CFA_XSP16, literal(-6)))
        CFI V0 load(1, XDATA, add(CFA_XSP16, literal(-9)))
        CFI V1 load(1, XDATA, add(CFA_XSP16, literal(-8)))
        CFI V2 load(1, XDATA, add(CFA_XSP16, literal(-7)))
        CFI ?BRET_EXT load(1, XDATA, add(CFA_XSP16, literal(-3)))
        CFI ?RET_HIGH load(1, XDATA, add(CFA_XSP16, literal(-4)))
        CFI ?RET_LOW load(1, XDATA, add(CFA_XSP16, literal(-5)))
        MOV     R7,#0x3
        LJMP    ?BANKED_LEAVE_XDATA
        CFI EndBlock cfiBlock55
//  648 
//  649 /*********************************************************************
//  650  * @fn      zcl_SendCommand
//  651  *
//  652  * @brief   Used to send Profile and Cluster Specific Command messages.
//  653  *
//  654  *          NOTE: The calling application is responsible for incrementing
//  655  *                the Sequence Number.
//  656  *
//  657  * @param   srcEp - source endpoint
//  658  * @param   destAddr - destination address
//  659  * @param   clusterID - cluster ID
//  660  * @param   cmd - command ID
//  661  * @param   specific - whether the command is Cluster Specific
//  662  * @param   direction - client/server direction of the command
//  663  * @param   disableDefaultRsp - disable Default Response command
//  664  * @param   manuCode - manufacturer code for proprietary extensions to a profile
//  665  * @param   seqNumber - identification number for the transaction
//  666  * @param   cmdFormatLen - length of the command to be sent
//  667  * @param   cmdFormat - command to be sent
//  668  *
//  669  * @return  ZSuccess if OK
//  670  */

        RSEG BANKED_CODE:CODE:NOROOT(0)
//  671 ZStatus_t zcl_SendCommand( uint8 srcEP, afAddrType_t *destAddr,
zcl_SendCommand:
        CFI Block cfiBlock56 Using cfiCommon0
        CFI Function zcl_SendCommand
        CODE
//  672                            uint16 clusterID, uint8 cmd, uint8 specific, uint8 direction,
//  673                            uint8 disableDefaultRsp, uint16 manuCode, uint8 seqNum,
//  674                            uint16 cmdFormatLen, uint8 *cmdFormat )
//  675 {
        FUNCALL zcl_SendCommand, afFindEndPointDesc
        LOCFRAME ISTACK, 0, STACK
        LOCFRAME PSTACK, 0, STACK
        LOCFRAME XSTACK, 30, STACK
        LOCFRAME IOVERLAY, 0, STATIC
        LOCFRAME DOVERLAY, 0, STATIC
        ARGFRAME ISTACK, 0, STACK
        ARGFRAME PSTACK, 0, STACK
        ARGFRAME XSTACK, 30, STACK
        ARGFRAME IOVERLAY, 0, STATIC
        ARGFRAME DOVERLAY, 0, STATIC
        FUNCALL zcl_SendCommand, StubAPS_InterPan
        LOCFRAME ISTACK, 0, STACK
        LOCFRAME PSTACK, 0, STACK
        LOCFRAME XSTACK, 30, STACK
        LOCFRAME IOVERLAY, 0, STATIC
        LOCFRAME DOVERLAY, 0, STATIC
        ARGFRAME ISTACK, 0, STACK
        ARGFRAME PSTACK, 0, STACK
        ARGFRAME XSTACK, 30, STACK
        ARGFRAME IOVERLAY, 0, STATIC
        ARGFRAME DOVERLAY, 0, STATIC
        FUNCALL zcl_SendCommand, zclGetClusterOption
        LOCFRAME ISTACK, 0, STACK
        LOCFRAME PSTACK, 0, STACK
        LOCFRAME XSTACK, 30, STACK
        LOCFRAME IOVERLAY, 0, STATIC
        LOCFRAME DOVERLAY, 0, STATIC
        ARGFRAME ISTACK, 0, STACK
        ARGFRAME PSTACK, 0, STACK
        ARGFRAME XSTACK, 30, STACK
        ARGFRAME IOVERLAY, 0, STATIC
        ARGFRAME DOVERLAY, 0, STATIC
        FUNCALL zcl_SendCommand, osal_memset
        LOCFRAME ISTACK, 0, STACK
        LOCFRAME PSTACK, 0, STACK
        LOCFRAME XSTACK, 30, STACK
        LOCFRAME IOVERLAY, 0, STATIC
        LOCFRAME DOVERLAY, 0, STATIC
        ARGFRAME ISTACK, 0, STACK
        ARGFRAME PSTACK, 0, STACK
        ARGFRAME XSTACK, 30, STACK
        ARGFRAME IOVERLAY, 0, STATIC
        ARGFRAME DOVERLAY, 0, STATIC
        FUNCALL zcl_SendCommand, zcl_DeviceOperational
        LOCFRAME ISTACK, 0, STACK
        LOCFRAME PSTACK, 0, STACK
        LOCFRAME XSTACK, 32, STACK
        LOCFRAME IOVERLAY, 0, STATIC
        LOCFRAME DOVERLAY, 0, STATIC
        ARGFRAME ISTACK, 0, STACK
        ARGFRAME PSTACK, 0, STACK
        ARGFRAME XSTACK, 32, STACK
        ARGFRAME IOVERLAY, 0, STATIC
        ARGFRAME DOVERLAY, 0, STATIC
        FUNCALL zcl_SendCommand, osal_mem_alloc
        LOCFRAME ISTACK, 0, STACK
        LOCFRAME PSTACK, 0, STACK
        LOCFRAME XSTACK, 30, STACK
        LOCFRAME IOVERLAY, 0, STATIC
        LOCFRAME DOVERLAY, 0, STATIC
        ARGFRAME ISTACK, 0, STACK
        ARGFRAME PSTACK, 0, STACK
        ARGFRAME XSTACK, 30, STACK
        ARGFRAME IOVERLAY, 0, STATIC
        ARGFRAME DOVERLAY, 0, STATIC
        FUNCALL zcl_SendCommand, zclBuildHdr
        LOCFRAME ISTACK, 0, STACK
        LOCFRAME PSTACK, 0, STACK
        LOCFRAME XSTACK, 33, STACK
        LOCFRAME IOVERLAY, 0, STATIC
        LOCFRAME DOVERLAY, 0, STATIC
        ARGFRAME ISTACK, 0, STACK
        ARGFRAME PSTACK, 0, STACK
        ARGFRAME XSTACK, 33, STACK
        ARGFRAME IOVERLAY, 0, STATIC
        ARGFRAME DOVERLAY, 0, STATIC
        FUNCALL zcl_SendCommand, osal_memcpy
        LOCFRAME ISTACK, 0, STACK
        LOCFRAME PSTACK, 0, STACK
        LOCFRAME XSTACK, 33, STACK
        LOCFRAME IOVERLAY, 0, STATIC
        LOCFRAME DOVERLAY, 0, STATIC
        ARGFRAME ISTACK, 0, STACK
        ARGFRAME PSTACK, 0, STACK
        ARGFRAME XSTACK, 33, STACK
        ARGFRAME IOVERLAY, 0, STATIC
        ARGFRAME DOVERLAY, 0, STATIC
        FUNCALL zcl_SendCommand, AF_DataRequest
        LOCFRAME ISTACK, 0, STACK
        LOCFRAME PSTACK, 0, STACK
        LOCFRAME XSTACK, 39, STACK
        LOCFRAME IOVERLAY, 0, STATIC
        LOCFRAME DOVERLAY, 0, STATIC
        ARGFRAME ISTACK, 0, STACK
        ARGFRAME PSTACK, 0, STACK
        ARGFRAME XSTACK, 39, STACK
        ARGFRAME IOVERLAY, 0, STATIC
        ARGFRAME DOVERLAY, 0, STATIC
        FUNCALL zcl_SendCommand, osal_mem_free
        LOCFRAME ISTACK, 0, STACK
        LOCFRAME PSTACK, 0, STACK
        LOCFRAME XSTACK, 30, STACK
        LOCFRAME IOVERLAY, 0, STATIC
        LOCFRAME DOVERLAY, 0, STATIC
        ARGFRAME ISTACK, 0, STACK
        ARGFRAME PSTACK, 0, STACK
        ARGFRAME XSTACK, 30, STACK
        ARGFRAME IOVERLAY, 0, STATIC
        ARGFRAME DOVERLAY, 0, STATIC
        MOV     A,#-0x18
        LCALL   ?BANKED_ENTER_XDATA
        CFI DPH0 load(1, XDATA, add(CFA_XSP16, literal(-1)))
        CFI DPL0 load(1, XDATA, add(CFA_XSP16, literal(-2)))
        CFI ?BRET_EXT load(1, XDATA, add(CFA_XSP16, literal(-3)))
        CFI ?RET_HIGH load(1, XDATA, add(CFA_XSP16, literal(-4)))
        CFI ?RET_LOW load(1, XDATA, add(CFA_XSP16, literal(-5)))
        CFI R7 load(1, XDATA, add(CFA_XSP16, literal(-6)))
        CFI V15 load(1, XDATA, add(CFA_XSP16, literal(-7)))
        CFI V14 load(1, XDATA, add(CFA_XSP16, literal(-8)))
        CFI V13 load(1, XDATA, add(CFA_XSP16, literal(-9)))
        CFI V12 load(1, XDATA, add(CFA_XSP16, literal(-10)))
        CFI V11 load(1, XDATA, add(CFA_XSP16, literal(-11)))
        CFI V10 load(1, XDATA, add(CFA_XSP16, literal(-12)))
        CFI V9 load(1, XDATA, add(CFA_XSP16, literal(-13)))
        CFI V8 load(1, XDATA, add(CFA_XSP16, literal(-14)))
        CFI V7 load(1, XDATA, add(CFA_XSP16, literal(-15)))
        CFI V6 load(1, XDATA, add(CFA_XSP16, literal(-16)))
        CFI V5 load(1, XDATA, add(CFA_XSP16, literal(-17)))
        CFI V4 load(1, XDATA, add(CFA_XSP16, literal(-18)))
        CFI V3 load(1, XDATA, add(CFA_XSP16, literal(-19)))
        CFI V2 load(1, XDATA, add(CFA_XSP16, literal(-20)))
        CFI V1 load(1, XDATA, add(CFA_XSP16, literal(-21)))
        CFI V0 load(1, XDATA, add(CFA_XSP16, literal(-22)))
        CFI VB load(1, XDATA, add(CFA_XSP16, literal(-23)))
        CFI R6 load(1, XDATA, add(CFA_XSP16, literal(-24)))
        CFI CFA_SP SP+0
        CFI CFA_XSP16 add(XSP16, 24)
        ; Saved register size: 24
        ; Auto size: 6
        MOV     A,#-0x6
        LCALL   ?ALLOC_XSTACK8
        CFI CFA_XSP16 add(XSP16, 30)
        MOV     ?V0 + 7,R1
        MOV     ?V0 + 14,R2
        MOV     ?V0 + 15,R3
        MOV     ?V0 + 2,R4
        MOV     ?V0 + 3,R5
        MOV     A,#0x1e
        LCALL   ?XSTACK_DISP0_8
        MOVX    A,@DPTR
        MOV     R6,A
        MOV     A,#0x1f
        LCALL   ?XSTACK_DISP0_8
        MOVX    A,@DPTR
        MOV     ?V0 + 1,A
        MOV     A,#0x20
        LCALL   ?XSTACK_DISP0_8
        MOVX    A,@DPTR
        MOV     ?V0 + 4,A
        MOV     A,#0x21
        LCALL   ?XSTACK_DISP0_8
        MOVX    A,@DPTR
        MOV     ?V0 + 0,A
        MOV     A,#0x22
        LCALL   ?XSTACK_DISP0_8
        MOVX    A,@DPTR
        MOV     ?V0 + 10,A
        INC     DPTR
        MOVX    A,@DPTR
        MOV     ?V0 + 11,A
        MOV     A,#0x24
        LCALL   ?XSTACK_DISP0_8
        MOVX    A,@DPTR
        MOV     R7,A
//  676   endPointDesc_t *epDesc;
//  677   zclFrameHdr_t hdr;
//  678   uint8 *msgBuf;
//  679   uint16 msgLen;
//  680   uint8 *pBuf;
//  681   uint8 options;
//  682   ZStatus_t status;
//  683 
//  684   epDesc = afFindEndPointDesc( srcEP );
        ; Setup parameters for call to function afFindEndPointDesc
        LCALL   ??afFindEndPointDesc?relay
        MOV     ?V0 + 12,R2
        MOV     ?V0 + 13,R3
//  685   if ( epDesc == NULL )
        MOV     A,R2
        ORL     A,?V0 + 13
        JNZ     ??zcl_SendCommand_0
//  686   {
//  687     return ( ZInvalidParameter ); // EMBEDDED RETURN
        MOV     R1,#0x2
        LJMP    ??zcl_SendCommand_1 & 0xFFFF
//  688   }
//  689 
//  690 #if defined ( INTER_PAN )
//  691   if ( StubAPS_InterPan( destAddr->panId, destAddr->endPoint ) )
??zcl_SendCommand_0:
        ; Setup parameters for call to function StubAPS_InterPan
        MOV     DPL,?V0 + 14
        MOV     DPH,?V0 + 15
        INC     DPTR
        INC     DPTR
        INC     DPTR
        INC     DPTR
        INC     DPTR
        INC     DPTR
        INC     DPTR
        INC     DPTR
        INC     DPTR
        MOVX    A,@DPTR
        MOV     R1,A
        MOV     DPL,?V0 + 14
        MOV     DPH,?V0 + 15
        INC     DPTR
        INC     DPTR
        INC     DPTR
        INC     DPTR
        INC     DPTR
        INC     DPTR
        INC     DPTR
        INC     DPTR
        INC     DPTR
        INC     DPTR
        LCALL   ?Subroutine97 & 0xFFFF
??CrossCallReturnLabel_145:
        JZ      ??zcl_SendCommand_2
//  692   {
//  693     options = AF_TX_OPTIONS_NONE;
        MOV     ?V0 + 6,#0x0
        SJMP    ??zcl_SendCommand_3
//  694   }
//  695   else
//  696 #endif
//  697   {
//  698     options = zclGetClusterOption( srcEP, clusterID );
??zcl_SendCommand_2:
        ; Setup parameters for call to function zclGetClusterOption
        MOV     R2,?V0 + 2
        MOV     R3,?V0 + 3
        MOV     R1,?V0 + 7
        LCALL   ??zclGetClusterOption?relay
        MOV     A,R1
        MOV     ?V0 + 6,A
//  699   }
//  700 
//  701   osal_memset( &hdr, 0, sizeof( zclFrameHdr_t ) );
??zcl_SendCommand_3:
        ; Setup parameters for call to function osal_memset
        MOV     R4,#0x6
        MOV     R5,#0x0
        MOV     R1,#0x0
        MOV     DPL,?XSP + 0
        MOV     DPH,?XSP + 1
        MOV     R2,DPL
        MOV     R3,DPH
        LCALL   ??osal_memset?relay
//  702 
//  703   // Not Profile wide command (like READ, WRITE)
//  704   if ( specific )
        MOV     A,?V0 + 1
        MOV     DPL,?XSP + 0
        MOV     DPH,?XSP + 1
        JZ      ??zcl_SendCommand_4
//  705   {
//  706     hdr.fc.type = ZCL_FRAME_TYPE_SPECIFIC_CMD;
        MOVX    A,@DPTR
        ANL     A,#0xfc
        MOV     R0,A
        INC     DPTR
        MOVX    A,@DPTR
        MOV     R1,A
        MOV     A,R0
        ORL     A,#0x1
        MOV     DPL,?XSP + 0
        MOV     DPH,?XSP + 1
        MOVX    @DPTR,A
        INC     DPTR
        MOV     A,R1
        SJMP    ??zcl_SendCommand_5
//  707   }
//  708   else
//  709   {
//  710     hdr.fc.type = ZCL_FRAME_TYPE_PROFILE_CMD;
??zcl_SendCommand_4:
        MOVX    A,@DPTR
        ANL     A,#0xfc
//  711   }
??zcl_SendCommand_5:
        LCALL   ?Subroutine40 & 0xFFFF
//  712 
//  713   if ( ( epDesc->simpleDesc == NULL ) ||
//  714        ( zcl_DeviceOperational( srcEP, clusterID, hdr.fc.type,
//  715                                 cmd, epDesc->simpleDesc->AppProfId ) == FALSE ) )
??CrossCallReturnLabel_43:
        LCALL   ??Subroutine258_0 & 0xFFFF
??CrossCallReturnLabel_543:
        JZ      ??zcl_SendCommand_6
        ; Setup parameters for call to function zcl_DeviceOperational
        MOV     DPL,?V0 + 12
        MOV     DPH,?V0 + 13
        LCALL   ?Subroutine104 & 0xFFFF
??CrossCallReturnLabel_296:
        LCALL   ?PUSH_XSTACK8_X_TWO
        CFI CFA_XSP16 add(XSP16, 32)
        MOV     A,R6
        MOV     R5,A
        MOV     A,#0x2
        LCALL   ?XSTACK_DISP0_8
        MOVX    A,@DPTR
        ANL     A,#0x3
        MOV     R4,A
        MOV     R2,?V0 + 2
        MOV     R3,?V0 + 3
        MOV     R1,?V0 + 7
        LCALL   ??zcl_DeviceOperational?relay
        MOV     A,#0x2
        LCALL   ?DEALLOC_XSTACK8
        CFI CFA_XSP16 add(XSP16, 30)
        MOV     A,R1
        JNZ     ??zcl_SendCommand_7
//  716   {
//  717     return ( ZFailure ); // EMBEDDED RETURN
??zcl_SendCommand_6:
        MOV     R1,#0x1
        LJMP    ??zcl_SendCommand_1 & 0xFFFF
//  718   }
//  719 
//  720   // Fill in the Maufacturer Code
//  721   if ( manuCode != 0 )
??zcl_SendCommand_7:
        MOV     A,?V0 + 10
        ORL     A,?V0 + 11
        JZ      ??zcl_SendCommand_8
//  722   {
//  723     hdr.fc.manuSpecific = 1;
        MOV     DPL,?XSP + 0
        MOV     DPH,?XSP + 1
        MOVX    A,@DPTR
        ORL     A,#0x4
        MOVX    @DPTR,A
//  724     hdr.manuCode = manuCode;
        MOV     A,#0x2
        LCALL   ?XSTACK_DISP0_8
        MOV     A,?V0 + 10
        MOVX    @DPTR,A
        INC     DPTR
        MOV     A,?V0 + 11
        MOVX    @DPTR,A
//  725   }
//  726 
//  727   // Set the Command Direction
//  728   if ( direction )
??zcl_SendCommand_8:
        MOV     A,?V0 + 4
        MOV     DPL,?XSP + 0
        MOV     DPH,?XSP + 1
        JZ      ??zcl_SendCommand_9
//  729   {
//  730     hdr.fc.direction = ZCL_FRAME_SERVER_CLIENT_DIR;
        MOVX    A,@DPTR
        ORL     A,#0x8
        SJMP    ??zcl_SendCommand_10
//  731   }
//  732   else
//  733   {
//  734     hdr.fc.direction = ZCL_FRAME_CLIENT_SERVER_DIR;
??zcl_SendCommand_9:
        MOVX    A,@DPTR
        ANL     A,#0xf7
??zcl_SendCommand_10:
        MOVX    @DPTR,A
//  735   }
//  736 
//  737   // Set the Disable Default Response field
//  738   if ( disableDefaultRsp )
        MOV     A,?V0 + 0
        JZ      ??zcl_SendCommand_11
//  739   {
//  740     hdr.fc.disableDefaultRsp = 1;
        MOVX    A,@DPTR
        ORL     A,#0x10
        SJMP    ??zcl_SendCommand_12
//  741   }
//  742   else
//  743   {
//  744     hdr.fc.disableDefaultRsp = 0;
??zcl_SendCommand_11:
        MOVX    A,@DPTR
        ANL     A,#0xef
??zcl_SendCommand_12:
        MOVX    @DPTR,A
//  745   }
//  746 
//  747   // Fill in the Transaction Sequence Number
//  748   hdr.transSeqNum = seqNum;
        MOV     A,#0x4
        LCALL   ?XSTACK_DISP0_8
        MOV     A,R7
        MOVX    @DPTR,A
//  749 
//  750   // Fill in the command
//  751   hdr.commandID = cmd;
        MOV     A,#0x5
        LCALL   ?XSTACK_DISP0_8
        MOV     A,R6
        MOVX    @DPTR,A
//  752 
//  753   // calculate the needed buffer size
//  754   msgLen = zclCalcHdrSize( &hdr );
        MOV     ?V0 + 0,#0x3
        MOV     DPL,?XSP + 0
        MOV     DPH,?XSP + 1
        MOVX    A,@DPTR
        ANL     A,#0x4
        JZ      ??zcl_SendCommand_13
        MOV     ?V0 + 0,#0x5
//  755   msgLen += cmdFormatLen;
??zcl_SendCommand_13:
        MOV     A,#0x25
        LCALL   ?XSTACK_DISP0_8
        MOVX    A,@DPTR
        ADD     A,?V0 + 0
        MOV     ?V0 + 0,A
        INC     DPTR
        MOVX    A,@DPTR
        LCALL   ??Subroutine251_0 & 0xFFFF
//  756 
//  757   // Allocate the buffer needed
//  758   msgBuf = osal_mem_alloc( msgLen );
??CrossCallReturnLabel_499:
        ; Setup parameters for call to function osal_mem_alloc
        MOV     R2,?V0 + 0
        LCALL   ?Subroutine122 & 0xFFFF
//  759   if ( msgBuf != NULL )
??CrossCallReturnLabel_184:
        JZ      ??zcl_SendCommand_14
//  760   {
//  761     // Fill in the ZCL Header
//  762     pBuf = zclBuildHdr( &hdr, msgBuf );
//  763 
//  764     // Fill in the command frame
//  765     osal_memcpy( pBuf, cmdFormat, cmdFormatLen );
        ; Setup parameters for call to function osal_memcpy
        MOV     A,#0x27
        LCALL   ?XSTACK_DISP0_8
        LCALL   ?Subroutine70 & 0xFFFF
??CrossCallReturnLabel_97:
        LCALL   ?PUSH_XSTACK_I_THREE
        CFI CFA_XSP16 add(XSP16, 33)
        MOV     A,#0x28
        LCALL   ?XSTACK_DISP0_8
        LCALL   ??Subroutine235_0 & 0xFFFF
??CrossCallReturnLabel_418:
        MOV     A,R4
        MOV     R6,A
        MOV     A,R5
        MOV     R7,A
        ; Setup parameters for call to function zclBuildHdr
        MOV     R4,?V0 + 4
        MOV     R5,?V0 + 5
        MOV     A,#0x3
        LCALL   ?XSTACK_DISP0_8
        MOV     R2,DPL
        MOV     R3,DPH
        LCALL   ??zclBuildHdr?relay
        MOV     A,R6
        MOV     R4,A
        MOV     A,R7
        MOV     R5,A
        LCALL   ??Subroutine238_0 & 0xFFFF
??CrossCallReturnLabel_442:
        LCALL   ?DEALLOC_XSTACK8
        CFI CFA_XSP16 add(XSP16, 30)
//  766 
//  767     status = AF_DataRequest( destAddr, epDesc, clusterID, msgLen, msgBuf,
//  768                              &zcl_TransID, options, AF_DEFAULT_RADIUS );
        ; Setup parameters for call to function AF_DataRequest
        MOV     ?V0 + 8,#0x1e
        MOV     R0,#?V0 + 8
        LCALL   ?PUSH_XSTACK_I_ONE
        CFI CFA_XSP16 add(XSP16, 31)
        MOV     ?V0 + 8,#zcl_TransID & 0xff
        MOV     ?V0 + 9,#(zcl_TransID >> 8) & 0xff
        MOV     R0,#?V0 + 8
        LCALL   ?PUSH_XSTACK_I_TWO
        CFI CFA_XSP16 add(XSP16, 33)
        MOV     R0,#?V0 + 4
        LCALL   ?PUSH_XSTACK_I_TWO
        CFI CFA_XSP16 add(XSP16, 35)
        MOV     R0,#?V0 + 0
        LCALL   ?PUSH_XSTACK_I_TWO
        CFI CFA_XSP16 add(XSP16, 37)
        MOV     R0,#?V0 + 2
        LCALL   ?PUSH_XSTACK_I_TWO
        CFI CFA_XSP16 add(XSP16, 39)
        MOV     R1,?V0 + 6
        MOV     R4,?V0 + 12
        MOV     R5,?V0 + 13
        MOV     R2,?V0 + 14
        MOV     R3,?V0 + 15
        LCALL   ??AF_DataRequest?relay
        MOV     A,#0x9
        LCALL   ?DEALLOC_XSTACK8
        CFI CFA_XSP16 add(XSP16, 30)
        MOV     A,R1
        MOV     R6,A
//  769     osal_mem_free ( msgBuf );
        ; Setup parameters for call to function osal_mem_free
        MOV     R2,?V0 + 4
        MOV     R3,?V0 + 5
        LCALL   ??osal_mem_free?relay
        SJMP    ??zcl_SendCommand_15
//  770   }
//  771   else
//  772   {
//  773     status = ZMemError;
??zcl_SendCommand_14:
        MOV     R6,#0x10
//  774   }
//  775 
//  776   return ( status );
??zcl_SendCommand_15:
        MOV     A,R6
        MOV     R1,A
??zcl_SendCommand_1:
        MOV     A,#0x6
        LJMP    ?Subroutine4 & 0xFFFF
        CFI EndBlock cfiBlock56
//  777 }

        RSEG BANKED_CODE:CODE:NOROOT(0)
?Subroutine104:
        CFI Block cfiCond57 Using cfiCommon0
        CFI NoFunction
        CFI Conditional ??CrossCallReturnLabel_296
        CFI R6 load(1, XDATA, add(CFA_XSP16, literal(-24)))
        CFI VB load(1, XDATA, add(CFA_XSP16, literal(-23)))
        CFI V0 load(1, XDATA, add(CFA_XSP16, literal(-22)))
        CFI V1 load(1, XDATA, add(CFA_XSP16, literal(-21)))
        CFI V2 load(1, XDATA, add(CFA_XSP16, literal(-20)))
        CFI V3 load(1, XDATA, add(CFA_XSP16, literal(-19)))
        CFI V4 load(1, XDATA, add(CFA_XSP16, literal(-18)))
        CFI V5 load(1, XDATA, add(CFA_XSP16, literal(-17)))
        CFI V6 load(1, XDATA, add(CFA_XSP16, literal(-16)))
        CFI V7 load(1, XDATA, add(CFA_XSP16, literal(-15)))
        CFI V8 load(1, XDATA, add(CFA_XSP16, literal(-14)))
        CFI V9 load(1, XDATA, add(CFA_XSP16, literal(-13)))
        CFI V10 load(1, XDATA, add(CFA_XSP16, literal(-12)))
        CFI V11 load(1, XDATA, add(CFA_XSP16, literal(-11)))
        CFI V12 load(1, XDATA, add(CFA_XSP16, literal(-10)))
        CFI V13 load(1, XDATA, add(CFA_XSP16, literal(-9)))
        CFI V14 load(1, XDATA, add(CFA_XSP16, literal(-8)))
        CFI V15 load(1, XDATA, add(CFA_XSP16, literal(-7)))
        CFI R7 load(1, XDATA, add(CFA_XSP16, literal(-6)))
        CFI ?RET_LOW load(1, XDATA, add(CFA_XSP16, literal(-5)))
        CFI ?RET_HIGH load(1, XDATA, add(CFA_XSP16, literal(-4)))
        CFI ?BRET_EXT load(1, XDATA, add(CFA_XSP16, literal(-3)))
        CFI DPL0 load(1, XDATA, add(CFA_XSP16, literal(-2)))
        CFI DPH0 load(1, XDATA, add(CFA_XSP16, literal(-1)))
        CFI CFA_SP SP+0
        CFI CFA_XSP16 add(XSP16, 30)
        CFI Block cfiCond58 Using cfiCommon0
        CFI (cfiCond58) NoFunction
        CFI (cfiCond58) Conditional ??CrossCallReturnLabel_297
        CFI (cfiCond58) R6 load(1, XDATA, add(CFA_XSP16, literal(-12)))
        CFI (cfiCond58) VB load(1, XDATA, add(CFA_XSP16, literal(-11)))
        CFI (cfiCond58) V0 load(1, XDATA, add(CFA_XSP16, literal(-10)))
        CFI (cfiCond58) V1 load(1, XDATA, add(CFA_XSP16, literal(-9)))
        CFI (cfiCond58) V2 load(1, XDATA, add(CFA_XSP16, literal(-8)))
        CFI (cfiCond58) V3 load(1, XDATA, add(CFA_XSP16, literal(-7)))
        CFI (cfiCond58) R7 load(1, XDATA, add(CFA_XSP16, literal(-6)))
        CFI (cfiCond58) ?RET_LOW load(1, XDATA, add(CFA_XSP16, literal(-5)))
        CFI (cfiCond58) ?RET_HIGH load(1, XDATA, add(CFA_XSP16, literal(-4)))
        CFI (cfiCond58) ?BRET_EXT load(1, XDATA, add(CFA_XSP16, literal(-3)))
        CFI (cfiCond58) DPL0 load(1, XDATA, add(CFA_XSP16, literal(-2)))
        CFI (cfiCond58) DPH0 load(1, XDATA, add(CFA_XSP16, literal(-1)))
        CFI (cfiCond58) CFA_SP SP+0
        CFI (cfiCond58) CFA_XSP16 add(XSP16, 33)
        CFI Block cfiPicker59 Using cfiCommon1
        CFI (cfiPicker59) NoFunction
        CFI (cfiPicker59) Picker
        INC     DPTR
        INC     DPTR
        INC     DPTR
        CFI EndBlock cfiCond57
        CFI EndBlock cfiCond58
        CFI EndBlock cfiPicker59
        REQUIRE ??Subroutine208_0
        ; // Fall through to label ??Subroutine208_0

        RSEG BANKED_CODE:CODE:NOROOT(0)
??Subroutine208_0:
        CFI Block cfiCond60 Using cfiCommon0
        CFI NoFunction
        CFI Conditional ??CrossCallReturnLabel_295
        CFI R6 load(1, XDATA, add(CFA_XSP16, literal(-10)))
        CFI VB load(1, XDATA, add(CFA_XSP16, literal(-9)))
        CFI V0 load(1, XDATA, add(CFA_XSP16, literal(-8)))
        CFI V1 load(1, XDATA, add(CFA_XSP16, literal(-7)))
        CFI R7 load(1, XDATA, add(CFA_XSP16, literal(-6)))
        CFI ?RET_LOW load(1, XDATA, add(CFA_XSP16, literal(-5)))
        CFI ?RET_HIGH load(1, XDATA, add(CFA_XSP16, literal(-4)))
        CFI ?BRET_EXT load(1, XDATA, add(CFA_XSP16, literal(-3)))
        CFI DPL0 load(1, XDATA, add(CFA_XSP16, literal(-2)))
        CFI DPH0 load(1, XDATA, add(CFA_XSP16, literal(-1)))
        CFI CFA_SP SP+0
        CFI CFA_XSP16 add(XSP16, 10)
        CFI Block cfiCond61 Using cfiCommon0
        CFI (cfiCond61) NoFunction
        CFI (cfiCond61) Conditional ??CrossCallReturnLabel_296
        CFI (cfiCond61) R6 load(1, XDATA, add(CFA_XSP16, literal(-24)))
        CFI (cfiCond61) VB load(1, XDATA, add(CFA_XSP16, literal(-23)))
        CFI (cfiCond61) V0 load(1, XDATA, add(CFA_XSP16, literal(-22)))
        CFI (cfiCond61) V1 load(1, XDATA, add(CFA_XSP16, literal(-21)))
        CFI (cfiCond61) V2 load(1, XDATA, add(CFA_XSP16, literal(-20)))
        CFI (cfiCond61) V3 load(1, XDATA, add(CFA_XSP16, literal(-19)))
        CFI (cfiCond61) V4 load(1, XDATA, add(CFA_XSP16, literal(-18)))
        CFI (cfiCond61) V5 load(1, XDATA, add(CFA_XSP16, literal(-17)))
        CFI (cfiCond61) V6 load(1, XDATA, add(CFA_XSP16, literal(-16)))
        CFI (cfiCond61) V7 load(1, XDATA, add(CFA_XSP16, literal(-15)))
        CFI (cfiCond61) V8 load(1, XDATA, add(CFA_XSP16, literal(-14)))
        CFI (cfiCond61) V9 load(1, XDATA, add(CFA_XSP16, literal(-13)))
        CFI (cfiCond61) V10 load(1, XDATA, add(CFA_XSP16, literal(-12)))
        CFI (cfiCond61) V11 load(1, XDATA, add(CFA_XSP16, literal(-11)))
        CFI (cfiCond61) V12 load(1, XDATA, add(CFA_XSP16, literal(-10)))
        CFI (cfiCond61) V13 load(1, XDATA, add(CFA_XSP16, literal(-9)))
        CFI (cfiCond61) V14 load(1, XDATA, add(CFA_XSP16, literal(-8)))
        CFI (cfiCond61) V15 load(1, XDATA, add(CFA_XSP16, literal(-7)))
        CFI (cfiCond61) R7 load(1, XDATA, add(CFA_XSP16, literal(-6)))
        CFI (cfiCond61) ?RET_LOW load(1, XDATA, add(CFA_XSP16, literal(-5)))
        CFI (cfiCond61) ?RET_HIGH load(1, XDATA, add(CFA_XSP16, literal(-4)))
        CFI (cfiCond61) ?BRET_EXT load(1, XDATA, add(CFA_XSP16, literal(-3)))
        CFI (cfiCond61) DPL0 load(1, XDATA, add(CFA_XSP16, literal(-2)))
        CFI (cfiCond61) DPH0 load(1, XDATA, add(CFA_XSP16, literal(-1)))
        CFI (cfiCond61) CFA_SP SP+0
        CFI (cfiCond61) CFA_XSP16 add(XSP16, 30)
        CFI Block cfiCond62 Using cfiCommon0
        CFI (cfiCond62) NoFunction
        CFI (cfiCond62) Conditional ??CrossCallReturnLabel_297
        CFI (cfiCond62) R6 load(1, XDATA, add(CFA_XSP16, literal(-12)))
        CFI (cfiCond62) VB load(1, XDATA, add(CFA_XSP16, literal(-11)))
        CFI (cfiCond62) V0 load(1, XDATA, add(CFA_XSP16, literal(-10)))
        CFI (cfiCond62) V1 load(1, XDATA, add(CFA_XSP16, literal(-9)))
        CFI (cfiCond62) V2 load(1, XDATA, add(CFA_XSP16, literal(-8)))
        CFI (cfiCond62) V3 load(1, XDATA, add(CFA_XSP16, literal(-7)))
        CFI (cfiCond62) R7 load(1, XDATA, add(CFA_XSP16, literal(-6)))
        CFI (cfiCond62) ?RET_LOW load(1, XDATA, add(CFA_XSP16, literal(-5)))
        CFI (cfiCond62) ?RET_HIGH load(1, XDATA, add(CFA_XSP16, literal(-4)))
        CFI (cfiCond62) ?BRET_EXT load(1, XDATA, add(CFA_XSP16, literal(-3)))
        CFI (cfiCond62) DPL0 load(1, XDATA, add(CFA_XSP16, literal(-2)))
        CFI (cfiCond62) DPH0 load(1, XDATA, add(CFA_XSP16, literal(-1)))
        CFI (cfiCond62) CFA_SP SP+0
        CFI (cfiCond62) CFA_XSP16 add(XSP16, 33)
        CFI Block cfiPicker63 Using cfiCommon1
        CFI (cfiPicker63) NoFunction
        CFI (cfiPicker63) Picker
        INC     DPTR
        MOVX    A,@DPTR
        MOV     DPH,A
        MOV     DPL,R0
        INC     DPTR
        RET
        CFI EndBlock cfiCond60
        CFI EndBlock cfiCond61
        CFI EndBlock cfiCond62
        CFI EndBlock cfiPicker63
//  778 
//  779 #ifdef ZCL_READ
//  780 /*********************************************************************
//  781  * @fn      zcl_SendRead
//  782  *
//  783  * @brief   Send a Read command
//  784  *
//  785  * @param   srcEP - Application's endpoint
//  786  * @param   dstAddr - destination address
//  787  * @param   clusterID - cluster ID
//  788  * @param   readCmd - read command to be sent
//  789  * @param   direction - direction of the command
//  790  * @param   seqNum - transaction sequence number
//  791  *
//  792  * @return  ZSuccess if OK
//  793  */

        RSEG BANKED_CODE:CODE:NOROOT(0)
//  794 ZStatus_t zcl_SendRead( uint8 srcEP, afAddrType_t *dstAddr,
zcl_SendRead:
        CFI Block cfiBlock64 Using cfiCommon0
        CFI Function zcl_SendRead
        CODE
//  795                         uint16 clusterID, zclReadCmd_t *readCmd,
//  796                         uint8 direction, uint8 disableDefaultRsp, uint8 seqNum)
//  797 {
        FUNCALL zcl_SendRead, osal_mem_alloc
        LOCFRAME ISTACK, 0, STACK
        LOCFRAME PSTACK, 0, STACK
        LOCFRAME XSTACK, 22, STACK
        LOCFRAME IOVERLAY, 0, STATIC
        LOCFRAME DOVERLAY, 0, STATIC
        ARGFRAME ISTACK, 0, STACK
        ARGFRAME PSTACK, 0, STACK
        ARGFRAME XSTACK, 22, STACK
        ARGFRAME IOVERLAY, 0, STATIC
        ARGFRAME DOVERLAY, 0, STATIC
        FUNCALL zcl_SendRead, zcl_SendCommand
        LOCFRAME ISTACK, 0, STACK
        LOCFRAME PSTACK, 0, STACK
        LOCFRAME XSTACK, 33, STACK
        LOCFRAME IOVERLAY, 0, STATIC
        LOCFRAME DOVERLAY, 0, STATIC
        ARGFRAME ISTACK, 0, STACK
        ARGFRAME PSTACK, 0, STACK
        ARGFRAME XSTACK, 33, STACK
        ARGFRAME IOVERLAY, 0, STATIC
        ARGFRAME DOVERLAY, 0, STATIC
        FUNCALL zcl_SendRead, osal_mem_free
        LOCFRAME ISTACK, 0, STACK
        LOCFRAME PSTACK, 0, STACK
        LOCFRAME XSTACK, 22, STACK
        LOCFRAME IOVERLAY, 0, STATIC
        LOCFRAME DOVERLAY, 0, STATIC
        ARGFRAME ISTACK, 0, STACK
        ARGFRAME PSTACK, 0, STACK
        ARGFRAME XSTACK, 22, STACK
        ARGFRAME IOVERLAY, 0, STATIC
        ARGFRAME DOVERLAY, 0, STATIC
        MOV     A,#-0x16
        LCALL   ?BANKED_ENTER_XDATA
        CFI DPH0 load(1, XDATA, add(CFA_XSP16, literal(-1)))
        CFI DPL0 load(1, XDATA, add(CFA_XSP16, literal(-2)))
        CFI ?BRET_EXT load(1, XDATA, add(CFA_XSP16, literal(-3)))
        CFI ?RET_HIGH load(1, XDATA, add(CFA_XSP16, literal(-4)))
        CFI ?RET_LOW load(1, XDATA, add(CFA_XSP16, literal(-5)))
        CFI R7 load(1, XDATA, add(CFA_XSP16, literal(-6)))
        CFI V13 load(1, XDATA, add(CFA_XSP16, literal(-7)))
        CFI V12 load(1, XDATA, add(CFA_XSP16, literal(-8)))
        CFI V11 load(1, XDATA, add(CFA_XSP16, literal(-9)))
        CFI V10 load(1, XDATA, add(CFA_XSP16, literal(-10)))
        CFI V9 load(1, XDATA, add(CFA_XSP16, literal(-11)))
        CFI V8 load(1, XDATA, add(CFA_XSP16, literal(-12)))
        CFI V7 load(1, XDATA, add(CFA_XSP16, literal(-13)))
        CFI V6 load(1, XDATA, add(CFA_XSP16, literal(-14)))
        CFI V5 load(1, XDATA, add(CFA_XSP16, literal(-15)))
        CFI V4 load(1, XDATA, add(CFA_XSP16, literal(-16)))
        CFI V3 load(1, XDATA, add(CFA_XSP16, literal(-17)))
        CFI V2 load(1, XDATA, add(CFA_XSP16, literal(-18)))
        CFI V1 load(1, XDATA, add(CFA_XSP16, literal(-19)))
        CFI V0 load(1, XDATA, add(CFA_XSP16, literal(-20)))
        CFI VB load(1, XDATA, add(CFA_XSP16, literal(-21)))
        CFI R6 load(1, XDATA, add(CFA_XSP16, literal(-22)))
        CFI CFA_SP SP+0
        CFI CFA_XSP16 add(XSP16, 22)
        ; Saved register size: 22
        ; Auto size: 0
        MOV     ?V0 + 2,R1
        MOV     ?V0 + 12,R2
        MOV     ?V0 + 13,R3
        MOV     A,R4
        MOV     R6,A
        MOV     A,R5
        MOV     R7,A
        MOV     A,#0x16
        LCALL   ?XSTACK_DISP0_8
        LCALL   ?Subroutine69 & 0xFFFF
??CrossCallReturnLabel_93:
        LCALL   ?XSTACK_DISP0_8
        LCALL   ?Subroutine106 & 0xFFFF
??CrossCallReturnLabel_162:
        LCALL   ?XSTACK_DISP0_8
        MOVX    A,@DPTR
        MOV     ?V0 + 8,A
        MOV     A,#0x1a
        LCALL   ?XSTACK_DISP0_8
        MOVX    A,@DPTR
        MOV     ?V0 + 9,A
//  798   uint16 dataLen;
//  799   uint8 *buf;
//  800   uint8 *pBuf;
//  801   ZStatus_t status;
//  802 
//  803   dataLen = readCmd->numAttr * 2; // Attribute ID
        MOV     DPL,?V0 + 4
        MOV     DPH,?V0 + 5
        MOVX    A,@DPTR
        CLR     C
        RLC     A
        MOV     ?V0 + 6,A
        CLR     A
        RLC     A
        MOV     ?V0 + 7,A
//  804 
//  805   buf = osal_mem_alloc( dataLen );
        ; Setup parameters for call to function osal_mem_alloc
        MOV     R2,?V0 + 6
        LCALL   ??Subroutine219_0 & 0xFFFF
//  806   if ( buf != NULL )
??CrossCallReturnLabel_349:
        JZ      ??zcl_SendRead_0
//  807   {
//  808     uint8 i;
//  809 
//  810     // Load the buffer - serially
//  811     pBuf = buf;
        MOV     R0,?V0 + 0
        MOV     R1,?V0 + 1
//  812     for (i = 0; i < readCmd->numAttr; i++)
        MOV     ?V0 + 10,#0x0
        SJMP    ??zcl_SendRead_1
//  813     {
//  814       *pBuf++ = LO_UINT16( readCmd->attrID[i] );
??zcl_SendRead_2:
        MOV     A,?V0 + 10
        CLR     C
        RLC     A
        MOV     R2,A
        CLR     A
        RLC     A
        MOV     R3,A
        LCALL   ?Subroutine139 & 0xFFFF
??CrossCallReturnLabel_206:
        MOV     R2,DPL
        MOV     R3,DPH
        LCALL   ?Subroutine174 & 0xFFFF
//  815       *pBuf++ = HI_UINT16( readCmd->attrID[i] );
??CrossCallReturnLabel_258:
        MOV     DPL,R2
        MOV     DPH,R3
        LCALL   ?Subroutine165 & 0xFFFF
//  816     }
??CrossCallReturnLabel_299:
        INC     ?V0 + 10
??zcl_SendRead_1:
        MOV     DPL,?V0 + 4
        MOV     DPH,?V0 + 5
        MOVX    A,@DPTR
        MOV     R2,A
        MOV     A,?V0 + 10
        CLR     C
        SUBB    A,R2
        JC      ??zcl_SendRead_2
//  817 
//  818     status = zcl_SendCommand( srcEP, dstAddr, clusterID, ZCL_CMD_READ, FALSE,
//  819                               direction, disableDefaultRsp, 0, seqNum, dataLen, buf );
        ; Setup parameters for call to function zcl_SendCommand
        MOV     R0,#?V0 + 0
        LCALL   ?PUSH_XSTACK_I_TWO
        CFI CFA_XSP16 add(XSP16, 24)
        MOV     R0,#?V0 + 6
        LCALL   ?PUSH_XSTACK_I_TWO
        CFI CFA_XSP16 add(XSP16, 26)
        MOV     A,?V0 + 9
        MOV     ?V0 + 4,A
        MOV     R0,#?V0 + 4
        LCALL   ?PUSH_XSTACK_I_ONE
        CFI CFA_XSP16 add(XSP16, 27)
        CLR     A
        MOV     ?V0 + 4,A
        MOV     ?V0 + 5,A
        MOV     R0,#?V0 + 4
        LCALL   ?PUSH_XSTACK_I_TWO
        CFI CFA_XSP16 add(XSP16, 29)
        MOV     A,?V0 + 8
        MOV     ?V0 + 4,A
        MOV     R0,#?V0 + 4
        LCALL   ?PUSH_XSTACK_I_ONE
        CFI CFA_XSP16 add(XSP16, 30)
        MOV     R0,#?V0 + 3
        LCALL   ?PUSH_XSTACK_I_ONE
        CFI CFA_XSP16 add(XSP16, 31)
        MOV     ?V0 + 3,#0x0
        MOV     R0,#?V0 + 3
        LCALL   ?PUSH_XSTACK_I_ONE
        CFI CFA_XSP16 add(XSP16, 32)
        MOV     R0,#?V0 + 3
        LCALL   ?PUSH_XSTACK_I_ONE
        CFI CFA_XSP16 add(XSP16, 33)
        MOV     A,R6
        MOV     R4,A
        MOV     A,R7
        MOV     R5,A
        LCALL   ??Subroutine210_0 & 0xFFFF
??CrossCallReturnLabel_304:
        LCALL   ?DEALLOC_XSTACK8
        CFI CFA_XSP16 add(XSP16, 22)
        MOV     A,R1
        MOV     R6,A
//  820     osal_mem_free( buf );
        ; Setup parameters for call to function osal_mem_free
        MOV     R2,?V0 + 0
        MOV     R3,?V0 + 1
        LCALL   ??osal_mem_free?relay
        SJMP    ??zcl_SendRead_3
//  821   }
//  822   else
//  823   {
//  824     status = ZMemError;
??zcl_SendRead_0:
        MOV     R6,#0x10
//  825   }
//  826 
//  827   return ( status );
??zcl_SendRead_3:
        LJMP    ?Subroutine12 & 0xFFFF
        CFI EndBlock cfiBlock64
//  828 }

        RSEG BANKED_CODE:CODE:NOROOT(0)
?Subroutine165:
        CFI Block cfiCond65 Using cfiCommon0
        CFI NoFunction
        CFI Conditional ??CrossCallReturnLabel_299
        CFI R6 load(1, XDATA, add(CFA_XSP16, literal(-22)))
        CFI VB load(1, XDATA, add(CFA_XSP16, literal(-21)))
        CFI V0 load(1, XDATA, add(CFA_XSP16, literal(-20)))
        CFI V1 load(1, XDATA, add(CFA_XSP16, literal(-19)))
        CFI V2 load(1, XDATA, add(CFA_XSP16, literal(-18)))
        CFI V3 load(1, XDATA, add(CFA_XSP16, literal(-17)))
        CFI V4 load(1, XDATA, add(CFA_XSP16, literal(-16)))
        CFI V5 load(1, XDATA, add(CFA_XSP16, literal(-15)))
        CFI V6 load(1, XDATA, add(CFA_XSP16, literal(-14)))
        CFI V7 load(1, XDATA, add(CFA_XSP16, literal(-13)))
        CFI V8 load(1, XDATA, add(CFA_XSP16, literal(-12)))
        CFI V9 load(1, XDATA, add(CFA_XSP16, literal(-11)))
        CFI V10 load(1, XDATA, add(CFA_XSP16, literal(-10)))
        CFI V11 load(1, XDATA, add(CFA_XSP16, literal(-9)))
        CFI V12 load(1, XDATA, add(CFA_XSP16, literal(-8)))
        CFI V13 load(1, XDATA, add(CFA_XSP16, literal(-7)))
        CFI R7 load(1, XDATA, add(CFA_XSP16, literal(-6)))
        CFI ?RET_LOW load(1, XDATA, add(CFA_XSP16, literal(-5)))
        CFI ?RET_HIGH load(1, XDATA, add(CFA_XSP16, literal(-4)))
        CFI ?BRET_EXT load(1, XDATA, add(CFA_XSP16, literal(-3)))
        CFI DPL0 load(1, XDATA, add(CFA_XSP16, literal(-2)))
        CFI DPH0 load(1, XDATA, add(CFA_XSP16, literal(-1)))
        CFI CFA_SP SP+0
        CFI CFA_XSP16 add(XSP16, 22)
        CFI Block cfiCond66 Using cfiCommon0
        CFI (cfiCond66) NoFunction
        CFI (cfiCond66) Conditional ??CrossCallReturnLabel_300, ??CrossCallReturnLabel_4
        CFI (cfiCond66) R6 load(1, XDATA, add(CFA_XSP16, literal(-22)))
        CFI (cfiCond66) VB load(1, XDATA, add(CFA_XSP16, literal(-21)))
        CFI (cfiCond66) V0 load(1, XDATA, add(CFA_XSP16, literal(-20)))
        CFI (cfiCond66) V1 load(1, XDATA, add(CFA_XSP16, literal(-19)))
        CFI (cfiCond66) V2 load(1, XDATA, add(CFA_XSP16, literal(-18)))
        CFI (cfiCond66) V3 load(1, XDATA, add(CFA_XSP16, literal(-17)))
        CFI (cfiCond66) V4 load(1, XDATA, add(CFA_XSP16, literal(-16)))
        CFI (cfiCond66) V5 load(1, XDATA, add(CFA_XSP16, literal(-15)))
        CFI (cfiCond66) V6 load(1, XDATA, add(CFA_XSP16, literal(-14)))
        CFI (cfiCond66) V7 load(1, XDATA, add(CFA_XSP16, literal(-13)))
        CFI (cfiCond66) V8 load(1, XDATA, add(CFA_XSP16, literal(-12)))
        CFI (cfiCond66) V9 load(1, XDATA, add(CFA_XSP16, literal(-11)))
        CFI (cfiCond66) V10 load(1, XDATA, add(CFA_XSP16, literal(-10)))
        CFI (cfiCond66) V11 load(1, XDATA, add(CFA_XSP16, literal(-9)))
        CFI (cfiCond66) V12 load(1, XDATA, add(CFA_XSP16, literal(-8)))
        CFI (cfiCond66) V13 load(1, XDATA, add(CFA_XSP16, literal(-7)))
        CFI (cfiCond66) R7 load(1, XDATA, add(CFA_XSP16, literal(-6)))
        CFI (cfiCond66) ?RET_LOW load(1, XDATA, add(CFA_XSP16, literal(-5)))
        CFI (cfiCond66) ?RET_HIGH load(1, XDATA, add(CFA_XSP16, literal(-4)))
        CFI (cfiCond66) ?BRET_EXT load(1, XDATA, add(CFA_XSP16, literal(-3)))
        CFI (cfiCond66) DPL0 load(1, XDATA, add(CFA_XSP16, literal(-2)))
        CFI (cfiCond66) DPH0 load(1, XDATA, add(CFA_XSP16, literal(-1)))
        CFI (cfiCond66) CFA_SP SP+0
        CFI (cfiCond66) CFA_XSP16 add(XSP16, 22)
        CFI Block cfiCond67 Using cfiCommon0
        CFI (cfiCond67) NoFunction
        CFI (cfiCond67) Conditional ??CrossCallReturnLabel_300, ??CrossCallReturnLabel_5
        CFI (cfiCond67) R6 load(1, XDATA, add(CFA_XSP16, literal(-22)))
        CFI (cfiCond67) VB load(1, XDATA, add(CFA_XSP16, literal(-21)))
        CFI (cfiCond67) V0 load(1, XDATA, add(CFA_XSP16, literal(-20)))
        CFI (cfiCond67) V1 load(1, XDATA, add(CFA_XSP16, literal(-19)))
        CFI (cfiCond67) V2 load(1, XDATA, add(CFA_XSP16, literal(-18)))
        CFI (cfiCond67) V3 load(1, XDATA, add(CFA_XSP16, literal(-17)))
        CFI (cfiCond67) V4 load(1, XDATA, add(CFA_XSP16, literal(-16)))
        CFI (cfiCond67) V5 load(1, XDATA, add(CFA_XSP16, literal(-15)))
        CFI (cfiCond67) V6 load(1, XDATA, add(CFA_XSP16, literal(-14)))
        CFI (cfiCond67) V7 load(1, XDATA, add(CFA_XSP16, literal(-13)))
        CFI (cfiCond67) V8 load(1, XDATA, add(CFA_XSP16, literal(-12)))
        CFI (cfiCond67) V9 load(1, XDATA, add(CFA_XSP16, literal(-11)))
        CFI (cfiCond67) V10 load(1, XDATA, add(CFA_XSP16, literal(-10)))
        CFI (cfiCond67) V11 load(1, XDATA, add(CFA_XSP16, literal(-9)))
        CFI (cfiCond67) V12 load(1, XDATA, add(CFA_XSP16, literal(-8)))
        CFI (cfiCond67) V13 load(1, XDATA, add(CFA_XSP16, literal(-7)))
        CFI (cfiCond67) R7 load(1, XDATA, add(CFA_XSP16, literal(-6)))
        CFI (cfiCond67) ?RET_LOW load(1, XDATA, add(CFA_XSP16, literal(-5)))
        CFI (cfiCond67) ?RET_HIGH load(1, XDATA, add(CFA_XSP16, literal(-4)))
        CFI (cfiCond67) ?BRET_EXT load(1, XDATA, add(CFA_XSP16, literal(-3)))
        CFI (cfiCond67) DPL0 load(1, XDATA, add(CFA_XSP16, literal(-2)))
        CFI (cfiCond67) DPH0 load(1, XDATA, add(CFA_XSP16, literal(-1)))
        CFI (cfiCond67) CFA_SP SP+0
        CFI (cfiCond67) CFA_XSP16 add(XSP16, 22)
        CFI Block cfiPicker68 Using cfiCommon1
        CFI (cfiPicker68) NoFunction
        CFI (cfiPicker68) Picker
        INC     DPTR
        CFI EndBlock cfiCond65
        CFI EndBlock cfiCond66
        CFI EndBlock cfiCond67
        CFI EndBlock cfiPicker68
        REQUIRE ??Subroutine209_0
        ; // Fall through to label ??Subroutine209_0

        RSEG BANKED_CODE:CODE:NOROOT(0)
??Subroutine209_0:
        CFI Block cfiCond69 Using cfiCommon0
        CFI NoFunction
        CFI Conditional ??CrossCallReturnLabel_298, ??CrossCallReturnLabel_4
        CFI R6 load(1, XDATA, add(CFA_XSP16, literal(-22)))
        CFI VB load(1, XDATA, add(CFA_XSP16, literal(-21)))
        CFI V0 load(1, XDATA, add(CFA_XSP16, literal(-20)))
        CFI V1 load(1, XDATA, add(CFA_XSP16, literal(-19)))
        CFI V2 load(1, XDATA, add(CFA_XSP16, literal(-18)))
        CFI V3 load(1, XDATA, add(CFA_XSP16, literal(-17)))
        CFI V4 load(1, XDATA, add(CFA_XSP16, literal(-16)))
        CFI V5 load(1, XDATA, add(CFA_XSP16, literal(-15)))
        CFI V6 load(1, XDATA, add(CFA_XSP16, literal(-14)))
        CFI V7 load(1, XDATA, add(CFA_XSP16, literal(-13)))
        CFI V8 load(1, XDATA, add(CFA_XSP16, literal(-12)))
        CFI V9 load(1, XDATA, add(CFA_XSP16, literal(-11)))
        CFI V10 load(1, XDATA, add(CFA_XSP16, literal(-10)))
        CFI V11 load(1, XDATA, add(CFA_XSP16, literal(-9)))
        CFI V12 load(1, XDATA, add(CFA_XSP16, literal(-8)))
        CFI V13 load(1, XDATA, add(CFA_XSP16, literal(-7)))
        CFI R7 load(1, XDATA, add(CFA_XSP16, literal(-6)))
        CFI ?RET_LOW load(1, XDATA, add(CFA_XSP16, literal(-5)))
        CFI ?RET_HIGH load(1, XDATA, add(CFA_XSP16, literal(-4)))
        CFI ?BRET_EXT load(1, XDATA, add(CFA_XSP16, literal(-3)))
        CFI DPL0 load(1, XDATA, add(CFA_XSP16, literal(-2)))
        CFI DPH0 load(1, XDATA, add(CFA_XSP16, literal(-1)))
        CFI CFA_SP SP+0
        CFI CFA_XSP16 add(XSP16, 22)
        CFI Block cfiCond70 Using cfiCommon0
        CFI (cfiCond70) NoFunction
        CFI (cfiCond70) Conditional ??CrossCallReturnLabel_298, ??CrossCallReturnLabel_5
        CFI (cfiCond70) R6 load(1, XDATA, add(CFA_XSP16, literal(-22)))
        CFI (cfiCond70) VB load(1, XDATA, add(CFA_XSP16, literal(-21)))
        CFI (cfiCond70) V0 load(1, XDATA, add(CFA_XSP16, literal(-20)))
        CFI (cfiCond70) V1 load(1, XDATA, add(CFA_XSP16, literal(-19)))
        CFI (cfiCond70) V2 load(1, XDATA, add(CFA_XSP16, literal(-18)))
        CFI (cfiCond70) V3 load(1, XDATA, add(CFA_XSP16, literal(-17)))
        CFI (cfiCond70) V4 load(1, XDATA, add(CFA_XSP16, literal(-16)))
        CFI (cfiCond70) V5 load(1, XDATA, add(CFA_XSP16, literal(-15)))
        CFI (cfiCond70) V6 load(1, XDATA, add(CFA_XSP16, literal(-14)))
        CFI (cfiCond70) V7 load(1, XDATA, add(CFA_XSP16, literal(-13)))
        CFI (cfiCond70) V8 load(1, XDATA, add(CFA_XSP16, literal(-12)))
        CFI (cfiCond70) V9 load(1, XDATA, add(CFA_XSP16, literal(-11)))
        CFI (cfiCond70) V10 load(1, XDATA, add(CFA_XSP16, literal(-10)))
        CFI (cfiCond70) V11 load(1, XDATA, add(CFA_XSP16, literal(-9)))
        CFI (cfiCond70) V12 load(1, XDATA, add(CFA_XSP16, literal(-8)))
        CFI (cfiCond70) V13 load(1, XDATA, add(CFA_XSP16, literal(-7)))
        CFI (cfiCond70) R7 load(1, XDATA, add(CFA_XSP16, literal(-6)))
        CFI (cfiCond70) ?RET_LOW load(1, XDATA, add(CFA_XSP16, literal(-5)))
        CFI (cfiCond70) ?RET_HIGH load(1, XDATA, add(CFA_XSP16, literal(-4)))
        CFI (cfiCond70) ?BRET_EXT load(1, XDATA, add(CFA_XSP16, literal(-3)))
        CFI (cfiCond70) DPL0 load(1, XDATA, add(CFA_XSP16, literal(-2)))
        CFI (cfiCond70) DPH0 load(1, XDATA, add(CFA_XSP16, literal(-1)))
        CFI (cfiCond70) CFA_SP SP+0
        CFI (cfiCond70) CFA_XSP16 add(XSP16, 22)
        CFI Block cfiCond71 Using cfiCommon0
        CFI (cfiCond71) NoFunction
        CFI (cfiCond71) Conditional ??CrossCallReturnLabel_299
        CFI (cfiCond71) R6 load(1, XDATA, add(CFA_XSP16, literal(-22)))
        CFI (cfiCond71) VB load(1, XDATA, add(CFA_XSP16, literal(-21)))
        CFI (cfiCond71) V0 load(1, XDATA, add(CFA_XSP16, literal(-20)))
        CFI (cfiCond71) V1 load(1, XDATA, add(CFA_XSP16, literal(-19)))
        CFI (cfiCond71) V2 load(1, XDATA, add(CFA_XSP16, literal(-18)))
        CFI (cfiCond71) V3 load(1, XDATA, add(CFA_XSP16, literal(-17)))
        CFI (cfiCond71) V4 load(1, XDATA, add(CFA_XSP16, literal(-16)))
        CFI (cfiCond71) V5 load(1, XDATA, add(CFA_XSP16, literal(-15)))
        CFI (cfiCond71) V6 load(1, XDATA, add(CFA_XSP16, literal(-14)))
        CFI (cfiCond71) V7 load(1, XDATA, add(CFA_XSP16, literal(-13)))
        CFI (cfiCond71) V8 load(1, XDATA, add(CFA_XSP16, literal(-12)))
        CFI (cfiCond71) V9 load(1, XDATA, add(CFA_XSP16, literal(-11)))
        CFI (cfiCond71) V10 load(1, XDATA, add(CFA_XSP16, literal(-10)))
        CFI (cfiCond71) V11 load(1, XDATA, add(CFA_XSP16, literal(-9)))
        CFI (cfiCond71) V12 load(1, XDATA, add(CFA_XSP16, literal(-8)))
        CFI (cfiCond71) V13 load(1, XDATA, add(CFA_XSP16, literal(-7)))
        CFI (cfiCond71) R7 load(1, XDATA, add(CFA_XSP16, literal(-6)))
        CFI (cfiCond71) ?RET_LOW load(1, XDATA, add(CFA_XSP16, literal(-5)))
        CFI (cfiCond71) ?RET_HIGH load(1, XDATA, add(CFA_XSP16, literal(-4)))
        CFI (cfiCond71) ?BRET_EXT load(1, XDATA, add(CFA_XSP16, literal(-3)))
        CFI (cfiCond71) DPL0 load(1, XDATA, add(CFA_XSP16, literal(-2)))
        CFI (cfiCond71) DPH0 load(1, XDATA, add(CFA_XSP16, literal(-1)))
        CFI (cfiCond71) CFA_SP SP+0
        CFI (cfiCond71) CFA_XSP16 add(XSP16, 22)
        CFI Block cfiCond72 Using cfiCommon0
        CFI (cfiCond72) NoFunction
        CFI (cfiCond72) Conditional ??CrossCallReturnLabel_300, ??CrossCallReturnLabel_4
        CFI (cfiCond72) R6 load(1, XDATA, add(CFA_XSP16, literal(-22)))
        CFI (cfiCond72) VB load(1, XDATA, add(CFA_XSP16, literal(-21)))
        CFI (cfiCond72) V0 load(1, XDATA, add(CFA_XSP16, literal(-20)))
        CFI (cfiCond72) V1 load(1, XDATA, add(CFA_XSP16, literal(-19)))
        CFI (cfiCond72) V2 load(1, XDATA, add(CFA_XSP16, literal(-18)))
        CFI (cfiCond72) V3 load(1, XDATA, add(CFA_XSP16, literal(-17)))
        CFI (cfiCond72) V4 load(1, XDATA, add(CFA_XSP16, literal(-16)))
        CFI (cfiCond72) V5 load(1, XDATA, add(CFA_XSP16, literal(-15)))
        CFI (cfiCond72) V6 load(1, XDATA, add(CFA_XSP16, literal(-14)))
        CFI (cfiCond72) V7 load(1, XDATA, add(CFA_XSP16, literal(-13)))
        CFI (cfiCond72) V8 load(1, XDATA, add(CFA_XSP16, literal(-12)))
        CFI (cfiCond72) V9 load(1, XDATA, add(CFA_XSP16, literal(-11)))
        CFI (cfiCond72) V10 load(1, XDATA, add(CFA_XSP16, literal(-10)))
        CFI (cfiCond72) V11 load(1, XDATA, add(CFA_XSP16, literal(-9)))
        CFI (cfiCond72) V12 load(1, XDATA, add(CFA_XSP16, literal(-8)))
        CFI (cfiCond72) V13 load(1, XDATA, add(CFA_XSP16, literal(-7)))
        CFI (cfiCond72) R7 load(1, XDATA, add(CFA_XSP16, literal(-6)))
        CFI (cfiCond72) ?RET_LOW load(1, XDATA, add(CFA_XSP16, literal(-5)))
        CFI (cfiCond72) ?RET_HIGH load(1, XDATA, add(CFA_XSP16, literal(-4)))
        CFI (cfiCond72) ?BRET_EXT load(1, XDATA, add(CFA_XSP16, literal(-3)))
        CFI (cfiCond72) DPL0 load(1, XDATA, add(CFA_XSP16, literal(-2)))
        CFI (cfiCond72) DPH0 load(1, XDATA, add(CFA_XSP16, literal(-1)))
        CFI (cfiCond72) CFA_SP SP+0
        CFI (cfiCond72) CFA_XSP16 add(XSP16, 22)
        CFI Block cfiCond73 Using cfiCommon0
        CFI (cfiCond73) NoFunction
        CFI (cfiCond73) Conditional ??CrossCallReturnLabel_300, ??CrossCallReturnLabel_5
        CFI (cfiCond73) R6 load(1, XDATA, add(CFA_XSP16, literal(-22)))
        CFI (cfiCond73) VB load(1, XDATA, add(CFA_XSP16, literal(-21)))
        CFI (cfiCond73) V0 load(1, XDATA, add(CFA_XSP16, literal(-20)))
        CFI (cfiCond73) V1 load(1, XDATA, add(CFA_XSP16, literal(-19)))
        CFI (cfiCond73) V2 load(1, XDATA, add(CFA_XSP16, literal(-18)))
        CFI (cfiCond73) V3 load(1, XDATA, add(CFA_XSP16, literal(-17)))
        CFI (cfiCond73) V4 load(1, XDATA, add(CFA_XSP16, literal(-16)))
        CFI (cfiCond73) V5 load(1, XDATA, add(CFA_XSP16, literal(-15)))
        CFI (cfiCond73) V6 load(1, XDATA, add(CFA_XSP16, literal(-14)))
        CFI (cfiCond73) V7 load(1, XDATA, add(CFA_XSP16, literal(-13)))
        CFI (cfiCond73) V8 load(1, XDATA, add(CFA_XSP16, literal(-12)))
        CFI (cfiCond73) V9 load(1, XDATA, add(CFA_XSP16, literal(-11)))
        CFI (cfiCond73) V10 load(1, XDATA, add(CFA_XSP16, literal(-10)))
        CFI (cfiCond73) V11 load(1, XDATA, add(CFA_XSP16, literal(-9)))
        CFI (cfiCond73) V12 load(1, XDATA, add(CFA_XSP16, literal(-8)))
        CFI (cfiCond73) V13 load(1, XDATA, add(CFA_XSP16, literal(-7)))
        CFI (cfiCond73) R7 load(1, XDATA, add(CFA_XSP16, literal(-6)))
        CFI (cfiCond73) ?RET_LOW load(1, XDATA, add(CFA_XSP16, literal(-5)))
        CFI (cfiCond73) ?RET_HIGH load(1, XDATA, add(CFA_XSP16, literal(-4)))
        CFI (cfiCond73) ?BRET_EXT load(1, XDATA, add(CFA_XSP16, literal(-3)))
        CFI (cfiCond73) DPL0 load(1, XDATA, add(CFA_XSP16, literal(-2)))
        CFI (cfiCond73) DPH0 load(1, XDATA, add(CFA_XSP16, literal(-1)))
        CFI (cfiCond73) CFA_SP SP+0
        CFI (cfiCond73) CFA_XSP16 add(XSP16, 22)
        CFI Block cfiPicker74 Using cfiCommon1
        CFI (cfiPicker74) NoFunction
        CFI (cfiPicker74) Picker
        MOVX    A,@DPTR
        MOV     DPL,R0
        MOV     DPH,R1
        MOVX    @DPTR,A
        INC     DPTR
        INC     R0
        MOV     R1,DPH
        RET
        CFI EndBlock cfiCond69
        CFI EndBlock cfiCond70
        CFI EndBlock cfiCond71
        CFI EndBlock cfiCond72
        CFI EndBlock cfiCond73
        CFI EndBlock cfiPicker74

        RSEG BANKED_CODE:CODE:NOROOT(0)
?Subroutine136:
        CFI Block cfiCond75 Using cfiCommon0
        CFI NoFunction
        CFI Conditional ??CrossCallReturnLabel_301
        CFI R6 load(1, XDATA, add(CFA_XSP16, literal(-22)))
        CFI VB load(1, XDATA, add(CFA_XSP16, literal(-21)))
        CFI V0 load(1, XDATA, add(CFA_XSP16, literal(-20)))
        CFI V1 load(1, XDATA, add(CFA_XSP16, literal(-19)))
        CFI V2 load(1, XDATA, add(CFA_XSP16, literal(-18)))
        CFI V3 load(1, XDATA, add(CFA_XSP16, literal(-17)))
        CFI V4 load(1, XDATA, add(CFA_XSP16, literal(-16)))
        CFI V5 load(1, XDATA, add(CFA_XSP16, literal(-15)))
        CFI V6 load(1, XDATA, add(CFA_XSP16, literal(-14)))
        CFI V7 load(1, XDATA, add(CFA_XSP16, literal(-13)))
        CFI V8 load(1, XDATA, add(CFA_XSP16, literal(-12)))
        CFI V9 load(1, XDATA, add(CFA_XSP16, literal(-11)))
        CFI V10 load(1, XDATA, add(CFA_XSP16, literal(-10)))
        CFI V11 load(1, XDATA, add(CFA_XSP16, literal(-9)))
        CFI V12 load(1, XDATA, add(CFA_XSP16, literal(-8)))
        CFI V13 load(1, XDATA, add(CFA_XSP16, literal(-7)))
        CFI R7 load(1, XDATA, add(CFA_XSP16, literal(-6)))
        CFI ?RET_LOW load(1, XDATA, add(CFA_XSP16, literal(-5)))
        CFI ?RET_HIGH load(1, XDATA, add(CFA_XSP16, literal(-4)))
        CFI ?BRET_EXT load(1, XDATA, add(CFA_XSP16, literal(-3)))
        CFI DPL0 load(1, XDATA, add(CFA_XSP16, literal(-2)))
        CFI DPH0 load(1, XDATA, add(CFA_XSP16, literal(-1)))
        CFI CFA_SP SP+0
        CFI CFA_XSP16 add(XSP16, 33)
        CFI Block cfiCond76 Using cfiCommon0
        CFI (cfiCond76) NoFunction
        CFI (cfiCond76) Conditional ??CrossCallReturnLabel_302
        CFI (cfiCond76) R6 load(1, XDATA, add(CFA_XSP16, literal(-22)))
        CFI (cfiCond76) VB load(1, XDATA, add(CFA_XSP16, literal(-21)))
        CFI (cfiCond76) V0 load(1, XDATA, add(CFA_XSP16, literal(-20)))
        CFI (cfiCond76) V1 load(1, XDATA, add(CFA_XSP16, literal(-19)))
        CFI (cfiCond76) V2 load(1, XDATA, add(CFA_XSP16, literal(-18)))
        CFI (cfiCond76) V3 load(1, XDATA, add(CFA_XSP16, literal(-17)))
        CFI (cfiCond76) V4 load(1, XDATA, add(CFA_XSP16, literal(-16)))
        CFI (cfiCond76) V5 load(1, XDATA, add(CFA_XSP16, literal(-15)))
        CFI (cfiCond76) V6 load(1, XDATA, add(CFA_XSP16, literal(-14)))
        CFI (cfiCond76) V7 load(1, XDATA, add(CFA_XSP16, literal(-13)))
        CFI (cfiCond76) V8 load(1, XDATA, add(CFA_XSP16, literal(-12)))
        CFI (cfiCond76) V9 load(1, XDATA, add(CFA_XSP16, literal(-11)))
        CFI (cfiCond76) V10 load(1, XDATA, add(CFA_XSP16, literal(-10)))
        CFI (cfiCond76) V11 load(1, XDATA, add(CFA_XSP16, literal(-9)))
        CFI (cfiCond76) V12 load(1, XDATA, add(CFA_XSP16, literal(-8)))
        CFI (cfiCond76) V13 load(1, XDATA, add(CFA_XSP16, literal(-7)))
        CFI (cfiCond76) R7 load(1, XDATA, add(CFA_XSP16, literal(-6)))
        CFI (cfiCond76) ?RET_LOW load(1, XDATA, add(CFA_XSP16, literal(-5)))
        CFI (cfiCond76) ?RET_HIGH load(1, XDATA, add(CFA_XSP16, literal(-4)))
        CFI (cfiCond76) ?BRET_EXT load(1, XDATA, add(CFA_XSP16, literal(-3)))
        CFI (cfiCond76) DPL0 load(1, XDATA, add(CFA_XSP16, literal(-2)))
        CFI (cfiCond76) DPH0 load(1, XDATA, add(CFA_XSP16, literal(-1)))
        CFI (cfiCond76) CFA_SP SP+0
        CFI (cfiCond76) CFA_XSP16 add(XSP16, 33)
        CFI Block cfiCond77 Using cfiCommon0
        CFI (cfiCond77) NoFunction
        CFI (cfiCond77) Conditional ??CrossCallReturnLabel_303
        CFI (cfiCond77) R6 load(1, XDATA, add(CFA_XSP16, literal(-22)))
        CFI (cfiCond77) VB load(1, XDATA, add(CFA_XSP16, literal(-21)))
        CFI (cfiCond77) V0 load(1, XDATA, add(CFA_XSP16, literal(-20)))
        CFI (cfiCond77) V1 load(1, XDATA, add(CFA_XSP16, literal(-19)))
        CFI (cfiCond77) V2 load(1, XDATA, add(CFA_XSP16, literal(-18)))
        CFI (cfiCond77) V3 load(1, XDATA, add(CFA_XSP16, literal(-17)))
        CFI (cfiCond77) V4 load(1, XDATA, add(CFA_XSP16, literal(-16)))
        CFI (cfiCond77) V5 load(1, XDATA, add(CFA_XSP16, literal(-15)))
        CFI (cfiCond77) V6 load(1, XDATA, add(CFA_XSP16, literal(-14)))
        CFI (cfiCond77) V7 load(1, XDATA, add(CFA_XSP16, literal(-13)))
        CFI (cfiCond77) V8 load(1, XDATA, add(CFA_XSP16, literal(-12)))
        CFI (cfiCond77) V9 load(1, XDATA, add(CFA_XSP16, literal(-11)))
        CFI (cfiCond77) V10 load(1, XDATA, add(CFA_XSP16, literal(-10)))
        CFI (cfiCond77) V11 load(1, XDATA, add(CFA_XSP16, literal(-9)))
        CFI (cfiCond77) V12 load(1, XDATA, add(CFA_XSP16, literal(-8)))
        CFI (cfiCond77) V13 load(1, XDATA, add(CFA_XSP16, literal(-7)))
        CFI (cfiCond77) R7 load(1, XDATA, add(CFA_XSP16, literal(-6)))
        CFI (cfiCond77) ?RET_LOW load(1, XDATA, add(CFA_XSP16, literal(-5)))
        CFI (cfiCond77) ?RET_HIGH load(1, XDATA, add(CFA_XSP16, literal(-4)))
        CFI (cfiCond77) ?BRET_EXT load(1, XDATA, add(CFA_XSP16, literal(-3)))
        CFI (cfiCond77) DPL0 load(1, XDATA, add(CFA_XSP16, literal(-2)))
        CFI (cfiCond77) DPH0 load(1, XDATA, add(CFA_XSP16, literal(-1)))
        CFI (cfiCond77) CFA_SP SP+0
        CFI (cfiCond77) CFA_XSP16 add(XSP16, 33)
        CFI Block cfiPicker78 Using cfiCommon1
        CFI (cfiPicker78) NoFunction
        CFI (cfiPicker78) Picker
        MOV     R4,?V0 + 10
        MOV     R5,?V0 + 11
        CFI EndBlock cfiCond75
        CFI EndBlock cfiCond76
        CFI EndBlock cfiCond77
        CFI EndBlock cfiPicker78
        REQUIRE ??Subroutine210_0
        ; // Fall through to label ??Subroutine210_0

        RSEG BANKED_CODE:CODE:NOROOT(0)
??Subroutine210_0:
        CFI Block cfiCond79 Using cfiCommon0
        CFI NoFunction
        CFI Conditional ??CrossCallReturnLabel_304
        CFI R6 load(1, XDATA, add(CFA_XSP16, literal(-22)))
        CFI VB load(1, XDATA, add(CFA_XSP16, literal(-21)))
        CFI V0 load(1, XDATA, add(CFA_XSP16, literal(-20)))
        CFI V1 load(1, XDATA, add(CFA_XSP16, literal(-19)))
        CFI V2 load(1, XDATA, add(CFA_XSP16, literal(-18)))
        CFI V3 load(1, XDATA, add(CFA_XSP16, literal(-17)))
        CFI V4 load(1, XDATA, add(CFA_XSP16, literal(-16)))
        CFI V5 load(1, XDATA, add(CFA_XSP16, literal(-15)))
        CFI V6 load(1, XDATA, add(CFA_XSP16, literal(-14)))
        CFI V7 load(1, XDATA, add(CFA_XSP16, literal(-13)))
        CFI V8 load(1, XDATA, add(CFA_XSP16, literal(-12)))
        CFI V9 load(1, XDATA, add(CFA_XSP16, literal(-11)))
        CFI V10 load(1, XDATA, add(CFA_XSP16, literal(-10)))
        CFI V11 load(1, XDATA, add(CFA_XSP16, literal(-9)))
        CFI V12 load(1, XDATA, add(CFA_XSP16, literal(-8)))
        CFI V13 load(1, XDATA, add(CFA_XSP16, literal(-7)))
        CFI R7 load(1, XDATA, add(CFA_XSP16, literal(-6)))
        CFI ?RET_LOW load(1, XDATA, add(CFA_XSP16, literal(-5)))
        CFI ?RET_HIGH load(1, XDATA, add(CFA_XSP16, literal(-4)))
        CFI ?BRET_EXT load(1, XDATA, add(CFA_XSP16, literal(-3)))
        CFI DPL0 load(1, XDATA, add(CFA_XSP16, literal(-2)))
        CFI DPH0 load(1, XDATA, add(CFA_XSP16, literal(-1)))
        CFI CFA_SP SP+0
        CFI CFA_XSP16 add(XSP16, 33)
        CFI Block cfiCond80 Using cfiCommon0
        CFI (cfiCond80) NoFunction
        CFI (cfiCond80) Conditional ??CrossCallReturnLabel_301
        CFI (cfiCond80) R6 load(1, XDATA, add(CFA_XSP16, literal(-22)))
        CFI (cfiCond80) VB load(1, XDATA, add(CFA_XSP16, literal(-21)))
        CFI (cfiCond80) V0 load(1, XDATA, add(CFA_XSP16, literal(-20)))
        CFI (cfiCond80) V1 load(1, XDATA, add(CFA_XSP16, literal(-19)))
        CFI (cfiCond80) V2 load(1, XDATA, add(CFA_XSP16, literal(-18)))
        CFI (cfiCond80) V3 load(1, XDATA, add(CFA_XSP16, literal(-17)))
        CFI (cfiCond80) V4 load(1, XDATA, add(CFA_XSP16, literal(-16)))
        CFI (cfiCond80) V5 load(1, XDATA, add(CFA_XSP16, literal(-15)))
        CFI (cfiCond80) V6 load(1, XDATA, add(CFA_XSP16, literal(-14)))
        CFI (cfiCond80) V7 load(1, XDATA, add(CFA_XSP16, literal(-13)))
        CFI (cfiCond80) V8 load(1, XDATA, add(CFA_XSP16, literal(-12)))
        CFI (cfiCond80) V9 load(1, XDATA, add(CFA_XSP16, literal(-11)))
        CFI (cfiCond80) V10 load(1, XDATA, add(CFA_XSP16, literal(-10)))
        CFI (cfiCond80) V11 load(1, XDATA, add(CFA_XSP16, literal(-9)))
        CFI (cfiCond80) V12 load(1, XDATA, add(CFA_XSP16, literal(-8)))
        CFI (cfiCond80) V13 load(1, XDATA, add(CFA_XSP16, literal(-7)))
        CFI (cfiCond80) R7 load(1, XDATA, add(CFA_XSP16, literal(-6)))
        CFI (cfiCond80) ?RET_LOW load(1, XDATA, add(CFA_XSP16, literal(-5)))
        CFI (cfiCond80) ?RET_HIGH load(1, XDATA, add(CFA_XSP16, literal(-4)))
        CFI (cfiCond80) ?BRET_EXT load(1, XDATA, add(CFA_XSP16, literal(-3)))
        CFI (cfiCond80) DPL0 load(1, XDATA, add(CFA_XSP16, literal(-2)))
        CFI (cfiCond80) DPH0 load(1, XDATA, add(CFA_XSP16, literal(-1)))
        CFI (cfiCond80) CFA_SP SP+0
        CFI (cfiCond80) CFA_XSP16 add(XSP16, 33)
        CFI Block cfiCond81 Using cfiCommon0
        CFI (cfiCond81) NoFunction
        CFI (cfiCond81) Conditional ??CrossCallReturnLabel_302
        CFI (cfiCond81) R6 load(1, XDATA, add(CFA_XSP16, literal(-22)))
        CFI (cfiCond81) VB load(1, XDATA, add(CFA_XSP16, literal(-21)))
        CFI (cfiCond81) V0 load(1, XDATA, add(CFA_XSP16, literal(-20)))
        CFI (cfiCond81) V1 load(1, XDATA, add(CFA_XSP16, literal(-19)))
        CFI (cfiCond81) V2 load(1, XDATA, add(CFA_XSP16, literal(-18)))
        CFI (cfiCond81) V3 load(1, XDATA, add(CFA_XSP16, literal(-17)))
        CFI (cfiCond81) V4 load(1, XDATA, add(CFA_XSP16, literal(-16)))
        CFI (cfiCond81) V5 load(1, XDATA, add(CFA_XSP16, literal(-15)))
        CFI (cfiCond81) V6 load(1, XDATA, add(CFA_XSP16, literal(-14)))
        CFI (cfiCond81) V7 load(1, XDATA, add(CFA_XSP16, literal(-13)))
        CFI (cfiCond81) V8 load(1, XDATA, add(CFA_XSP16, literal(-12)))
        CFI (cfiCond81) V9 load(1, XDATA, add(CFA_XSP16, literal(-11)))
        CFI (cfiCond81) V10 load(1, XDATA, add(CFA_XSP16, literal(-10)))
        CFI (cfiCond81) V11 load(1, XDATA, add(CFA_XSP16, literal(-9)))
        CFI (cfiCond81) V12 load(1, XDATA, add(CFA_XSP16, literal(-8)))
        CFI (cfiCond81) V13 load(1, XDATA, add(CFA_XSP16, literal(-7)))
        CFI (cfiCond81) R7 load(1, XDATA, add(CFA_XSP16, literal(-6)))
        CFI (cfiCond81) ?RET_LOW load(1, XDATA, add(CFA_XSP16, literal(-5)))
        CFI (cfiCond81) ?RET_HIGH load(1, XDATA, add(CFA_XSP16, literal(-4)))
        CFI (cfiCond81) ?BRET_EXT load(1, XDATA, add(CFA_XSP16, literal(-3)))
        CFI (cfiCond81) DPL0 load(1, XDATA, add(CFA_XSP16, literal(-2)))
        CFI (cfiCond81) DPH0 load(1, XDATA, add(CFA_XSP16, literal(-1)))
        CFI (cfiCond81) CFA_SP SP+0
        CFI (cfiCond81) CFA_XSP16 add(XSP16, 33)
        CFI Block cfiCond82 Using cfiCommon0
        CFI (cfiCond82) NoFunction
        CFI (cfiCond82) Conditional ??CrossCallReturnLabel_303
        CFI (cfiCond82) R6 load(1, XDATA, add(CFA_XSP16, literal(-22)))
        CFI (cfiCond82) VB load(1, XDATA, add(CFA_XSP16, literal(-21)))
        CFI (cfiCond82) V0 load(1, XDATA, add(CFA_XSP16, literal(-20)))
        CFI (cfiCond82) V1 load(1, XDATA, add(CFA_XSP16, literal(-19)))
        CFI (cfiCond82) V2 load(1, XDATA, add(CFA_XSP16, literal(-18)))
        CFI (cfiCond82) V3 load(1, XDATA, add(CFA_XSP16, literal(-17)))
        CFI (cfiCond82) V4 load(1, XDATA, add(CFA_XSP16, literal(-16)))
        CFI (cfiCond82) V5 load(1, XDATA, add(CFA_XSP16, literal(-15)))
        CFI (cfiCond82) V6 load(1, XDATA, add(CFA_XSP16, literal(-14)))
        CFI (cfiCond82) V7 load(1, XDATA, add(CFA_XSP16, literal(-13)))
        CFI (cfiCond82) V8 load(1, XDATA, add(CFA_XSP16, literal(-12)))
        CFI (cfiCond82) V9 load(1, XDATA, add(CFA_XSP16, literal(-11)))
        CFI (cfiCond82) V10 load(1, XDATA, add(CFA_XSP16, literal(-10)))
        CFI (cfiCond82) V11 load(1, XDATA, add(CFA_XSP16, literal(-9)))
        CFI (cfiCond82) V12 load(1, XDATA, add(CFA_XSP16, literal(-8)))
        CFI (cfiCond82) V13 load(1, XDATA, add(CFA_XSP16, literal(-7)))
        CFI (cfiCond82) R7 load(1, XDATA, add(CFA_XSP16, literal(-6)))
        CFI (cfiCond82) ?RET_LOW load(1, XDATA, add(CFA_XSP16, literal(-5)))
        CFI (cfiCond82) ?RET_HIGH load(1, XDATA, add(CFA_XSP16, literal(-4)))
        CFI (cfiCond82) ?BRET_EXT load(1, XDATA, add(CFA_XSP16, literal(-3)))
        CFI (cfiCond82) DPL0 load(1, XDATA, add(CFA_XSP16, literal(-2)))
        CFI (cfiCond82) DPH0 load(1, XDATA, add(CFA_XSP16, literal(-1)))
        CFI (cfiCond82) CFA_SP SP+0
        CFI (cfiCond82) CFA_XSP16 add(XSP16, 33)
        CFI Block cfiPicker83 Using cfiCommon1
        CFI (cfiPicker83) NoFunction
        CFI (cfiPicker83) Picker
        MOV     R2,?V0 + 12
        MOV     R3,?V0 + 13
        MOV     R1,?V0 + 2
        CFI EndBlock cfiCond79
        CFI EndBlock cfiCond80
        CFI EndBlock cfiCond81
        CFI EndBlock cfiCond82
        CFI EndBlock cfiPicker83
        REQUIRE ??Subroutine211_0
        ; // Fall through to label ??Subroutine211_0

        RSEG BANKED_CODE:CODE:NOROOT(0)
??Subroutine211_0:
        CFI Block cfiCond84 Using cfiCommon0
        CFI NoFunction
        CFI Conditional ??CrossCallReturnLabel_305
        CFI R6 load(1, XDATA, add(CFA_XSP16, literal(-24)))
        CFI VB load(1, XDATA, add(CFA_XSP16, literal(-23)))
        CFI V0 load(1, XDATA, add(CFA_XSP16, literal(-22)))
        CFI V1 load(1, XDATA, add(CFA_XSP16, literal(-21)))
        CFI V2 load(1, XDATA, add(CFA_XSP16, literal(-20)))
        CFI V3 load(1, XDATA, add(CFA_XSP16, literal(-19)))
        CFI V4 load(1, XDATA, add(CFA_XSP16, literal(-18)))
        CFI V5 load(1, XDATA, add(CFA_XSP16, literal(-17)))
        CFI V6 load(1, XDATA, add(CFA_XSP16, literal(-16)))
        CFI V7 load(1, XDATA, add(CFA_XSP16, literal(-15)))
        CFI V8 load(1, XDATA, add(CFA_XSP16, literal(-14)))
        CFI V9 load(1, XDATA, add(CFA_XSP16, literal(-13)))
        CFI V10 load(1, XDATA, add(CFA_XSP16, literal(-12)))
        CFI V11 load(1, XDATA, add(CFA_XSP16, literal(-11)))
        CFI V12 load(1, XDATA, add(CFA_XSP16, literal(-10)))
        CFI V13 load(1, XDATA, add(CFA_XSP16, literal(-9)))
        CFI V14 load(1, XDATA, add(CFA_XSP16, literal(-8)))
        CFI V15 load(1, XDATA, add(CFA_XSP16, literal(-7)))
        CFI R7 load(1, XDATA, add(CFA_XSP16, literal(-6)))
        CFI ?RET_LOW load(1, XDATA, add(CFA_XSP16, literal(-5)))
        CFI ?RET_HIGH load(1, XDATA, add(CFA_XSP16, literal(-4)))
        CFI ?BRET_EXT load(1, XDATA, add(CFA_XSP16, literal(-3)))
        CFI DPL0 load(1, XDATA, add(CFA_XSP16, literal(-2)))
        CFI DPH0 load(1, XDATA, add(CFA_XSP16, literal(-1)))
        CFI CFA_SP SP+0
        CFI CFA_XSP16 add(XSP16, 39)
        CFI Block cfiCond85 Using cfiCommon0
        CFI (cfiCond85) NoFunction
        CFI (cfiCond85) Conditional ??CrossCallReturnLabel_306
        CFI (cfiCond85) R6 load(1, XDATA, add(CFA_XSP16, literal(-24)))
        CFI (cfiCond85) VB load(1, XDATA, add(CFA_XSP16, literal(-23)))
        CFI (cfiCond85) V0 load(1, XDATA, add(CFA_XSP16, literal(-22)))
        CFI (cfiCond85) V1 load(1, XDATA, add(CFA_XSP16, literal(-21)))
        CFI (cfiCond85) V2 load(1, XDATA, add(CFA_XSP16, literal(-20)))
        CFI (cfiCond85) V3 load(1, XDATA, add(CFA_XSP16, literal(-19)))
        CFI (cfiCond85) V4 load(1, XDATA, add(CFA_XSP16, literal(-18)))
        CFI (cfiCond85) V5 load(1, XDATA, add(CFA_XSP16, literal(-17)))
        CFI (cfiCond85) V6 load(1, XDATA, add(CFA_XSP16, literal(-16)))
        CFI (cfiCond85) V7 load(1, XDATA, add(CFA_XSP16, literal(-15)))
        CFI (cfiCond85) V8 load(1, XDATA, add(CFA_XSP16, literal(-14)))
        CFI (cfiCond85) V9 load(1, XDATA, add(CFA_XSP16, literal(-13)))
        CFI (cfiCond85) V10 load(1, XDATA, add(CFA_XSP16, literal(-12)))
        CFI (cfiCond85) V11 load(1, XDATA, add(CFA_XSP16, literal(-11)))
        CFI (cfiCond85) V12 load(1, XDATA, add(CFA_XSP16, literal(-10)))
        CFI (cfiCond85) V13 load(1, XDATA, add(CFA_XSP16, literal(-9)))
        CFI (cfiCond85) V14 load(1, XDATA, add(CFA_XSP16, literal(-8)))
        CFI (cfiCond85) V15 load(1, XDATA, add(CFA_XSP16, literal(-7)))
        CFI (cfiCond85) R7 load(1, XDATA, add(CFA_XSP16, literal(-6)))
        CFI (cfiCond85) ?RET_LOW load(1, XDATA, add(CFA_XSP16, literal(-5)))
        CFI (cfiCond85) ?RET_HIGH load(1, XDATA, add(CFA_XSP16, literal(-4)))
        CFI (cfiCond85) ?BRET_EXT load(1, XDATA, add(CFA_XSP16, literal(-3)))
        CFI (cfiCond85) DPL0 load(1, XDATA, add(CFA_XSP16, literal(-2)))
        CFI (cfiCond85) DPH0 load(1, XDATA, add(CFA_XSP16, literal(-1)))
        CFI (cfiCond85) CFA_SP SP+0
        CFI (cfiCond85) CFA_XSP16 add(XSP16, 35)
        CFI Block cfiCond86 Using cfiCommon0
        CFI (cfiCond86) NoFunction
        CFI (cfiCond86) Conditional ??CrossCallReturnLabel_307
        CFI (cfiCond86) R6 load(1, XDATA, add(CFA_XSP16, literal(-24)))
        CFI (cfiCond86) VB load(1, XDATA, add(CFA_XSP16, literal(-23)))
        CFI (cfiCond86) V0 load(1, XDATA, add(CFA_XSP16, literal(-22)))
        CFI (cfiCond86) V1 load(1, XDATA, add(CFA_XSP16, literal(-21)))
        CFI (cfiCond86) V2 load(1, XDATA, add(CFA_XSP16, literal(-20)))
        CFI (cfiCond86) V3 load(1, XDATA, add(CFA_XSP16, literal(-19)))
        CFI (cfiCond86) V4 load(1, XDATA, add(CFA_XSP16, literal(-18)))
        CFI (cfiCond86) V5 load(1, XDATA, add(CFA_XSP16, literal(-17)))
        CFI (cfiCond86) V6 load(1, XDATA, add(CFA_XSP16, literal(-16)))
        CFI (cfiCond86) V7 load(1, XDATA, add(CFA_XSP16, literal(-15)))
        CFI (cfiCond86) V8 load(1, XDATA, add(CFA_XSP16, literal(-14)))
        CFI (cfiCond86) V9 load(1, XDATA, add(CFA_XSP16, literal(-13)))
        CFI (cfiCond86) V10 load(1, XDATA, add(CFA_XSP16, literal(-12)))
        CFI (cfiCond86) V11 load(1, XDATA, add(CFA_XSP16, literal(-11)))
        CFI (cfiCond86) V12 load(1, XDATA, add(CFA_XSP16, literal(-10)))
        CFI (cfiCond86) V13 load(1, XDATA, add(CFA_XSP16, literal(-9)))
        CFI (cfiCond86) V14 load(1, XDATA, add(CFA_XSP16, literal(-8)))
        CFI (cfiCond86) V15 load(1, XDATA, add(CFA_XSP16, literal(-7)))
        CFI (cfiCond86) R7 load(1, XDATA, add(CFA_XSP16, literal(-6)))
        CFI (cfiCond86) ?RET_LOW load(1, XDATA, add(CFA_XSP16, literal(-5)))
        CFI (cfiCond86) ?RET_HIGH load(1, XDATA, add(CFA_XSP16, literal(-4)))
        CFI (cfiCond86) ?BRET_EXT load(1, XDATA, add(CFA_XSP16, literal(-3)))
        CFI (cfiCond86) DPL0 load(1, XDATA, add(CFA_XSP16, literal(-2)))
        CFI (cfiCond86) DPH0 load(1, XDATA, add(CFA_XSP16, literal(-1)))
        CFI (cfiCond86) CFA_SP SP+0
        CFI (cfiCond86) CFA_XSP16 add(XSP16, 35)
        CFI Block cfiCond87 Using cfiCommon0
        CFI (cfiCond87) NoFunction
        CFI (cfiCond87) Conditional ??CrossCallReturnLabel_308
        CFI (cfiCond87) R6 load(1, XDATA, add(CFA_XSP16, literal(-14)))
        CFI (cfiCond87) VB load(1, XDATA, add(CFA_XSP16, literal(-13)))
        CFI (cfiCond87) V0 load(1, XDATA, add(CFA_XSP16, literal(-12)))
        CFI (cfiCond87) V1 load(1, XDATA, add(CFA_XSP16, literal(-11)))
        CFI (cfiCond87) V2 load(1, XDATA, add(CFA_XSP16, literal(-10)))
        CFI (cfiCond87) V3 load(1, XDATA, add(CFA_XSP16, literal(-9)))
        CFI (cfiCond87) V4 load(1, XDATA, add(CFA_XSP16, literal(-8)))
        CFI (cfiCond87) V5 load(1, XDATA, add(CFA_XSP16, literal(-7)))
        CFI (cfiCond87) R7 load(1, XDATA, add(CFA_XSP16, literal(-6)))
        CFI (cfiCond87) ?RET_LOW load(1, XDATA, add(CFA_XSP16, literal(-5)))
        CFI (cfiCond87) ?RET_HIGH load(1, XDATA, add(CFA_XSP16, literal(-4)))
        CFI (cfiCond87) ?BRET_EXT load(1, XDATA, add(CFA_XSP16, literal(-3)))
        CFI (cfiCond87) DPL0 load(1, XDATA, add(CFA_XSP16, literal(-2)))
        CFI (cfiCond87) DPH0 load(1, XDATA, add(CFA_XSP16, literal(-1)))
        CFI (cfiCond87) CFA_SP SP+0
        CFI (cfiCond87) CFA_XSP16 add(XSP16, 27)
        CFI Block cfiCond88 Using cfiCommon0
        CFI (cfiCond88) NoFunction
        CFI (cfiCond88) Conditional ??CrossCallReturnLabel_304
        CFI (cfiCond88) R6 load(1, XDATA, add(CFA_XSP16, literal(-22)))
        CFI (cfiCond88) VB load(1, XDATA, add(CFA_XSP16, literal(-21)))
        CFI (cfiCond88) V0 load(1, XDATA, add(CFA_XSP16, literal(-20)))
        CFI (cfiCond88) V1 load(1, XDATA, add(CFA_XSP16, literal(-19)))
        CFI (cfiCond88) V2 load(1, XDATA, add(CFA_XSP16, literal(-18)))
        CFI (cfiCond88) V3 load(1, XDATA, add(CFA_XSP16, literal(-17)))
        CFI (cfiCond88) V4 load(1, XDATA, add(CFA_XSP16, literal(-16)))
        CFI (cfiCond88) V5 load(1, XDATA, add(CFA_XSP16, literal(-15)))
        CFI (cfiCond88) V6 load(1, XDATA, add(CFA_XSP16, literal(-14)))
        CFI (cfiCond88) V7 load(1, XDATA, add(CFA_XSP16, literal(-13)))
        CFI (cfiCond88) V8 load(1, XDATA, add(CFA_XSP16, literal(-12)))
        CFI (cfiCond88) V9 load(1, XDATA, add(CFA_XSP16, literal(-11)))
        CFI (cfiCond88) V10 load(1, XDATA, add(CFA_XSP16, literal(-10)))
        CFI (cfiCond88) V11 load(1, XDATA, add(CFA_XSP16, literal(-9)))
        CFI (cfiCond88) V12 load(1, XDATA, add(CFA_XSP16, literal(-8)))
        CFI (cfiCond88) V13 load(1, XDATA, add(CFA_XSP16, literal(-7)))
        CFI (cfiCond88) R7 load(1, XDATA, add(CFA_XSP16, literal(-6)))
        CFI (cfiCond88) ?RET_LOW load(1, XDATA, add(CFA_XSP16, literal(-5)))
        CFI (cfiCond88) ?RET_HIGH load(1, XDATA, add(CFA_XSP16, literal(-4)))
        CFI (cfiCond88) ?BRET_EXT load(1, XDATA, add(CFA_XSP16, literal(-3)))
        CFI (cfiCond88) DPL0 load(1, XDATA, add(CFA_XSP16, literal(-2)))
        CFI (cfiCond88) DPH0 load(1, XDATA, add(CFA_XSP16, literal(-1)))
        CFI (cfiCond88) CFA_SP SP+0
        CFI (cfiCond88) CFA_XSP16 add(XSP16, 33)
        CFI Block cfiCond89 Using cfiCommon0
        CFI (cfiCond89) NoFunction
        CFI (cfiCond89) Conditional ??CrossCallReturnLabel_301
        CFI (cfiCond89) R6 load(1, XDATA, add(CFA_XSP16, literal(-22)))
        CFI (cfiCond89) VB load(1, XDATA, add(CFA_XSP16, literal(-21)))
        CFI (cfiCond89) V0 load(1, XDATA, add(CFA_XSP16, literal(-20)))
        CFI (cfiCond89) V1 load(1, XDATA, add(CFA_XSP16, literal(-19)))
        CFI (cfiCond89) V2 load(1, XDATA, add(CFA_XSP16, literal(-18)))
        CFI (cfiCond89) V3 load(1, XDATA, add(CFA_XSP16, literal(-17)))
        CFI (cfiCond89) V4 load(1, XDATA, add(CFA_XSP16, literal(-16)))
        CFI (cfiCond89) V5 load(1, XDATA, add(CFA_XSP16, literal(-15)))
        CFI (cfiCond89) V6 load(1, XDATA, add(CFA_XSP16, literal(-14)))
        CFI (cfiCond89) V7 load(1, XDATA, add(CFA_XSP16, literal(-13)))
        CFI (cfiCond89) V8 load(1, XDATA, add(CFA_XSP16, literal(-12)))
        CFI (cfiCond89) V9 load(1, XDATA, add(CFA_XSP16, literal(-11)))
        CFI (cfiCond89) V10 load(1, XDATA, add(CFA_XSP16, literal(-10)))
        CFI (cfiCond89) V11 load(1, XDATA, add(CFA_XSP16, literal(-9)))
        CFI (cfiCond89) V12 load(1, XDATA, add(CFA_XSP16, literal(-8)))
        CFI (cfiCond89) V13 load(1, XDATA, add(CFA_XSP16, literal(-7)))
        CFI (cfiCond89) R7 load(1, XDATA, add(CFA_XSP16, literal(-6)))
        CFI (cfiCond89) ?RET_LOW load(1, XDATA, add(CFA_XSP16, literal(-5)))
        CFI (cfiCond89) ?RET_HIGH load(1, XDATA, add(CFA_XSP16, literal(-4)))
        CFI (cfiCond89) ?BRET_EXT load(1, XDATA, add(CFA_XSP16, literal(-3)))
        CFI (cfiCond89) DPL0 load(1, XDATA, add(CFA_XSP16, literal(-2)))
        CFI (cfiCond89) DPH0 load(1, XDATA, add(CFA_XSP16, literal(-1)))
        CFI (cfiCond89) CFA_SP SP+0
        CFI (cfiCond89) CFA_XSP16 add(XSP16, 33)
        CFI Block cfiCond90 Using cfiCommon0
        CFI (cfiCond90) NoFunction
        CFI (cfiCond90) Conditional ??CrossCallReturnLabel_302
        CFI (cfiCond90) R6 load(1, XDATA, add(CFA_XSP16, literal(-22)))
        CFI (cfiCond90) VB load(1, XDATA, add(CFA_XSP16, literal(-21)))
        CFI (cfiCond90) V0 load(1, XDATA, add(CFA_XSP16, literal(-20)))
        CFI (cfiCond90) V1 load(1, XDATA, add(CFA_XSP16, literal(-19)))
        CFI (cfiCond90) V2 load(1, XDATA, add(CFA_XSP16, literal(-18)))
        CFI (cfiCond90) V3 load(1, XDATA, add(CFA_XSP16, literal(-17)))
        CFI (cfiCond90) V4 load(1, XDATA, add(CFA_XSP16, literal(-16)))
        CFI (cfiCond90) V5 load(1, XDATA, add(CFA_XSP16, literal(-15)))
        CFI (cfiCond90) V6 load(1, XDATA, add(CFA_XSP16, literal(-14)))
        CFI (cfiCond90) V7 load(1, XDATA, add(CFA_XSP16, literal(-13)))
        CFI (cfiCond90) V8 load(1, XDATA, add(CFA_XSP16, literal(-12)))
        CFI (cfiCond90) V9 load(1, XDATA, add(CFA_XSP16, literal(-11)))
        CFI (cfiCond90) V10 load(1, XDATA, add(CFA_XSP16, literal(-10)))
        CFI (cfiCond90) V11 load(1, XDATA, add(CFA_XSP16, literal(-9)))
        CFI (cfiCond90) V12 load(1, XDATA, add(CFA_XSP16, literal(-8)))
        CFI (cfiCond90) V13 load(1, XDATA, add(CFA_XSP16, literal(-7)))
        CFI (cfiCond90) R7 load(1, XDATA, add(CFA_XSP16, literal(-6)))
        CFI (cfiCond90) ?RET_LOW load(1, XDATA, add(CFA_XSP16, literal(-5)))
        CFI (cfiCond90) ?RET_HIGH load(1, XDATA, add(CFA_XSP16, literal(-4)))
        CFI (cfiCond90) ?BRET_EXT load(1, XDATA, add(CFA_XSP16, literal(-3)))
        CFI (cfiCond90) DPL0 load(1, XDATA, add(CFA_XSP16, literal(-2)))
        CFI (cfiCond90) DPH0 load(1, XDATA, add(CFA_XSP16, literal(-1)))
        CFI (cfiCond90) CFA_SP SP+0
        CFI (cfiCond90) CFA_XSP16 add(XSP16, 33)
        CFI Block cfiCond91 Using cfiCommon0
        CFI (cfiCond91) NoFunction
        CFI (cfiCond91) Conditional ??CrossCallReturnLabel_303
        CFI (cfiCond91) R6 load(1, XDATA, add(CFA_XSP16, literal(-22)))
        CFI (cfiCond91) VB load(1, XDATA, add(CFA_XSP16, literal(-21)))
        CFI (cfiCond91) V0 load(1, XDATA, add(CFA_XSP16, literal(-20)))
        CFI (cfiCond91) V1 load(1, XDATA, add(CFA_XSP16, literal(-19)))
        CFI (cfiCond91) V2 load(1, XDATA, add(CFA_XSP16, literal(-18)))
        CFI (cfiCond91) V3 load(1, XDATA, add(CFA_XSP16, literal(-17)))
        CFI (cfiCond91) V4 load(1, XDATA, add(CFA_XSP16, literal(-16)))
        CFI (cfiCond91) V5 load(1, XDATA, add(CFA_XSP16, literal(-15)))
        CFI (cfiCond91) V6 load(1, XDATA, add(CFA_XSP16, literal(-14)))
        CFI (cfiCond91) V7 load(1, XDATA, add(CFA_XSP16, literal(-13)))
        CFI (cfiCond91) V8 load(1, XDATA, add(CFA_XSP16, literal(-12)))
        CFI (cfiCond91) V9 load(1, XDATA, add(CFA_XSP16, literal(-11)))
        CFI (cfiCond91) V10 load(1, XDATA, add(CFA_XSP16, literal(-10)))
        CFI (cfiCond91) V11 load(1, XDATA, add(CFA_XSP16, literal(-9)))
        CFI (cfiCond91) V12 load(1, XDATA, add(CFA_XSP16, literal(-8)))
        CFI (cfiCond91) V13 load(1, XDATA, add(CFA_XSP16, literal(-7)))
        CFI (cfiCond91) R7 load(1, XDATA, add(CFA_XSP16, literal(-6)))
        CFI (cfiCond91) ?RET_LOW load(1, XDATA, add(CFA_XSP16, literal(-5)))
        CFI (cfiCond91) ?RET_HIGH load(1, XDATA, add(CFA_XSP16, literal(-4)))
        CFI (cfiCond91) ?BRET_EXT load(1, XDATA, add(CFA_XSP16, literal(-3)))
        CFI (cfiCond91) DPL0 load(1, XDATA, add(CFA_XSP16, literal(-2)))
        CFI (cfiCond91) DPH0 load(1, XDATA, add(CFA_XSP16, literal(-1)))
        CFI (cfiCond91) CFA_SP SP+0
        CFI (cfiCond91) CFA_XSP16 add(XSP16, 33)
        CFI Block cfiPicker92 Using cfiCommon1
        CFI (cfiPicker92) NoFunction
        CFI (cfiPicker92) Picker
        LCALL   ??zcl_SendCommand?relay
        MOV     A,#0xb
        RET
        CFI EndBlock cfiCond84
        CFI EndBlock cfiCond85
        CFI EndBlock cfiCond86
        CFI EndBlock cfiCond87
        CFI EndBlock cfiCond88
        CFI EndBlock cfiCond89
        CFI EndBlock cfiCond90
        CFI EndBlock cfiCond91
        CFI EndBlock cfiPicker92
//  829 
//  830 /*********************************************************************
//  831  * @fn      zcl_SendReadRsp
//  832  *
//  833  * @brief   Send a Read Response command.
//  834  *
//  835  * @param   srcEP - Application's endpoint
//  836  * @param   dstAddr - destination address
//  837  * @param   clusterID - cluster ID
//  838  * @param   readRspCmd - read response command to be sent
//  839  * @param   direction - direction of the command
//  840  * @param   seqNum - transaction sequence number
//  841  *
//  842  * @return  ZSuccess if OK
//  843  */

        RSEG BANKED_CODE:CODE:NOROOT(0)
//  844 ZStatus_t zcl_SendReadRsp( uint8 srcEP, afAddrType_t *dstAddr,
zcl_SendReadRsp:
        CFI Block cfiBlock93 Using cfiCommon0
        CFI Function zcl_SendReadRsp
        CODE
//  845                            uint16 clusterID, zclReadRspCmd_t *readRspCmd,
//  846                            uint8 direction, uint8 disableDefaultRsp, uint8 seqNum )
//  847 {
        FUNCALL zcl_SendReadRsp, zclGetAttrDataLengthUsingCB
        LOCFRAME ISTACK, 0, STACK
        LOCFRAME PSTACK, 0, STACK
        LOCFRAME XSTACK, 28, STACK
        LOCFRAME IOVERLAY, 0, STATIC
        LOCFRAME DOVERLAY, 0, STATIC
        ARGFRAME ISTACK, 0, STACK
        ARGFRAME PSTACK, 0, STACK
        ARGFRAME XSTACK, 28, STACK
        ARGFRAME IOVERLAY, 0, STATIC
        ARGFRAME DOVERLAY, 0, STATIC
        FUNCALL zcl_SendReadRsp, zclGetAttrDataLength
        LOCFRAME ISTACK, 0, STACK
        LOCFRAME PSTACK, 0, STACK
        LOCFRAME XSTACK, 28, STACK
        LOCFRAME IOVERLAY, 0, STATIC
        LOCFRAME DOVERLAY, 0, STATIC
        ARGFRAME ISTACK, 0, STACK
        ARGFRAME PSTACK, 0, STACK
        ARGFRAME XSTACK, 28, STACK
        ARGFRAME IOVERLAY, 0, STATIC
        ARGFRAME DOVERLAY, 0, STATIC
        FUNCALL zcl_SendReadRsp, osal_mem_alloc
        LOCFRAME ISTACK, 0, STACK
        LOCFRAME PSTACK, 0, STACK
        LOCFRAME XSTACK, 28, STACK
        LOCFRAME IOVERLAY, 0, STATIC
        LOCFRAME DOVERLAY, 0, STATIC
        ARGFRAME ISTACK, 0, STACK
        ARGFRAME PSTACK, 0, STACK
        ARGFRAME XSTACK, 28, STACK
        ARGFRAME IOVERLAY, 0, STATIC
        ARGFRAME DOVERLAY, 0, STATIC
        FUNCALL zcl_SendReadRsp, zclReadAttrDataUsingCB
        LOCFRAME ISTACK, 0, STACK
        LOCFRAME PSTACK, 0, STACK
        LOCFRAME XSTACK, 32, STACK
        LOCFRAME IOVERLAY, 0, STATIC
        LOCFRAME DOVERLAY, 0, STATIC
        ARGFRAME ISTACK, 0, STACK
        ARGFRAME PSTACK, 0, STACK
        ARGFRAME XSTACK, 32, STACK
        ARGFRAME IOVERLAY, 0, STATIC
        ARGFRAME DOVERLAY, 0, STATIC
        FUNCALL zcl_SendReadRsp, zclSerializeData
        LOCFRAME ISTACK, 0, STACK
        LOCFRAME PSTACK, 0, STACK
        LOCFRAME XSTACK, 28, STACK
        LOCFRAME IOVERLAY, 0, STATIC
        LOCFRAME DOVERLAY, 0, STATIC
        ARGFRAME ISTACK, 0, STACK
        ARGFRAME PSTACK, 0, STACK
        ARGFRAME XSTACK, 28, STACK
        ARGFRAME IOVERLAY, 0, STATIC
        ARGFRAME DOVERLAY, 0, STATIC
        FUNCALL zcl_SendReadRsp, zcl_SendCommand
        LOCFRAME ISTACK, 0, STACK
        LOCFRAME PSTACK, 0, STACK
        LOCFRAME XSTACK, 39, STACK
        LOCFRAME IOVERLAY, 0, STATIC
        LOCFRAME DOVERLAY, 0, STATIC
        ARGFRAME ISTACK, 0, STACK
        ARGFRAME PSTACK, 0, STACK
        ARGFRAME XSTACK, 39, STACK
        ARGFRAME IOVERLAY, 0, STATIC
        ARGFRAME DOVERLAY, 0, STATIC
        FUNCALL zcl_SendReadRsp, osal_mem_free
        LOCFRAME ISTACK, 0, STACK
        LOCFRAME PSTACK, 0, STACK
        LOCFRAME XSTACK, 28, STACK
        LOCFRAME IOVERLAY, 0, STATIC
        LOCFRAME DOVERLAY, 0, STATIC
        ARGFRAME ISTACK, 0, STACK
        ARGFRAME PSTACK, 0, STACK
        ARGFRAME XSTACK, 28, STACK
        ARGFRAME IOVERLAY, 0, STATIC
        ARGFRAME DOVERLAY, 0, STATIC
        MOV     A,#-0x18
        LCALL   ?BANKED_ENTER_XDATA
        CFI DPH0 load(1, XDATA, add(CFA_XSP16, literal(-1)))
        CFI DPL0 load(1, XDATA, add(CFA_XSP16, literal(-2)))
        CFI ?BRET_EXT load(1, XDATA, add(CFA_XSP16, literal(-3)))
        CFI ?RET_HIGH load(1, XDATA, add(CFA_XSP16, literal(-4)))
        CFI ?RET_LOW load(1, XDATA, add(CFA_XSP16, literal(-5)))
        CFI R7 load(1, XDATA, add(CFA_XSP16, literal(-6)))
        CFI V15 load(1, XDATA, add(CFA_XSP16, literal(-7)))
        CFI V14 load(1, XDATA, add(CFA_XSP16, literal(-8)))
        CFI V13 load(1, XDATA, add(CFA_XSP16, literal(-9)))
        CFI V12 load(1, XDATA, add(CFA_XSP16, literal(-10)))
        CFI V11 load(1, XDATA, add(CFA_XSP16, literal(-11)))
        CFI V10 load(1, XDATA, add(CFA_XSP16, literal(-12)))
        CFI V9 load(1, XDATA, add(CFA_XSP16, literal(-13)))
        CFI V8 load(1, XDATA, add(CFA_XSP16, literal(-14)))
        CFI V7 load(1, XDATA, add(CFA_XSP16, literal(-15)))
        CFI V6 load(1, XDATA, add(CFA_XSP16, literal(-16)))
        CFI V5 load(1, XDATA, add(CFA_XSP16, literal(-17)))
        CFI V4 load(1, XDATA, add(CFA_XSP16, literal(-18)))
        CFI V3 load(1, XDATA, add(CFA_XSP16, literal(-19)))
        CFI V2 load(1, XDATA, add(CFA_XSP16, literal(-20)))
        CFI V1 load(1, XDATA, add(CFA_XSP16, literal(-21)))
        CFI V0 load(1, XDATA, add(CFA_XSP16, literal(-22)))
        CFI VB load(1, XDATA, add(CFA_XSP16, literal(-23)))
        CFI R6 load(1, XDATA, add(CFA_XSP16, literal(-24)))
        CFI CFA_SP SP+0
        CFI CFA_XSP16 add(XSP16, 24)
        ; Saved register size: 24
        ; Auto size: 4
        MOV     A,#-0x4
        LCALL   ?ALLOC_XSTACK8
        CFI CFA_XSP16 add(XSP16, 28)
        MOV     A,#0x2
        LCALL   ?XSTACK_DISP0_8
        LCALL   ??Subroutine267_0 & 0xFFFF
??CrossCallReturnLabel_587:
        MOV     ?V0 + 3,R1
        MOV     ?V0 + 4,R4
        MOV     ?V0 + 5,R5
        MOV     A,#0x1c
        LCALL   ?XSTACK_DISP0_8
        MOVX    A,@DPTR
        MOV     ?V0 + 12,A
        INC     DPTR
        MOVX    A,@DPTR
        MOV     ?V0 + 13,A
        MOV     A,#0x1f
        LCALL   ?XSTACK_DISP0_8
        MOVX    A,@DPTR
        MOV     ?V0 + 15,A
        MOV     A,#0x20
        LCALL   ?XSTACK_DISP0_8
        MOVX    A,@DPTR
        MOV     ?V0 + 14,A
//  848   uint8 *buf;
//  849   uint16 len = 0;
        MOV     R6,#0x0
        MOV     R7,#0x0
//  850   ZStatus_t status;
//  851 
//  852   // calculate the size of the command
//  853   for ( uint8 i = 0; i < readRspCmd->numAttr; i++ )
        MOV     ?V0 + 0,R6
        SJMP    ??zcl_SendReadRsp_0
//  854   {
//  855     zclReadRspStatus_t *statusRec = &(readRspCmd->attrList[i]);
//  856 
//  857     len += 2 + 1; // Attribute ID + Status
//  858 
//  859     if ( statusRec->status == ZCL_STATUS_SUCCESS )
//  860     {
//  861       len++; // Attribute Data Type length
//  862 
//  863       // Attribute Data length
//  864       if ( statusRec->data != NULL )
//  865       {
//  866         len += zclGetAttrDataLength( statusRec->dataType, statusRec->data );
//  867       }
//  868       else
//  869       {
//  870         len += zclGetAttrDataLengthUsingCB( srcEP, clusterID, statusRec->attrID );
??zcl_SendReadRsp_1:
        ; Setup parameters for call to function zclGetAttrDataLengthUsingCB
        LCALL   ?Subroutine87 & 0xFFFF
//  871       }
??CrossCallReturnLabel_131:
        LCALL   ??zclGetAttrDataLengthUsingCB?relay
??zcl_SendReadRsp_2:
        MOV     ?V0 + 6,R2
        MOV     ?V0 + 7,R3
        MOV     A,R6
        ADD     A,?V0 + 6
        MOV     R6,A
        MOV     A,R7
        ADDC    A,?V0 + 7
        MOV     R7,A
??zcl_SendReadRsp_3:
        INC     ?V0 + 0
??zcl_SendReadRsp_0:
        MOV     DPL,?V0 + 12
        MOV     DPH,?V0 + 13
        MOVX    A,@DPTR
        MOV     R0,A
        MOV     A,?V0 + 0
        CLR     C
        SUBB    A,R0
        JNC     ??zcl_SendReadRsp_4
        MOV     A,?V0 + 0
        LCALL   ?Subroutine140 & 0xFFFF
??CrossCallReturnLabel_313:
        MOV     R0,DPL
        MOV     R1,DPH
        LCALL   ?Subroutine145 & 0xFFFF
??CrossCallReturnLabel_216:
        INC     DPTR
        INC     DPTR
        MOVX    A,@DPTR
        JNZ     ??zcl_SendReadRsp_3
        MOV     A,R6
        ADD     A,#0x1
        INC     R6
        MOV     A,R7
        ADDC    A,#0x0
        MOV     R7,A
        MOV     DPL,R0
        MOV     DPH,R1
        LCALL   ?Subroutine65 & 0xFFFF
??CrossCallReturnLabel_391:
        MOV     DPL,R0
        MOV     DPH,R1
        JZ      ??zcl_SendReadRsp_1
        ; Setup parameters for call to function zclGetAttrDataLength
        LCALL   ?Subroutine94 & 0xFFFF
//  872     }
//  873   }
??CrossCallReturnLabel_321:
        SJMP    ??zcl_SendReadRsp_2
//  874 
//  875   buf = osal_mem_alloc( len );
??zcl_SendReadRsp_4:
        ; Setup parameters for call to function osal_mem_alloc
        MOV     A,R6
        MOV     R2,A
        MOV     A,R7
        MOV     R3,A
        LCALL   ??osal_mem_alloc?relay
        MOV     ?V0 + 0,R2
        MOV     ?V0 + 1,R3
        MOV     ?V0 + 6,R2
        MOV     ?V0 + 7,R3
//  876   if ( buf != NULL )
        MOV     A,R2
        ORL     A,?V0 + 7
        JNZ     $+5
        LJMP    ??zcl_SendReadRsp_5 & 0xFFFF
//  877   {
//  878     // Load the buffer - serially
//  879     uint8 *pBuf = buf;
//  880     for ( uint8 i = 0; i < readRspCmd->numAttr; i++ )
        MOV     ?V0 + 2,#0x0
        SJMP    ??zcl_SendReadRsp_6
//  881     {
//  882       zclReadRspStatus_t *statusRec = &(readRspCmd->attrList[i]);
//  883 
//  884       *pBuf++ = LO_UINT16( statusRec->attrID );
//  885       *pBuf++ = HI_UINT16( statusRec->attrID );
//  886       *pBuf++ = statusRec->status;
//  887 
//  888       if ( statusRec->status == ZCL_STATUS_SUCCESS )
//  889       {
//  890         *pBuf++ = statusRec->dataType;
//  891 
//  892         if ( statusRec->data != NULL )
//  893         {
//  894           // Copy attribute data to the buffer to be sent out
//  895           pBuf = zclSerializeData( statusRec->dataType, statusRec->data, pBuf );
//  896         }
//  897         else
//  898         {
//  899           uint16 dataLen;
//  900 
//  901           // Read attribute data directly into the buffer to be sent out
//  902           zclReadAttrDataUsingCB( srcEP, clusterID, statusRec->attrID, pBuf, &dataLen );
??zcl_SendReadRsp_7:
        ; Setup parameters for call to function zclReadAttrDataUsingCB
        MOV     DPL,?XSP + 0
        MOV     DPH,?XSP + 1
        MOV     ?V0 + 10,DPL
        MOV     ?V0 + 11,DPH
        MOV     R0,#?V0 + 10
        LCALL   ?PUSH_XSTACK_I_TWO
        CFI CFA_XSP16 add(XSP16, 30)
        MOV     R0,#?V0 + 0
        LCALL   ?PUSH_XSTACK_I_TWO
        CFI CFA_XSP16 add(XSP16, 32)
        MOV     DPL,?V0 + 8
        MOV     DPH,?V0 + 9
        LCALL   ?Subroutine87 & 0xFFFF
??CrossCallReturnLabel_132:
        LCALL   ??zclReadAttrDataUsingCB?relay
        MOV     A,#0x4
        LCALL   ?DEALLOC_XSTACK8
        CFI CFA_XSP16 add(XSP16, 28)
//  903           pBuf += dataLen;
        MOV     DPL,?XSP + 0
        MOV     DPH,?XSP + 1
        LCALL   ??Subroutine248_0 & 0xFFFF
//  904         }
??CrossCallReturnLabel_476:
        MOV     A,?V0 + 0
        ADD     A,R0
        MOV     ?V0 + 0,A
        MOV     A,?V0 + 1
        ADDC    A,R1
        MOV     ?V0 + 1,A
??zcl_SendReadRsp_8:
        INC     ?V0 + 2
??zcl_SendReadRsp_6:
        MOV     DPL,?V0 + 12
        MOV     DPH,?V0 + 13
        LCALL   ??Subroutine215_0 & 0xFFFF
??CrossCallReturnLabel_325:
        JNC     ??zcl_SendReadRsp_9
        MOV     A,?V0 + 2
        LCALL   ?Subroutine140 & 0xFFFF
??CrossCallReturnLabel_314:
        MOV     ?V0 + 8,DPL
        MOV     ?V0 + 9,DPH
        LCALL   ?Subroutine30 & 0xFFFF
??CrossCallReturnLabel_29:
        LCALL   ?Subroutine50 & 0xFFFF
??CrossCallReturnLabel_54:
        MOV     A,?V0 + 8
        ADD     A,#0x2
        MOV     R0,A
        MOV     A,?V0 + 9
        LCALL   ??Subroutine223_0 & 0xFFFF
??CrossCallReturnLabel_357:
        LCALL   ?Subroutine50 & 0xFFFF
??CrossCallReturnLabel_55:
        MOV     DPL,R0
        MOV     DPH,R1
        MOVX    A,@DPTR
        JNZ     ??zcl_SendReadRsp_8
        MOV     DPL,?V0 + 8
        MOV     DPH,?V0 + 9
        INC     DPTR
        INC     DPTR
        INC     DPTR
        LCALL   ?Subroutine30 & 0xFFFF
??CrossCallReturnLabel_30:
        INC     DPTR
        LCALL   ??Subroutine257_0 & 0xFFFF
??CrossCallReturnLabel_551:
        JZ      ??zcl_SendReadRsp_7
        ; Setup parameters for call to function zclSerializeData
        MOV     R4,?V0 + 0
        MOV     R5,?V0 + 1
        LCALL   ?Subroutine98 & 0xFFFF
//  905       }
//  906     } // for loop
??CrossCallReturnLabel_409:
        MOV     DPL,?V0 + 8
        MOV     DPH,?V0 + 9
        LCALL   ?Subroutine182 & 0xFFFF
??CrossCallReturnLabel_309:
        MOV     ?V0 + 0,R2
        MOV     ?V0 + 1,R3
        SJMP    ??zcl_SendReadRsp_8
//  907 
//  908     status = zcl_SendCommand( srcEP, dstAddr, clusterID, ZCL_CMD_READ_RSP, FALSE,
//  909                               direction, disableDefaultRsp, 0, seqNum, len, buf );
??zcl_SendReadRsp_9:
        ; Setup parameters for call to function zcl_SendCommand
        MOV     R0,#?V0 + 6
        LCALL   ?PUSH_XSTACK_I_TWO
        CFI CFA_XSP16 add(XSP16, 30)
        MOV     ?V0 + 0,R6
        MOV     ?V0 + 1,R7
        MOV     R0,#?V0 + 0
        LCALL   ?PUSH_XSTACK_I_TWO
        CFI CFA_XSP16 add(XSP16, 32)
        MOV     A,?V0 + 14
        MOV     ?V0 + 0,A
        MOV     R0,#?V0 + 0
        LCALL   ?PUSH_XSTACK_I_ONE
        CFI CFA_XSP16 add(XSP16, 33)
        CLR     A
        MOV     ?V0 + 0,A
        MOV     ?V0 + 1,A
        MOV     R0,#?V0 + 0
        LCALL   ?PUSH_XSTACK_I_TWO
        CFI CFA_XSP16 add(XSP16, 35)
        MOV     A,?V0 + 15
        MOV     ?V0 + 0,A
        MOV     R0,#?V0 + 0
        LCALL   ?PUSH_XSTACK_I_ONE
        CFI CFA_XSP16 add(XSP16, 36)
        MOV     A,#0x26
        LCALL   ?XSTACK_DISP0_8
        LCALL   ?Subroutine103 & 0xFFFF
??CrossCallReturnLabel_156:
        LCALL   ?PUSH_XSTACK_I_ONE
        CFI CFA_XSP16 add(XSP16, 37)
        MOV     ?V0 + 0,#0x0
        MOV     R0,#?V0 + 0
        LCALL   ?PUSH_XSTACK_I_ONE
        CFI CFA_XSP16 add(XSP16, 38)
        MOV     ?V0 + 0,#0x1
        MOV     R0,#?V0 + 0
        LCALL   ?PUSH_XSTACK_I_ONE
        CFI CFA_XSP16 add(XSP16, 39)
        MOV     R4,?V0 + 4
        MOV     R5,?V0 + 5
        MOV     A,#0xd
        LCALL   ?XSTACK_DISP0_8
        LCALL   ??Subroutine234_0 & 0xFFFF
??CrossCallReturnLabel_395:
        MOV     R1,?V0 + 3
        LCALL   ??Subroutine211_0 & 0xFFFF
??CrossCallReturnLabel_305:
        LCALL   ?DEALLOC_XSTACK8
        CFI CFA_XSP16 add(XSP16, 28)
        MOV     A,R1
        MOV     R6,A
//  910     osal_mem_free( buf );
        ; Setup parameters for call to function osal_mem_free
        MOV     R2,?V0 + 6
        MOV     R3,?V0 + 7
        LCALL   ??osal_mem_free?relay
        SJMP    ??zcl_SendReadRsp_10
//  911   }
//  912   else
//  913   {
//  914     status = ZMemError;
??zcl_SendReadRsp_5:
        MOV     R6,#0x10
//  915   }
//  916 
//  917   return ( status );
??zcl_SendReadRsp_10:
        MOV     A,R6
        MOV     R1,A
        MOV     A,#0x4
        LJMP    ?Subroutine4 & 0xFFFF
        CFI EndBlock cfiBlock93
//  918 }

        RSEG BANKED_CODE:CODE:NOROOT(0)
?Subroutine182:
        CFI Block cfiCond94 Using cfiCommon0
        CFI NoFunction
        CFI Conditional ??CrossCallReturnLabel_309
        CFI R6 load(1, XDATA, add(CFA_XSP16, literal(-24)))
        CFI VB load(1, XDATA, add(CFA_XSP16, literal(-23)))
        CFI V0 load(1, XDATA, add(CFA_XSP16, literal(-22)))
        CFI V1 load(1, XDATA, add(CFA_XSP16, literal(-21)))
        CFI V2 load(1, XDATA, add(CFA_XSP16, literal(-20)))
        CFI V3 load(1, XDATA, add(CFA_XSP16, literal(-19)))
        CFI V4 load(1, XDATA, add(CFA_XSP16, literal(-18)))
        CFI V5 load(1, XDATA, add(CFA_XSP16, literal(-17)))
        CFI V6 load(1, XDATA, add(CFA_XSP16, literal(-16)))
        CFI V7 load(1, XDATA, add(CFA_XSP16, literal(-15)))
        CFI V8 load(1, XDATA, add(CFA_XSP16, literal(-14)))
        CFI V9 load(1, XDATA, add(CFA_XSP16, literal(-13)))
        CFI V10 load(1, XDATA, add(CFA_XSP16, literal(-12)))
        CFI V11 load(1, XDATA, add(CFA_XSP16, literal(-11)))
        CFI V12 load(1, XDATA, add(CFA_XSP16, literal(-10)))
        CFI V13 load(1, XDATA, add(CFA_XSP16, literal(-9)))
        CFI V14 load(1, XDATA, add(CFA_XSP16, literal(-8)))
        CFI V15 load(1, XDATA, add(CFA_XSP16, literal(-7)))
        CFI R7 load(1, XDATA, add(CFA_XSP16, literal(-6)))
        CFI ?RET_LOW load(1, XDATA, add(CFA_XSP16, literal(-5)))
        CFI ?RET_HIGH load(1, XDATA, add(CFA_XSP16, literal(-4)))
        CFI ?BRET_EXT load(1, XDATA, add(CFA_XSP16, literal(-3)))
        CFI DPL0 load(1, XDATA, add(CFA_XSP16, literal(-2)))
        CFI DPH0 load(1, XDATA, add(CFA_XSP16, literal(-1)))
        CFI CFA_SP SP+0
        CFI CFA_XSP16 add(XSP16, 28)
        CFI Block cfiCond95 Using cfiCommon0
        CFI (cfiCond95) NoFunction
        CFI (cfiCond95) Conditional ??CrossCallReturnLabel_310
        CFI (cfiCond95) R6 load(1, XDATA, add(CFA_XSP16, literal(-23)))
        CFI (cfiCond95) VB load(1, XDATA, add(CFA_XSP16, literal(-22)))
        CFI (cfiCond95) V0 load(1, XDATA, add(CFA_XSP16, literal(-21)))
        CFI (cfiCond95) V1 load(1, XDATA, add(CFA_XSP16, literal(-20)))
        CFI (cfiCond95) V2 load(1, XDATA, add(CFA_XSP16, literal(-19)))
        CFI (cfiCond95) V3 load(1, XDATA, add(CFA_XSP16, literal(-18)))
        CFI (cfiCond95) V4 load(1, XDATA, add(CFA_XSP16, literal(-17)))
        CFI (cfiCond95) V5 load(1, XDATA, add(CFA_XSP16, literal(-16)))
        CFI (cfiCond95) V6 load(1, XDATA, add(CFA_XSP16, literal(-15)))
        CFI (cfiCond95) V7 load(1, XDATA, add(CFA_XSP16, literal(-14)))
        CFI (cfiCond95) V8 load(1, XDATA, add(CFA_XSP16, literal(-13)))
        CFI (cfiCond95) V9 load(1, XDATA, add(CFA_XSP16, literal(-12)))
        CFI (cfiCond95) V10 load(1, XDATA, add(CFA_XSP16, literal(-11)))
        CFI (cfiCond95) V11 load(1, XDATA, add(CFA_XSP16, literal(-10)))
        CFI (cfiCond95) V12 load(1, XDATA, add(CFA_XSP16, literal(-9)))
        CFI (cfiCond95) V13 load(1, XDATA, add(CFA_XSP16, literal(-8)))
        CFI (cfiCond95) V14 load(1, XDATA, add(CFA_XSP16, literal(-7)))
        CFI (cfiCond95) R7 load(1, XDATA, add(CFA_XSP16, literal(-6)))
        CFI (cfiCond95) ?RET_LOW load(1, XDATA, add(CFA_XSP16, literal(-5)))
        CFI (cfiCond95) ?RET_HIGH load(1, XDATA, add(CFA_XSP16, literal(-4)))
        CFI (cfiCond95) ?BRET_EXT load(1, XDATA, add(CFA_XSP16, literal(-3)))
        CFI (cfiCond95) DPL0 load(1, XDATA, add(CFA_XSP16, literal(-2)))
        CFI (cfiCond95) DPH0 load(1, XDATA, add(CFA_XSP16, literal(-1)))
        CFI (cfiCond95) CFA_SP SP+0
        CFI (cfiCond95) CFA_XSP16 add(XSP16, 27)
        CFI Block cfiPicker96 Using cfiCommon1
        CFI (cfiPicker96) NoFunction
        CFI (cfiPicker96) Picker
        INC     DPTR
        INC     DPTR
        INC     DPTR
        CFI EndBlock cfiCond94
        CFI EndBlock cfiCond95
        CFI EndBlock cfiPicker96
        REQUIRE ??Subroutine212_0
        ; // Fall through to label ??Subroutine212_0

        RSEG BANKED_CODE:CODE:NOROOT(0)
??Subroutine212_0:
        CFI Block cfiCond97 Using cfiCommon0
        CFI NoFunction
        CFI Conditional ??CrossCallReturnLabel_311, ??CrossCallReturnLabel_0
        CFI R6 load(1, XDATA, add(CFA_XSP16, literal(-24)))
        CFI VB load(1, XDATA, add(CFA_XSP16, literal(-23)))
        CFI V0 load(1, XDATA, add(CFA_XSP16, literal(-22)))
        CFI V1 load(1, XDATA, add(CFA_XSP16, literal(-21)))
        CFI V2 load(1, XDATA, add(CFA_XSP16, literal(-20)))
        CFI V3 load(1, XDATA, add(CFA_XSP16, literal(-19)))
        CFI V4 load(1, XDATA, add(CFA_XSP16, literal(-18)))
        CFI V5 load(1, XDATA, add(CFA_XSP16, literal(-17)))
        CFI V6 load(1, XDATA, add(CFA_XSP16, literal(-16)))
        CFI V7 load(1, XDATA, add(CFA_XSP16, literal(-15)))
        CFI V8 load(1, XDATA, add(CFA_XSP16, literal(-14)))
        CFI V9 load(1, XDATA, add(CFA_XSP16, literal(-13)))
        CFI V10 load(1, XDATA, add(CFA_XSP16, literal(-12)))
        CFI V11 load(1, XDATA, add(CFA_XSP16, literal(-11)))
        CFI V12 load(1, XDATA, add(CFA_XSP16, literal(-10)))
        CFI V13 load(1, XDATA, add(CFA_XSP16, literal(-9)))
        CFI V14 load(1, XDATA, add(CFA_XSP16, literal(-8)))
        CFI V15 load(1, XDATA, add(CFA_XSP16, literal(-7)))
        CFI R7 load(1, XDATA, add(CFA_XSP16, literal(-6)))
        CFI ?RET_LOW load(1, XDATA, add(CFA_XSP16, literal(-5)))
        CFI ?RET_HIGH load(1, XDATA, add(CFA_XSP16, literal(-4)))
        CFI ?BRET_EXT load(1, XDATA, add(CFA_XSP16, literal(-3)))
        CFI DPL0 load(1, XDATA, add(CFA_XSP16, literal(-2)))
        CFI DPH0 load(1, XDATA, add(CFA_XSP16, literal(-1)))
        CFI CFA_SP SP+0
        CFI CFA_XSP16 add(XSP16, 24)
        CFI Block cfiCond98 Using cfiCommon0
        CFI (cfiCond98) NoFunction
        CFI (cfiCond98) Conditional ??CrossCallReturnLabel_311, ??CrossCallReturnLabel_1
        CFI (cfiCond98) R6 load(1, XDATA, add(CFA_XSP16, literal(-24)))
        CFI (cfiCond98) VB load(1, XDATA, add(CFA_XSP16, literal(-23)))
        CFI (cfiCond98) V0 load(1, XDATA, add(CFA_XSP16, literal(-22)))
        CFI (cfiCond98) V1 load(1, XDATA, add(CFA_XSP16, literal(-21)))
        CFI (cfiCond98) V2 load(1, XDATA, add(CFA_XSP16, literal(-20)))
        CFI (cfiCond98) V3 load(1, XDATA, add(CFA_XSP16, literal(-19)))
        CFI (cfiCond98) V4 load(1, XDATA, add(CFA_XSP16, literal(-18)))
        CFI (cfiCond98) V5 load(1, XDATA, add(CFA_XSP16, literal(-17)))
        CFI (cfiCond98) V6 load(1, XDATA, add(CFA_XSP16, literal(-16)))
        CFI (cfiCond98) V7 load(1, XDATA, add(CFA_XSP16, literal(-15)))
        CFI (cfiCond98) V8 load(1, XDATA, add(CFA_XSP16, literal(-14)))
        CFI (cfiCond98) V9 load(1, XDATA, add(CFA_XSP16, literal(-13)))
        CFI (cfiCond98) V10 load(1, XDATA, add(CFA_XSP16, literal(-12)))
        CFI (cfiCond98) V11 load(1, XDATA, add(CFA_XSP16, literal(-11)))
        CFI (cfiCond98) V12 load(1, XDATA, add(CFA_XSP16, literal(-10)))
        CFI (cfiCond98) V13 load(1, XDATA, add(CFA_XSP16, literal(-9)))
        CFI (cfiCond98) V14 load(1, XDATA, add(CFA_XSP16, literal(-8)))
        CFI (cfiCond98) V15 load(1, XDATA, add(CFA_XSP16, literal(-7)))
        CFI (cfiCond98) R7 load(1, XDATA, add(CFA_XSP16, literal(-6)))
        CFI (cfiCond98) ?RET_LOW load(1, XDATA, add(CFA_XSP16, literal(-5)))
        CFI (cfiCond98) ?RET_HIGH load(1, XDATA, add(CFA_XSP16, literal(-4)))
        CFI (cfiCond98) ?BRET_EXT load(1, XDATA, add(CFA_XSP16, literal(-3)))
        CFI (cfiCond98) DPL0 load(1, XDATA, add(CFA_XSP16, literal(-2)))
        CFI (cfiCond98) DPH0 load(1, XDATA, add(CFA_XSP16, literal(-1)))
        CFI (cfiCond98) CFA_SP SP+0
        CFI (cfiCond98) CFA_XSP16 add(XSP16, 24)
        CFI Block cfiCond99 Using cfiCommon0
        CFI (cfiCond99) NoFunction
        CFI (cfiCond99) Conditional ??CrossCallReturnLabel_309
        CFI (cfiCond99) R6 load(1, XDATA, add(CFA_XSP16, literal(-24)))
        CFI (cfiCond99) VB load(1, XDATA, add(CFA_XSP16, literal(-23)))
        CFI (cfiCond99) V0 load(1, XDATA, add(CFA_XSP16, literal(-22)))
        CFI (cfiCond99) V1 load(1, XDATA, add(CFA_XSP16, literal(-21)))
        CFI (cfiCond99) V2 load(1, XDATA, add(CFA_XSP16, literal(-20)))
        CFI (cfiCond99) V3 load(1, XDATA, add(CFA_XSP16, literal(-19)))
        CFI (cfiCond99) V4 load(1, XDATA, add(CFA_XSP16, literal(-18)))
        CFI (cfiCond99) V5 load(1, XDATA, add(CFA_XSP16, literal(-17)))
        CFI (cfiCond99) V6 load(1, XDATA, add(CFA_XSP16, literal(-16)))
        CFI (cfiCond99) V7 load(1, XDATA, add(CFA_XSP16, literal(-15)))
        CFI (cfiCond99) V8 load(1, XDATA, add(CFA_XSP16, literal(-14)))
        CFI (cfiCond99) V9 load(1, XDATA, add(CFA_XSP16, literal(-13)))
        CFI (cfiCond99) V10 load(1, XDATA, add(CFA_XSP16, literal(-12)))
        CFI (cfiCond99) V11 load(1, XDATA, add(CFA_XSP16, literal(-11)))
        CFI (cfiCond99) V12 load(1, XDATA, add(CFA_XSP16, literal(-10)))
        CFI (cfiCond99) V13 load(1, XDATA, add(CFA_XSP16, literal(-9)))
        CFI (cfiCond99) V14 load(1, XDATA, add(CFA_XSP16, literal(-8)))
        CFI (cfiCond99) V15 load(1, XDATA, add(CFA_XSP16, literal(-7)))
        CFI (cfiCond99) R7 load(1, XDATA, add(CFA_XSP16, literal(-6)))
        CFI (cfiCond99) ?RET_LOW load(1, XDATA, add(CFA_XSP16, literal(-5)))
        CFI (cfiCond99) ?RET_HIGH load(1, XDATA, add(CFA_XSP16, literal(-4)))
        CFI (cfiCond99) ?BRET_EXT load(1, XDATA, add(CFA_XSP16, literal(-3)))
        CFI (cfiCond99) DPL0 load(1, XDATA, add(CFA_XSP16, literal(-2)))
        CFI (cfiCond99) DPH0 load(1, XDATA, add(CFA_XSP16, literal(-1)))
        CFI (cfiCond99) CFA_SP SP+0
        CFI (cfiCond99) CFA_XSP16 add(XSP16, 28)
        CFI Block cfiCond100 Using cfiCommon0
        CFI (cfiCond100) NoFunction
        CFI (cfiCond100) Conditional ??CrossCallReturnLabel_310
        CFI (cfiCond100) R6 load(1, XDATA, add(CFA_XSP16, literal(-23)))
        CFI (cfiCond100) VB load(1, XDATA, add(CFA_XSP16, literal(-22)))
        CFI (cfiCond100) V0 load(1, XDATA, add(CFA_XSP16, literal(-21)))
        CFI (cfiCond100) V1 load(1, XDATA, add(CFA_XSP16, literal(-20)))
        CFI (cfiCond100) V2 load(1, XDATA, add(CFA_XSP16, literal(-19)))
        CFI (cfiCond100) V3 load(1, XDATA, add(CFA_XSP16, literal(-18)))
        CFI (cfiCond100) V4 load(1, XDATA, add(CFA_XSP16, literal(-17)))
        CFI (cfiCond100) V5 load(1, XDATA, add(CFA_XSP16, literal(-16)))
        CFI (cfiCond100) V6 load(1, XDATA, add(CFA_XSP16, literal(-15)))
        CFI (cfiCond100) V7 load(1, XDATA, add(CFA_XSP16, literal(-14)))
        CFI (cfiCond100) V8 load(1, XDATA, add(CFA_XSP16, literal(-13)))
        CFI (cfiCond100) V9 load(1, XDATA, add(CFA_XSP16, literal(-12)))
        CFI (cfiCond100) V10 load(1, XDATA, add(CFA_XSP16, literal(-11)))
        CFI (cfiCond100) V11 load(1, XDATA, add(CFA_XSP16, literal(-10)))
        CFI (cfiCond100) V12 load(1, XDATA, add(CFA_XSP16, literal(-9)))
        CFI (cfiCond100) V13 load(1, XDATA, add(CFA_XSP16, literal(-8)))
        CFI (cfiCond100) V14 load(1, XDATA, add(CFA_XSP16, literal(-7)))
        CFI (cfiCond100) R7 load(1, XDATA, add(CFA_XSP16, literal(-6)))
        CFI (cfiCond100) ?RET_LOW load(1, XDATA, add(CFA_XSP16, literal(-5)))
        CFI (cfiCond100) ?RET_HIGH load(1, XDATA, add(CFA_XSP16, literal(-4)))
        CFI (cfiCond100) ?BRET_EXT load(1, XDATA, add(CFA_XSP16, literal(-3)))
        CFI (cfiCond100) DPL0 load(1, XDATA, add(CFA_XSP16, literal(-2)))
        CFI (cfiCond100) DPH0 load(1, XDATA, add(CFA_XSP16, literal(-1)))
        CFI (cfiCond100) CFA_SP SP+0
        CFI (cfiCond100) CFA_XSP16 add(XSP16, 27)
        CFI Block cfiPicker101 Using cfiCommon1
        CFI (cfiPicker101) NoFunction
        CFI (cfiPicker101) Picker
        MOVX    A,@DPTR
        MOV     R1,A
        LCALL   ??zclSerializeData?relay
        RET
        CFI EndBlock cfiCond97
        CFI EndBlock cfiCond98
        CFI EndBlock cfiCond99
        CFI EndBlock cfiCond100
        CFI EndBlock cfiPicker101

        RSEG BANKED_CODE:CODE:NOROOT(0)
?Subroutine140:
        CFI Block cfiCond102 Using cfiCommon0
        CFI NoFunction
        CFI Conditional ??CrossCallReturnLabel_313
        CFI R6 load(1, XDATA, add(CFA_XSP16, literal(-24)))
        CFI VB load(1, XDATA, add(CFA_XSP16, literal(-23)))
        CFI V0 load(1, XDATA, add(CFA_XSP16, literal(-22)))
        CFI V1 load(1, XDATA, add(CFA_XSP16, literal(-21)))
        CFI V2 load(1, XDATA, add(CFA_XSP16, literal(-20)))
        CFI V3 load(1, XDATA, add(CFA_XSP16, literal(-19)))
        CFI V4 load(1, XDATA, add(CFA_XSP16, literal(-18)))
        CFI V5 load(1, XDATA, add(CFA_XSP16, literal(-17)))
        CFI V6 load(1, XDATA, add(CFA_XSP16, literal(-16)))
        CFI V7 load(1, XDATA, add(CFA_XSP16, literal(-15)))
        CFI V8 load(1, XDATA, add(CFA_XSP16, literal(-14)))
        CFI V9 load(1, XDATA, add(CFA_XSP16, literal(-13)))
        CFI V10 load(1, XDATA, add(CFA_XSP16, literal(-12)))
        CFI V11 load(1, XDATA, add(CFA_XSP16, literal(-11)))
        CFI V12 load(1, XDATA, add(CFA_XSP16, literal(-10)))
        CFI V13 load(1, XDATA, add(CFA_XSP16, literal(-9)))
        CFI V14 load(1, XDATA, add(CFA_XSP16, literal(-8)))
        CFI V15 load(1, XDATA, add(CFA_XSP16, literal(-7)))
        CFI R7 load(1, XDATA, add(CFA_XSP16, literal(-6)))
        CFI ?RET_LOW load(1, XDATA, add(CFA_XSP16, literal(-5)))
        CFI ?RET_HIGH load(1, XDATA, add(CFA_XSP16, literal(-4)))
        CFI ?BRET_EXT load(1, XDATA, add(CFA_XSP16, literal(-3)))
        CFI DPL0 load(1, XDATA, add(CFA_XSP16, literal(-2)))
        CFI DPH0 load(1, XDATA, add(CFA_XSP16, literal(-1)))
        CFI CFA_SP SP+0
        CFI CFA_XSP16 add(XSP16, 28)
        CFI Block cfiCond103 Using cfiCommon0
        CFI (cfiCond103) NoFunction
        CFI (cfiCond103) Conditional ??CrossCallReturnLabel_314
        CFI (cfiCond103) R6 load(1, XDATA, add(CFA_XSP16, literal(-24)))
        CFI (cfiCond103) VB load(1, XDATA, add(CFA_XSP16, literal(-23)))
        CFI (cfiCond103) V0 load(1, XDATA, add(CFA_XSP16, literal(-22)))
        CFI (cfiCond103) V1 load(1, XDATA, add(CFA_XSP16, literal(-21)))
        CFI (cfiCond103) V2 load(1, XDATA, add(CFA_XSP16, literal(-20)))
        CFI (cfiCond103) V3 load(1, XDATA, add(CFA_XSP16, literal(-19)))
        CFI (cfiCond103) V4 load(1, XDATA, add(CFA_XSP16, literal(-18)))
        CFI (cfiCond103) V5 load(1, XDATA, add(CFA_XSP16, literal(-17)))
        CFI (cfiCond103) V6 load(1, XDATA, add(CFA_XSP16, literal(-16)))
        CFI (cfiCond103) V7 load(1, XDATA, add(CFA_XSP16, literal(-15)))
        CFI (cfiCond103) V8 load(1, XDATA, add(CFA_XSP16, literal(-14)))
        CFI (cfiCond103) V9 load(1, XDATA, add(CFA_XSP16, literal(-13)))
        CFI (cfiCond103) V10 load(1, XDATA, add(CFA_XSP16, literal(-12)))
        CFI (cfiCond103) V11 load(1, XDATA, add(CFA_XSP16, literal(-11)))
        CFI (cfiCond103) V12 load(1, XDATA, add(CFA_XSP16, literal(-10)))
        CFI (cfiCond103) V13 load(1, XDATA, add(CFA_XSP16, literal(-9)))
        CFI (cfiCond103) V14 load(1, XDATA, add(CFA_XSP16, literal(-8)))
        CFI (cfiCond103) V15 load(1, XDATA, add(CFA_XSP16, literal(-7)))
        CFI (cfiCond103) R7 load(1, XDATA, add(CFA_XSP16, literal(-6)))
        CFI (cfiCond103) ?RET_LOW load(1, XDATA, add(CFA_XSP16, literal(-5)))
        CFI (cfiCond103) ?RET_HIGH load(1, XDATA, add(CFA_XSP16, literal(-4)))
        CFI (cfiCond103) ?BRET_EXT load(1, XDATA, add(CFA_XSP16, literal(-3)))
        CFI (cfiCond103) DPL0 load(1, XDATA, add(CFA_XSP16, literal(-2)))
        CFI (cfiCond103) DPH0 load(1, XDATA, add(CFA_XSP16, literal(-1)))
        CFI (cfiCond103) CFA_SP SP+0
        CFI (cfiCond103) CFA_XSP16 add(XSP16, 28)
        CFI Block cfiPicker104 Using cfiCommon1
        CFI (cfiPicker104) NoFunction
        CFI (cfiPicker104) Picker
        MOV     B,#0x6
        CFI EndBlock cfiCond102
        CFI EndBlock cfiCond103
        CFI EndBlock cfiPicker104
