///////////////////////////////////////////////////////////////////////////////
//                                                                            /
// IAR C/C++ Compiler V8.10.3.10338/W32 for 8051        05/Aug/2016  10:44:46 /
// Copyright 2004-2011 IAR Systems AB.                                        /
//                                                                            /
//    Core               =  plain                                             /
//    Code model         =  banked                                            /
//    Data model         =  large                                             /
//    Calling convention =  xdata reentrant                                   /
//    Constant location  =  data_rom                                          /
//    Dptr setup         =  1,16                                              /
//    Source file        =  G:\»ªÖÚÎÞÏß\12.´®¿ÚÍ¸´«Ö®ÎÞÏßQQ\ZStack-2.5.1a\Com /
//                          ponents\stack\zcl\zcl_se.c                        /
//    Command line       =  -f G:\»ªÖÚÎÞÏß\12.´®¿ÚÍ¸´«Ö®ÎÞÏßQQ\ZStack-2.5.1a\ /
//                          Projects\zstack\SE\SampleApp\CC2530DB\..\..\..\To /
//                          ols\CC2530DB\f8wCoord.cfg (-DCPU32MHZ             /
//                          -DROOT=__near_func -DMAC_CFG_APP_PENDING_QUEUE=TR /
//                          UE -DMAC_CFG_TX_DATA_MAX=5 -DMAC_CFG_TX_MAX=8     /
//                          -DMAC_CFG_RX_MAX=5 -DZDO_COORDINATOR -DRTR_NWK)   /
//                          -f G:\»ªÖÚÎÞÏß\12.´®¿ÚÍ¸´«Ö®ÎÞÏßQQ\ZStack-2.5.1a\ /
//                          Projects\zstack\SE\SampleApp\CC2530DB\..\..\..\To /
//                          ols\CC2530DB\f8wConfig.cfg (-DZIGBEEPRO           /
//                          -DSECURE=0 -DZG_SECURE_DYNAMIC=0 -DREFLECTOR      /
//                          -DDEFAULT_CHANLIST=0x02000000                     /
//                          -DZDAPP_CONFIG_PAN_ID=0x1688                      /
//                          -DNWK_START_DELAY=100 -DEXTENDED_JOINING_RANDOM_M /
//                          ASK=0x007F -DBEACON_REQUEST_DELAY=100             /
//                          -DBEACON_REQ_DELAY_MASK=0x00FF                    /
//                          -DLINK_STATUS_JITTER_MASK=0x007F                  /
//                          -DROUTE_EXPIRY_TIME=30 -DAPSC_ACK_WAIT_DURATION_P /
//                          OLLED=3000 -DNWK_INDIRECT_MSG_TIMEOUT=7           /
//                          -DMAX_RREQ_ENTRIES=8 -DAPSC_MAX_FRAME_RETRIES=3   /
//                          -DNWK_MAX_DATA_RETRIES=2                          /
//                          -DMAX_POLL_FAILURE_RETRIES=2 -DMAX_BCAST=9        /
//                          -DAPS_MAX_GROUPS=16 -DMAX_RTG_ENTRIES=40          /
//                          -DNWK_MAX_BINDING_ENTRIES=4                       /
//                          -DMAX_BINDING_CLUSTER_IDS=4                       /
//                          "-DDEFAULT_KEY={0x01, 0x03, 0x05, 0x07, 0x09,     /
//                          0x0B, 0x0D, 0x0F, 0x00, 0x02, 0x04, 0x06, 0x08,   /
//                          0x0A, 0x0C, 0x0D}" -DMAC_MAX_FRAME_SIZE=116       /
//                          -DZDNWKMGR_MIN_TRANSMISSIONS=20 "-DCONST=const    /
//                          __code" -DGENERIC=__generic                       /
//                          -DRFD_RCVC_ALWAYS_ON=FALSE -DPOLL_RATE=1000       /
//                          -DQUEUED_POLL_RATE=100 -DRESPONSE_POLL_RATE=100   /
//                          -DREJOIN_POLL_RATE=440) -f                        /
//                          G:\»ªÖÚÎÞÏß\12.´®¿ÚÍ¸´«Ö®ÎÞÏßQQ\ZStack-2.5.1a\Pro /
//                          jects\zstack\SE\SampleApp\CC2530DB\..\..\..\Tools /
//                          \CC2530DB\f8wZCL.cfg (-DZCL_READ -DZCL_WRITE      /
//                          -DZCL_BASIC -DZCL_IDENTIFY -DZCL_ON_OFF           /
//                          -DZCL_KEY_ESTABLISH -DZCL_KEY_ESTABLISHMENT_KEY_G /
//                          ENERATE_TIMEOUT=4 -DZCL_KEY_ESTABLISHMENT_MAC_GEN /
//                          ERATE_TIMEOUT=10 -DZCL_KEY_ESTABLISHMENT_EKEY_GEN /
//                          ERATE_TIMEOUT=10 -DZCL_LOAD_CONTROL               /
//                          -DZCL_SIMPLE_METERING -DZCL_PRICING               /
//                          -DZCL_MESSAGE -DZCL_TUNNELING -DZCL_TOU)          /
//                          -DZCL_DEVICE_MGMT G:\»ªÖÚÎÞÏß\12.´®¿ÚÍ¸´«Ö®ÎÞÏßQQ /
//                          \ZStack-2.5.1a\Components\stack\zcl\zcl_se.c -D   /
//                          TC_LINKKEY_JOIN -D ZTOOL_P1 -D MT_TASK -D         /
//                          MT_APP_FUNC -D MT_SYS_FUNC -D LCD_SUPPORTED -D    /
//                          INT_HEAP_LEN=2450 -D NV_INIT -D xNV_RESTORE -D    /
//                          ZCL_REPORT -D INTER_PAN -D                        /
//                          ZDSECMGR_TC_DEVICE_MAX=16 -D TEST_CERT_DATA -lC   /
//                          "G:\»ªÖÚÎÞÏß\12.´®¿ÚÍ¸´«Ö®ÎÞÏßQQ\ZStack-2.5.1a\Pr /
//                          ojects\zstack\SE\SampleApp\CC2530DB\ESP -         /
//                          Coordinator\List\" -lA "G:\»ªÖÚÎÞÏß\12.´®¿ÚÍ¸´«Ö® /
//                          ÎÞÏßQQ\ZStack-2.5.1a\Projects\zstack\SE\SampleApp /
//                          \CC2530DB\ESP - Coordinator\List\"                /
//                          --diag_suppress Pe001,Pa010 -o                    /
//                          "G:\»ªÖÚÎÞÏß\12.´®¿ÚÍ¸´«Ö®ÎÞÏßQQ\ZStack-2.5.1a\Pr /
//                          ojects\zstack\SE\SampleApp\CC2530DB\ESP -         /
//                          Coordinator\Obj\" -e --no_code_motion --debug     /
//                          --core=plain --dptr=16,1 --data_model=large       /
//                          --code_model=banked --calling_convention=xdata_re /
//                          entrant --place_constants=data_rom                /
//                          --nr_virtual_regs 16 -I                           /
//                          G:\»ªÖÚÎÞÏß\12.´®¿ÚÍ¸´«Ö®ÎÞÏßQQ\ZStack-2.5.1a\Pro /
//                          jects\zstack\SE\SampleApp\CC2530DB\ -I            /
//                          G:\»ªÖÚÎÞÏß\12.´®¿ÚÍ¸´«Ö®ÎÞÏßQQ\ZStack-2.5.1a\Pro /
//                          jects\zstack\SE\SampleApp\CC2530DB\..\Source\ -I  /
//                          G:\»ªÖÚÎÞÏß\12.´®¿ÚÍ¸´«Ö®ÎÞÏßQQ\ZStack-2.5.1a\Pro /
//                          jects\zstack\SE\SampleApp\CC2530DB\..\..\Source\  /
//                          -I G:\»ªÖÚÎÞÏß\12.´®¿ÚÍ¸´«Ö®ÎÞÏßQQ\ZStack-2.5.1a\ /
//                          Projects\zstack\SE\SampleApp\CC2530DB\..\..\..\ZM /
//                          ain\TI2530DB\ -I G:\»ªÖÚÎÞÏß\12.´®¿ÚÍ¸´«Ö®ÎÞÏßQQ\ /
//                          ZStack-2.5.1a\Projects\zstack\SE\SampleApp\CC2530 /
//                          DB\..\..\..\..\..\Components\hal\include\ -I      /
//                          G:\»ªÖÚÎÞÏß\12.´®¿ÚÍ¸´«Ö®ÎÞÏßQQ\ZStack-2.5.1a\Pro /
//                          jects\zstack\SE\SampleApp\CC2530DB\..\..\..\..\.. /
//                          \Components\hal\target\CC2530EB\ -I               /
//                          G:\»ªÖÚÎÞÏß\12.´®¿ÚÍ¸´«Ö®ÎÞÏßQQ\ZStack-2.5.1a\Pro /
//                          jects\zstack\SE\SampleApp\CC2530DB\..\..\..\..\.. /
//                          \Components\mac\include\ -I                       /
//                          G:\»ªÖÚÎÞÏß\12.´®¿ÚÍ¸´«Ö®ÎÞÏßQQ\ZStack-2.5.1a\Pro /
//                          jects\zstack\SE\SampleApp\CC2530DB\..\..\..\..\.. /
//                          \Components\mac\high_level\ -I                    /
//                          G:\»ªÖÚÎÞÏß\12.´®¿ÚÍ¸´«Ö®ÎÞÏßQQ\ZStack-2.5.1a\Pro /
//                          jects\zstack\SE\SampleApp\CC2530DB\..\..\..\..\.. /
//                          \Components\mac\low_level\srf04\ -I               /
//                          G:\»ªÖÚÎÞÏß\12.´®¿ÚÍ¸´«Ö®ÎÞÏßQQ\ZStack-2.5.1a\Pro /
//                          jects\zstack\SE\SampleApp\CC2530DB\..\..\..\..\.. /
//                          \Components\mac\low_level\srf04\single_chip\ -I   /
//                          G:\»ªÖÚÎÞÏß\12.´®¿ÚÍ¸´«Ö®ÎÞÏßQQ\ZStack-2.5.1a\Pro /
//                          jects\zstack\SE\SampleApp\CC2530DB\..\..\..\..\.. /
//                          \Components\mt\ -I G:\»ªÖÚÎÞÏß\12.´®¿ÚÍ¸´«Ö®ÎÞÏßQ /
//                          Q\ZStack-2.5.1a\Projects\zstack\SE\SampleApp\CC25 /
//                          30DB\..\..\..\..\..\Components\osal\include\ -I   /
//                          G:\»ªÖÚÎÞÏß\12.´®¿ÚÍ¸´«Ö®ÎÞÏßQQ\ZStack-2.5.1a\Pro /
//                          jects\zstack\SE\SampleApp\CC2530DB\..\..\..\..\.. /
//                          \Components\services\saddr\ -I                    /
//                          G:\»ªÖÚÎÞÏß\12.´®¿ÚÍ¸´«Ö®ÎÞÏßQQ\ZStack-2.5.1a\Pro /
//                          jects\zstack\SE\SampleApp\CC2530DB\..\..\..\..\.. /
//                          \Components\services\sdata\ -I                    /
//                          G:\»ªÖÚÎÞÏß\12.´®¿ÚÍ¸´«Ö®ÎÞÏßQQ\ZStack-2.5.1a\Pro /
//                          jects\zstack\SE\SampleApp\CC2530DB\..\..\..\..\.. /
//                          \Components\stack\af\ -I                          /
//                          G:\»ªÖÚÎÞÏß\12.´®¿ÚÍ¸´«Ö®ÎÞÏßQQ\ZStack-2.5.1a\Pro /
//                          jects\zstack\SE\SampleApp\CC2530DB\..\..\..\..\.. /
//                          \Components\stack\nwk\ -I                         /
//                          G:\»ªÖÚÎÞÏß\12.´®¿ÚÍ¸´«Ö®ÎÞÏßQQ\ZStack-2.5.1a\Pro /
//                          jects\zstack\SE\SampleApp\CC2530DB\..\..\..\..\.. /
//                          \Components\stack\sapi\ -I                        /
//                          G:\»ªÖÚÎÞÏß\12.´®¿ÚÍ¸´«Ö®ÎÞÏßQQ\ZStack-2.5.1a\Pro /
//                          jects\zstack\SE\SampleApp\CC2530DB\..\..\..\..\.. /
//                          \Components\stack\sec\ -I                         /
//                          G:\»ªÖÚÎÞÏß\12.´®¿ÚÍ¸´«Ö®ÎÞÏßQQ\ZStack-2.5.1a\Pro /
//                          jects\zstack\SE\SampleApp\CC2530DB\..\..\..\..\.. /
//                          \Components\stack\sys\ -I                         /
//                          G:\»ªÖÚÎÞÏß\12.´®¿ÚÍ¸´«Ö®ÎÞÏßQQ\ZStack-2.5.1a\Pro /
//                          jects\zstack\SE\SampleApp\CC2530DB\..\..\..\..\.. /
//                          \Components\stack\zcl\ -I                         /
//                          G:\»ªÖÚÎÞÏß\12.´®¿ÚÍ¸´«Ö®ÎÞÏßQQ\ZStack-2.5.1a\Pro /
//                          jects\zstack\SE\SampleApp\CC2530DB\..\..\..\..\.. /
//                          \Components\stack\zdo\ -I                         /
//                          G:\»ªÖÚÎÞÏß\12.´®¿ÚÍ¸´«Ö®ÎÞÏßQQ\ZStack-2.5.1a\Pro /
//                          jects\zstack\SE\SampleApp\CC2530DB\..\..\..\..\.. /
//                          \Components\zmac\ -I G:\»ªÖÚÎÞÏß\12.´®¿ÚÍ¸´«Ö®ÎÞÏ /
//                          ßQQ\ZStack-2.5.1a\Projects\zstack\SE\SampleApp\CC /
//                          2530DB\..\..\..\..\..\Components\zmac\f8w\ -Ohz   /
//                          --require_prototypes                              /
//    List file          =  G:\»ªÖÚÎÞÏß\12.´®¿ÚÍ¸´«Ö®ÎÞÏßQQ\ZStack-2.5.1a\Pro /
//                          jects\zstack\SE\SampleApp\CC2530DB\ESP -          /
//                          Coordinator\List\zcl_se.s51                       /
//                                                                            /
//                                                                            /
///////////////////////////////////////////////////////////////////////////////

        NAME zcl_se

        RTMODEL "__SystemLibrary", "CLib"
        RTMODEL "__calling_convention", "xdata_reentrant"
        RTMODEL "__code_model", "banked"
        RTMODEL "__core", "plain"
        RTMODEL "__data_model", "large"
        RTMODEL "__dptr_size", "16"
        RTMODEL "__extended_stack", "disabled"
        RTMODEL "__location_for_constants", "data"
        RTMODEL "__number_of_dptrs", "1"
        RTMODEL "__rt_version", "1"

        RSEG DOVERLAY:DATA:NOROOT(0)
        RSEG IOVERLAY:IDATA:NOROOT(0)
        RSEG ISTACK:IDATA:NOROOT(0)
        RSEG PSTACK:XDATA:NOROOT(0)
        RSEG XSTACK:XDATA:NOROOT(0)

        EXTERN ?ALLOC_XSTACK8
        EXTERN ?BANKED_ENTER_XDATA
        EXTERN ?BANKED_LEAVE_XDATA
        EXTERN ?BDISPATCH
        EXTERN ?CALL_IND
        EXTERN ?DEALLOC_XSTACK8
        EXTERN ?L_MOV_X
        EXTERN ?PUSH_XSTACK8_X_FOUR
        EXTERN ?PUSH_XSTACK_I_FOUR
        EXTERN ?PUSH_XSTACK_I_ONE
        EXTERN ?PUSH_XSTACK_I_THREE
        EXTERN ?PUSH_XSTACK_I_TWO
        EXTERN ?S_SHL
        EXTERN ?US_SWITCH_DENSE
        EXTERN ?V0
        EXTERN ?XLOAD_R2345
        EXTERN ?XSP
        EXTERN ?XSTACK_DISP0_8
        EXTERN ?XSTORE_R2345
        EXTERN __INIT_XDATA_Z

        FUNCTION ??zclSE_HdlInSpecificCommands?relay,0203H
        FUNCTION ??zclSE_HdlIncoming?relay,0203H
        PUBLIC ??zclSE_LoadControl_Send_CancelLoadControlEvent
        FUNCTION ??zclSE_LoadControl_Send_CancelLoadControlEvent,0203H
        PUBLIC ??zclSE_LoadControl_Send_GetScheduledEvent?rela
        FUNCTION ??zclSE_LoadControl_Send_GetScheduledEvent?rela,0203H
        PUBLIC ??zclSE_LoadControl_Send_LoadControlEvent?relay
        FUNCTION ??zclSE_LoadControl_Send_LoadControlEvent?relay,0203H
        PUBLIC ??zclSE_LoadControl_Send_ReportEventStatus?rela
        FUNCTION ??zclSE_LoadControl_Send_ReportEventStatus?rela,0203H
        PUBLIC ??zclSE_Message_Send_CancelMessage?relay
        FUNCTION ??zclSE_Message_Send_CancelMessage?relay,0203H
        PUBLIC ??zclSE_Message_Send_DisplayMessage?relay
        FUNCTION ??zclSE_Message_Send_DisplayMessage?relay,0203H
        PUBLIC ??zclSE_Message_Send_MessageConfirmation?relay
        FUNCTION ??zclSE_Message_Send_MessageConfirmation?relay,0203H
        PUBLIC ??zclSE_ParseInCmd_CancelLoadControlEvent?relay
        FUNCTION ??zclSE_ParseInCmd_CancelLoadControlEvent?relay,0203H
        PUBLIC ??zclSE_ParseInCmd_CancelMessage?relay
        FUNCTION ??zclSE_ParseInCmd_CancelMessage?relay,0203H
        PUBLIC ??zclSE_ParseInCmd_DisplayMessage?relay
        FUNCTION ??zclSE_ParseInCmd_DisplayMessage?relay,0203H
        PUBLIC ??zclSE_ParseInCmd_LoadControlEvent?relay
        FUNCTION ??zclSE_ParseInCmd_LoadControlEvent?relay,0203H
        PUBLIC ??zclSE_ParseInCmd_MessageConfirmation?relay
        FUNCTION ??zclSE_ParseInCmd_MessageConfirmation?relay,0203H
        PUBLIC ??zclSE_ParseInCmd_PublishBlockPeriod?relay
        FUNCTION ??zclSE_ParseInCmd_PublishBlockPeriod?relay,0203H
        PUBLIC ??zclSE_ParseInCmd_PublishPrice?relay
        FUNCTION ??zclSE_ParseInCmd_PublishPrice?relay,0203H
        PUBLIC ??zclSE_ParseInCmd_ReportEventStatus?relay
        FUNCTION ??zclSE_ParseInCmd_ReportEventStatus?relay,0203H
        PUBLIC ??zclSE_ParseInCmd_TransferData?relay
        FUNCTION ??zclSE_ParseInCmd_TransferData?relay,0203H
        PUBLIC ??zclSE_Pricing_Send_GetBlockPeriod?relay
        FUNCTION ??zclSE_Pricing_Send_GetBlockPeriod?relay,0203H
        PUBLIC ??zclSE_Pricing_Send_GetScheduledPrice?relay
        FUNCTION ??zclSE_Pricing_Send_GetScheduledPrice?relay,0203H
        PUBLIC ??zclSE_Pricing_Send_PriceAcknowledgement?relay
        FUNCTION ??zclSE_Pricing_Send_PriceAcknowledgement?relay,0203H
        PUBLIC ??zclSE_Pricing_Send_PublishBlockPeriod?relay
        FUNCTION ??zclSE_Pricing_Send_PublishBlockPeriod?relay,0203H
        PUBLIC ??zclSE_Pricing_Send_PublishPrice?relay
        FUNCTION ??zclSE_Pricing_Send_PublishPrice?relay,0203H
        FUNCTION ??zclSE_ProcessInCmd_LoadControl_LoadControlEve,0203H
        FUNCTION ??zclSE_ProcessInCmd_LoadControl_ReportEventSta,0203H
        FUNCTION ??zclSE_ProcessInCmd_Message_DisplayMessage?rel,0203H
        FUNCTION ??zclSE_ProcessInCmd_Pricing_PublishBlockPeriod,0203H
        FUNCTION ??zclSE_ProcessInCmd_Pricing_PublishPrice?relay,0203H
        FUNCTION ??zclSE_ProcessInCmd_SimpleMeter_GetProfileRsp?,0203H
        FUNCTION ??zclSE_ProcessInCmd_SimpleMeter_ReqFastPollMod,0203H
        FUNCTION ??zclSE_ProcessInCmd_Tunneling_AckTransferData?,0203H
        FUNCTION ??zclSE_ProcessInCmd_Tunneling_ReadyData?relay,0203H
        FUNCTION ??zclSE_ProcessInCmd_Tunneling_RequestTunnel?re,0203H
        FUNCTION ??zclSE_ProcessInCmd_Tunneling_TransferData?rel,0203H
        FUNCTION ??zclSE_ProcessInCmd_Tunneling_TransferDataErro,0203H
        FUNCTION ??zclSE_ProcessInLoadControlCmds?relay,0203H
        FUNCTION ??zclSE_ProcessInMessageCmds?relay,0203H
        FUNCTION ??zclSE_ProcessInPricingCmds?relay,0203H
        FUNCTION ??zclSE_ProcessInSimpleMeteringCmds?relay,0203H
        FUNCTION ??zclSE_ProcessInTunnelingCmds?relay,0203H
        PUBLIC ??zclSE_RegisterCmdCallbacks?relay
        FUNCTION ??zclSE_RegisterCmdCallbacks?relay,0203H
        PUBLIC ??zclSE_SimpleMetering_Send_GetProfileCmd?relay
        FUNCTION ??zclSE_SimpleMetering_Send_GetProfileCmd?relay,0203H
        PUBLIC ??zclSE_SimpleMetering_Send_GetProfileRsp?relay
        FUNCTION ??zclSE_SimpleMetering_Send_GetProfileRsp?relay,0203H
        PUBLIC ??zclSE_SimpleMetering_Send_RemMirrorRsp?relay
        FUNCTION ??zclSE_SimpleMetering_Send_RemMirrorRsp?relay,0203H
        PUBLIC ??zclSE_SimpleMetering_Send_ReqFastPollModeCmd?
        FUNCTION ??zclSE_SimpleMetering_Send_ReqFastPollModeCmd?,0203H
        PUBLIC ??zclSE_SimpleMetering_Send_ReqFastPollModeRsp?
        FUNCTION ??zclSE_SimpleMetering_Send_ReqFastPollModeRsp?,0203H
        PUBLIC ??zclSE_SimpleMetering_Send_ReqMirrorRsp?relay
        FUNCTION ??zclSE_SimpleMetering_Send_ReqMirrorRsp?relay,0203H
        PUBLIC ??zclSE_Tunneling_Send_AckTransferData?relay
        FUNCTION ??zclSE_Tunneling_Send_AckTransferData?relay,0203H
        PUBLIC ??zclSE_Tunneling_Send_CloseTunnel?relay
        FUNCTION ??zclSE_Tunneling_Send_CloseTunnel?relay,0203H
        PUBLIC ??zclSE_Tunneling_Send_ReadyData?relay
        FUNCTION ??zclSE_Tunneling_Send_ReadyData?relay,0203H
        PUBLIC ??zclSE_Tunneling_Send_ReqTunnelRsp?relay
        FUNCTION ??zclSE_Tunneling_Send_ReqTunnelRsp?relay,0203H
        PUBLIC ??zclSE_Tunneling_Send_RequestTunnel?relay
        FUNCTION ??zclSE_Tunneling_Send_RequestTunnel?relay,0203H
        PUBLIC ??zclSE_Tunneling_Send_TransferData?relay
        FUNCTION ??zclSE_Tunneling_Send_TransferData?relay,0203H
        PUBLIC ??zclSE_Tunneling_Send_TransferDataError?relay
        FUNCTION ??zclSE_Tunneling_Send_TransferDataError?relay,0203H
        PUBWEAK __Constant_ffffffff
        FUNCTION zclSE_HdlInSpecificCommands,0a1203H
        ARGFRAME XSTACK, 9, STACK
        ARGFRAME IOVERLAY, 0, STATIC
        ARGFRAME DOVERLAY, 0, STATIC
        LOCFRAME XSTACK, 10, STACK
        FUNCTION zclSE_HdlIncoming,021603H
        ARGFRAME XSTACK, 0, STACK
        LOCFRAME XSTACK, 9, STACK
        PUBLIC zclSE_LoadControl_Send_CancelLoadControlEvent
        FUNCTION zclSE_LoadControl_Send_CancelLoadControlEvent,021203H
        ARGFRAME XSTACK, 2, STACK
        LOCFRAME ISTACK, 1, STACK
        LOCFRAME XSTACK, 39, STACK
        PUBLIC zclSE_LoadControl_Send_GetScheduledEvent
        FUNCTION zclSE_LoadControl_Send_GetScheduledEvent,021203H
        ARGFRAME XSTACK, 2, STACK
        LOCFRAME ISTACK, 1, STACK
        LOCFRAME XSTACK, 29, STACK
        PUBLIC zclSE_LoadControl_Send_LoadControlEvent
        FUNCTION zclSE_LoadControl_Send_LoadControlEvent,021203H
        ARGFRAME XSTACK, 2, STACK
        LOCFRAME ISTACK, 1, STACK
        LOCFRAME XSTACK, 29, STACK
        PUBLIC zclSE_LoadControl_Send_ReportEventStatus
        FUNCTION zclSE_LoadControl_Send_ReportEventStatus,021203H
        ARGFRAME XSTACK, 2, STACK
        LOCFRAME ISTACK, 1, STACK
        LOCFRAME XSTACK, 29, STACK
        PUBLIC zclSE_Message_Send_CancelMessage
        FUNCTION zclSE_Message_Send_CancelMessage,021203H
        ARGFRAME XSTACK, 2, STACK
        LOCFRAME ISTACK, 1, STACK
        LOCFRAME XSTACK, 29, STACK
        PUBLIC zclSE_Message_Send_DisplayMessage
        FUNCTION zclSE_Message_Send_DisplayMessage,021203H
        ARGFRAME XSTACK, 2, STACK
        LOCFRAME ISTACK, 1, STACK
        LOCFRAME XSTACK, 33, STACK
        PUBLIC zclSE_Message_Send_MessageConfirmation
        FUNCTION zclSE_Message_Send_MessageConfirmation,021203H
        ARGFRAME XSTACK, 2, STACK
        LOCFRAME XSTACK, 29, STACK
        PUBLIC zclSE_ParseInCmd_CancelLoadControlEvent
        FUNCTION zclSE_ParseInCmd_CancelLoadControlEvent,021203H
        ARGFRAME XSTACK, 31, STACK
        ARGFRAME IOVERLAY, 0, STATIC
        ARGFRAME DOVERLAY, 0, STATIC
        LOCFRAME ISTACK, 1, STACK
        LOCFRAME XSTACK, 10, STACK
        PUBLIC zclSE_ParseInCmd_CancelMessage
        FUNCTION zclSE_ParseInCmd_CancelMessage,021203H
        ARGFRAME XSTACK, 30, STACK
        ARGFRAME IOVERLAY, 0, STATIC
        ARGFRAME DOVERLAY, 0, STATIC
        LOCFRAME ISTACK, 1, STACK
        LOCFRAME XSTACK, 12, STACK
        PUBLIC zclSE_ParseInCmd_DisplayMessage
        FUNCTION zclSE_ParseInCmd_DisplayMessage,021203H
        ARGFRAME XSTACK, 28, STACK
        ARGFRAME IOVERLAY, 0, STATIC
        ARGFRAME DOVERLAY, 0, STATIC
        LOCFRAME ISTACK, 1, STACK
        LOCFRAME XSTACK, 15, STACK
        PUBLIC zclSE_ParseInCmd_LoadControlEvent
        FUNCTION zclSE_ParseInCmd_LoadControlEvent,021203H
        ARGFRAME XSTACK, 36, STACK
        ARGFRAME IOVERLAY, 0, STATIC
        ARGFRAME DOVERLAY, 0, STATIC
        LOCFRAME ISTACK, 1, STACK
        LOCFRAME XSTACK, 10, STACK
        PUBLIC zclSE_ParseInCmd_MessageConfirmation
        FUNCTION zclSE_ParseInCmd_MessageConfirmation,021203H
        ARGFRAME XSTACK, 30, STACK
        ARGFRAME IOVERLAY, 0, STATIC
        ARGFRAME DOVERLAY, 0, STATIC
        LOCFRAME XSTACK, 10, STACK
        PUBLIC zclSE_ParseInCmd_PublishBlockPeriod
        FUNCTION zclSE_ParseInCmd_PublishBlockPeriod,021203H
        ARGFRAME XSTACK, 29, STACK
        ARGFRAME IOVERLAY, 0, STATIC
        ARGFRAME DOVERLAY, 0, STATIC
        LOCFRAME ISTACK, 1, STACK
        LOCFRAME XSTACK, 10, STACK
        PUBLIC zclSE_ParseInCmd_PublishPrice
        FUNCTION zclSE_ParseInCmd_PublishPrice,021203H
        ARGFRAME XSTACK, 54, STACK
        ARGFRAME IOVERLAY, 0, STATIC
        ARGFRAME DOVERLAY, 0, STATIC
        LOCFRAME ISTACK, 1, STACK
        LOCFRAME XSTACK, 18, STACK
        PUBLIC zclSE_ParseInCmd_ReportEventStatus
        FUNCTION zclSE_ParseInCmd_ReportEventStatus,021203H
        ARGFRAME XSTACK, 70, STACK
        ARGFRAME IOVERLAY, 0, STATIC
        ARGFRAME DOVERLAY, 0, STATIC
        LOCFRAME ISTACK, 1, STACK
        LOCFRAME XSTACK, 18, STACK
        PUBLIC zclSE_ParseInCmd_TransferData
        FUNCTION zclSE_ParseInCmd_TransferData,0203H
        ARGFRAME XSTACK, 17, STACK
        ARGFRAME IOVERLAY, 0, STATIC
        ARGFRAME DOVERLAY, 0, STATIC
        LOCFRAME XSTACK, 9, STACK
        PUBLIC zclSE_Pricing_Send_GetBlockPeriod
        FUNCTION zclSE_Pricing_Send_GetBlockPeriod,021203H
        ARGFRAME XSTACK, 2, STACK
        LOCFRAME ISTACK, 1, STACK
        LOCFRAME XSTACK, 29, STACK
        PUBLIC zclSE_Pricing_Send_GetScheduledPrice
        FUNCTION zclSE_Pricing_Send_GetScheduledPrice,021203H
        ARGFRAME XSTACK, 2, STACK
        LOCFRAME ISTACK, 1, STACK
        LOCFRAME XSTACK, 29, STACK
        PUBLIC zclSE_Pricing_Send_PriceAcknowledgement
        FUNCTION zclSE_Pricing_Send_PriceAcknowledgement,021203H
        ARGFRAME XSTACK, 2, STACK
        LOCFRAME ISTACK, 1, STACK
        LOCFRAME XSTACK, 30, STACK
        PUBLIC zclSE_Pricing_Send_PublishBlockPeriod
        FUNCTION zclSE_Pricing_Send_PublishBlockPeriod,021203H
        ARGFRAME XSTACK, 2, STACK
        LOCFRAME ISTACK, 1, STACK
        LOCFRAME XSTACK, 29, STACK
        PUBLIC zclSE_Pricing_Send_PublishPrice
        FUNCTION zclSE_Pricing_Send_PublishPrice,021203H
        ARGFRAME XSTACK, 2, STACK
        LOCFRAME ISTACK, 1, STACK
        LOCFRAME XSTACK, 31, STACK
        FUNCTION zclSE_ProcessInCmd_LoadControl_LoadControlEvent,021203H
        ARGFRAME XSTACK, 31, STACK
        ARGFRAME IOVERLAY, 0, STATIC
        ARGFRAME DOVERLAY, 0, STATIC
        LOCFRAME XSTACK, 37, STACK
        FUNCTION zclSE_ProcessInCmd_LoadControl_ReportEventStatus,021203H
        ARGFRAME XSTACK, 31, STACK
        ARGFRAME IOVERLAY, 0, STATIC
        ARGFRAME DOVERLAY, 0, STATIC
        LOCFRAME XSTACK, 70, STACK
        FUNCTION zclSE_ProcessInCmd_Message_DisplayMessage,021203H
        ARGFRAME XSTACK, 30, STACK
        ARGFRAME IOVERLAY, 0, STATIC
        ARGFRAME DOVERLAY, 0, STATIC
        LOCFRAME XSTACK, 28, STACK
        FUNCTION zclSE_ProcessInCmd_Pricing_PublishBlockPeriod,021203H
        ARGFRAME XSTACK, 31, STACK
        ARGFRAME IOVERLAY, 0, STATIC
        ARGFRAME DOVERLAY, 0, STATIC
        LOCFRAME XSTACK, 29, STACK
        FUNCTION zclSE_ProcessInCmd_Pricing_PublishPrice,021203H
        ARGFRAME XSTACK, 31, STACK
        ARGFRAME IOVERLAY, 0, STATIC
        ARGFRAME DOVERLAY, 0, STATIC
        LOCFRAME ISTACK, 2, STACK
        LOCFRAME XSTACK, 54, STACK
        FUNCTION zclSE_ProcessInCmd_SimpleMeter_GetProfileRsp,021203H
        ARGFRAME XSTACK, 25, STACK
        ARGFRAME IOVERLAY, 0, STATIC
        ARGFRAME DOVERLAY, 0, STATIC
        LOCFRAME ISTACK, 1, STACK
        LOCFRAME XSTACK, 25, STACK
        FUNCTION zclSE_ProcessInCmd_SimpleMeter_ReqFastPollModeCmd,021203H
        ARGFRAME XSTACK, 25, STACK
        ARGFRAME IOVERLAY, 0, STATIC
        ARGFRAME DOVERLAY, 0, STATIC
        LOCFRAME ISTACK, 1, STACK
        LOCFRAME XSTACK, 27, STACK
        FUNCTION zclSE_ProcessInCmd_Tunneling_AckTransferData,0203H
        ARGFRAME XSTACK, 19, STACK
        ARGFRAME IOVERLAY, 0, STATIC
        ARGFRAME DOVERLAY, 0, STATIC
        LOCFRAME XSTACK, 15, STACK
        FUNCTION zclSE_ProcessInCmd_Tunneling_ReadyData,0203H
        ARGFRAME XSTACK, 19, STACK
        ARGFRAME IOVERLAY, 0, STATIC
        ARGFRAME DOVERLAY, 0, STATIC
        LOCFRAME XSTACK, 15, STACK
        FUNCTION zclSE_ProcessInCmd_Tunneling_RequestTunnel,0203H
        ARGFRAME XSTACK, 19, STACK
        ARGFRAME IOVERLAY, 0, STATIC
        ARGFRAME DOVERLAY, 0, STATIC
        LOCFRAME ISTACK, 1, STACK
        LOCFRAME XSTACK, 18, STACK
        FUNCTION zclSE_ProcessInCmd_Tunneling_TransferData,021203H
        ARGFRAME XSTACK, 19, STACK
        ARGFRAME IOVERLAY, 0, STATIC
        ARGFRAME DOVERLAY, 0, STATIC
        LOCFRAME XSTACK, 20, STACK
        FUNCTION zclSE_ProcessInCmd_Tunneling_TransferDataError,0203H
        ARGFRAME XSTACK, 19, STACK
        ARGFRAME IOVERLAY, 0, STATIC
        ARGFRAME DOVERLAY, 0, STATIC
        LOCFRAME ISTACK, 1, STACK
        LOCFRAME XSTACK, 13, STACK
        FUNCTION zclSE_ProcessInLoadControlCmds,021203H
        ARGFRAME XSTACK, 10, STACK
        ARGFRAME IOVERLAY, 0, STATIC
        ARGFRAME DOVERLAY, 0, STATIC
        LOCFRAME ISTACK, 1, STACK
        LOCFRAME XSTACK, 31, STACK
        FUNCTION zclSE_ProcessInMessageCmds,021203H
        ARGFRAME XSTACK, 10, STACK
        ARGFRAME IOVERLAY, 0, STATIC
        ARGFRAME DOVERLAY, 0, STATIC
        LOCFRAME XSTACK, 30, STACK
        FUNCTION zclSE_ProcessInPricingCmds,021203H
        ARGFRAME XSTACK, 10, STACK
        ARGFRAME IOVERLAY, 0, STATIC
        ARGFRAME DOVERLAY, 0, STATIC
        LOCFRAME ISTACK, 1, STACK
        LOCFRAME XSTACK, 31, STACK
        FUNCTION zclSE_ProcessInSimpleMeteringCmds,021203H
        ARGFRAME XSTACK, 10, STACK
        ARGFRAME IOVERLAY, 0, STATIC
        ARGFRAME DOVERLAY, 0, STATIC
        LOCFRAME ISTACK, 1, STACK
        LOCFRAME XSTACK, 25, STACK
        FUNCTION zclSE_ProcessInTunnelingCmds,021203H
        ARGFRAME XSTACK, 10, STACK
        ARGFRAME IOVERLAY, 0, STATIC
        ARGFRAME DOVERLAY, 0, STATIC
        LOCFRAME ISTACK, 1, STACK
        LOCFRAME XSTACK, 19, STACK
        PUBLIC zclSE_RegisterCmdCallbacks
        FUNCTION zclSE_RegisterCmdCallbacks,021203H
        ARGFRAME XSTACK, 0, STACK
        LOCFRAME ISTACK, 1, STACK
        LOCFRAME XSTACK, 14, STACK
        PUBLIC zclSE_SimpleMetering_Send_GetProfileCmd
        FUNCTION zclSE_SimpleMetering_Send_GetProfileCmd,021203H
        ARGFRAME XSTACK, 6, STACK
        LOCFRAME ISTACK, 1, STACK
        LOCFRAME XSTACK, 34, STACK
        PUBLIC zclSE_SimpleMetering_Send_GetProfileRsp
        FUNCTION zclSE_SimpleMetering_Send_GetProfileRsp,021203H
        ARGFRAME XSTACK, 9, STACK
        LOCFRAME ISTACK, 1, STACK
        LOCFRAME XSTACK, 36, STACK
        PUBLIC zclSE_SimpleMetering_Send_RemMirrorRsp
        FUNCTION zclSE_SimpleMetering_Send_RemMirrorRsp,021203H
        ARGFRAME XSTACK, 2, STACK
        LOCFRAME ISTACK, 1, STACK
        LOCFRAME XSTACK, 23, STACK
        PUBLIC zclSE_SimpleMetering_Send_ReqFastPollModeCmd
        FUNCTION zclSE_SimpleMetering_Send_ReqFastPollModeCmd,021203H
        ARGFRAME XSTACK, 2, STACK
        LOCFRAME ISTACK, 1, STACK
        LOCFRAME XSTACK, 23, STACK
        PUBLIC zclSE_SimpleMetering_Send_ReqFastPollModeRsp
        FUNCTION zclSE_SimpleMetering_Send_ReqFastPollModeRsp,021203H
        ARGFRAME XSTACK, 2, STACK
        LOCFRAME ISTACK, 1, STACK
        LOCFRAME XSTACK, 29, STACK
        PUBLIC zclSE_SimpleMetering_Send_ReqMirrorRsp
        FUNCTION zclSE_SimpleMetering_Send_ReqMirrorRsp,021203H
        ARGFRAME XSTACK, 2, STACK
        LOCFRAME ISTACK, 1, STACK
        LOCFRAME XSTACK, 23, STACK
        PUBLIC zclSE_Tunneling_Send_AckTransferData
        FUNCTION zclSE_Tunneling_Send_AckTransferData,021203H
        ARGFRAME XSTACK, 3, STACK
        LOCFRAME ISTACK, 1, STACK
        LOCFRAME XSTACK, 27, STACK
        PUBLIC zclSE_Tunneling_Send_CloseTunnel
        FUNCTION zclSE_Tunneling_Send_CloseTunnel,021203H
        ARGFRAME XSTACK, 2, STACK
        LOCFRAME ISTACK, 1, STACK
        LOCFRAME XSTACK, 24, STACK
        PUBLIC zclSE_Tunneling_Send_ReadyData
        FUNCTION zclSE_Tunneling_Send_ReadyData,021203H
        ARGFRAME XSTACK, 3, STACK
        LOCFRAME ISTACK, 1, STACK
        LOCFRAME XSTACK, 27, STACK
        PUBLIC zclSE_Tunneling_Send_ReqTunnelRsp
        FUNCTION zclSE_Tunneling_Send_ReqTunnelRsp,021203H
        ARGFRAME XSTACK, 2, STACK
        LOCFRAME ISTACK, 1, STACK
        LOCFRAME XSTACK, 28, STACK
        PUBLIC zclSE_Tunneling_Send_RequestTunnel
        FUNCTION zclSE_Tunneling_Send_RequestTunnel,021203H
        ARGFRAME XSTACK, 2, STACK
        LOCFRAME ISTACK, 1, STACK
        LOCFRAME XSTACK, 29, STACK
        PUBLIC zclSE_Tunneling_Send_TransferData
        FUNCTION zclSE_Tunneling_Send_TransferData,021203H
        ARGFRAME XSTACK, 5, STACK
        LOCFRAME ISTACK, 1, STACK
        LOCFRAME XSTACK, 35, STACK
        PUBLIC zclSE_Tunneling_Send_TransferDataError
        FUNCTION zclSE_Tunneling_Send_TransferDataError,021203H
        ARGFRAME XSTACK, 3, STACK
        LOCFRAME ISTACK, 1, STACK
        LOCFRAME XSTACK, 26, STACK
        
        CFI Names cfiNames0
        CFI StackFrame CFA_SP SP IDATA
        CFI StackFrame CFA_PSP16 PSP16 XDATA
        CFI StackFrame CFA_XSP16 XSP16 XDATA
        CFI StaticOverlayFrame CFA_IOVERLAY IOVERLAY
        CFI StaticOverlayFrame CFA_DOVERLAY DOVERLAY
        CFI Resource `PSW.CY`:1, `B.BR0`:1, `B.BR1`:1, `B.BR2`:1, `B.BR3`:1
        CFI Resource `B.BR4`:1, `B.BR5`:1, `B.BR6`:1, `B.BR7`:1, `VB.BR8`:1
        CFI Resource `VB.BR9`:1, `VB.BR10`:1, `VB.BR11`:1, `VB.BR12`:1
        CFI Resource `VB.BR13`:1, `VB.BR14`:1, `VB.BR15`:1, VB:8, B:8, A:8
        CFI Resource PSW:8, DPL0:8, DPH0:8, R0:8, R1:8, R2:8, R3:8, R4:8, R5:8
        CFI Resource R6:8, R7:8, V0:8, V1:8, V2:8, V3:8, V4:8, V5:8, V6:8, V7:8
        CFI Resource V8:8, V9:8, V10:8, V11:8, V12:8, V13:8, V14:8, V15:8, SP:8
        CFI Resource PSPH:8, PSPL:8, PSP16:16, XSPH:8, XSPL:8, XSP16:16
        CFI VirtualResource ?RET:24
        CFI Resource ?BRET_EXT:8
        CFI VirtualResource ?RET_HIGH:8, ?RET_LOW:8
        CFI ResourceParts PSP16 PSPH, PSPL
        CFI ResourceParts XSP16 XSPH, XSPL
        CFI ResourceParts ?RET ?BRET_EXT, ?RET_HIGH, ?RET_LOW
        CFI EndNames cfiNames0
        
        CFI Common cfiCommon0 Using cfiNames0
        CFI CodeAlign 1
        CFI DataAlign -1
        CFI ReturnAddress ?RET CODE
        CFI CFA_DOVERLAY Used
        CFI CFA_IOVERLAY Used
        CFI CFA_SP SP+-3
        CFI CFA_PSP16 PSP16+0
        CFI CFA_XSP16 XSP16+0
        CFI `PSW.CY` SameValue
        CFI `B.BR0` SameValue
        CFI `B.BR1` SameValue
        CFI `B.BR2` SameValue
        CFI `B.BR3` SameValue
        CFI `B.BR4` SameValue
        CFI `B.BR5` SameValue
        CFI `B.BR6` SameValue
        CFI `B.BR7` SameValue
        CFI `VB.BR8` SameValue
        CFI `VB.BR9` SameValue
        CFI `VB.BR10` SameValue
        CFI `VB.BR11` SameValue
        CFI `VB.BR12` SameValue
        CFI `VB.BR13` SameValue
        CFI `VB.BR14` SameValue
        CFI `VB.BR15` SameValue
        CFI VB SameValue
        CFI B Undefined
        CFI A Undefined
        CFI PSW SameValue
        CFI DPL0 SameValue
        CFI DPH0 SameValue
        CFI R0 Undefined
        CFI R1 Undefined
        CFI R2 Undefined
        CFI R3 Undefined
        CFI R4 Undefined
        CFI R5 Undefined
        CFI R6 SameValue
        CFI R7 SameValue
        CFI V0 SameValue
        CFI V1 SameValue
        CFI V2 SameValue
        CFI V3 SameValue
        CFI V4 SameValue
        CFI V5 SameValue
        CFI V6 SameValue
        CFI V7 SameValue
        CFI V8 SameValue
        CFI V9 SameValue
        CFI V10 SameValue
        CFI V11 SameValue
        CFI V12 SameValue
        CFI V13 SameValue
        CFI V14 SameValue
        CFI V15 SameValue
        CFI PSPH Undefined
        CFI PSPL Undefined
        CFI XSPH Undefined
        CFI XSPL Undefined
        CFI ?RET Concat
        CFI ?BRET_EXT Frame(CFA_SP, 3)
        CFI ?RET_HIGH Frame(CFA_SP, 2)
        CFI ?RET_LOW Frame(CFA_SP, 1)
        CFI EndCommon cfiCommon0
        
        
        CFI Common cfiCommon1 Using cfiNames0
        CFI CodeAlign 1
        CFI DataAlign -1
        CFI ReturnAddress ?RET CODE
        CFI CFA_DOVERLAY Used
        CFI CFA_IOVERLAY Used
        CFI CFA_SP SP+-2
        CFI CFA_PSP16 PSP16+0
        CFI CFA_XSP16 XSP16+0
        CFI `PSW.CY` SameValue
        CFI `B.BR0` SameValue
        CFI `B.BR1` SameValue
        CFI `B.BR2` SameValue
        CFI `B.BR3` SameValue
        CFI `B.BR4` SameValue
        CFI `B.BR5` SameValue
        CFI `B.BR6` SameValue
        CFI `B.BR7` SameValue
        CFI `VB.BR8` SameValue
        CFI `VB.BR9` SameValue
        CFI `VB.BR10` SameValue
        CFI `VB.BR11` SameValue
        CFI `VB.BR12` SameValue
        CFI `VB.BR13` SameValue
        CFI `VB.BR14` SameValue
        CFI `VB.BR15` SameValue
        CFI VB SameValue
        CFI B SameValue
        CFI A SameValue
        CFI PSW SameValue
        CFI DPL0 SameValue
        CFI DPH0 SameValue
        CFI R0 SameValue
        CFI R1 SameValue
        CFI R2 SameValue
        CFI R3 SameValue
        CFI R4 SameValue
        CFI R5 SameValue
        CFI R6 SameValue
        CFI R7 SameValue
        CFI V0 SameValue
        CFI V1 SameValue
        CFI V2 SameValue
        CFI V3 SameValue
        CFI V4 SameValue
        CFI V5 SameValue
        CFI V6 SameValue
        CFI V7 SameValue
        CFI V8 SameValue
        CFI V9 SameValue
        CFI V10 SameValue
        CFI V11 SameValue
        CFI V12 SameValue
        CFI V13 SameValue
        CFI V14 SameValue
        CFI V15 SameValue
        CFI PSPH Undefined
        CFI PSPL Undefined
        CFI XSPH Undefined
        CFI XSPL Undefined
        CFI ?RET Concat
        CFI ?BRET_EXT SameValue
        CFI ?RET_HIGH Frame(CFA_SP, 2)
        CFI ?RET_LOW Frame(CFA_SP, 1)
        CFI EndCommon cfiCommon1
        
osal_buffer_uint32  SYMBOL "osal_buffer_uint32"
zcl_SendCommand     SYMBOL "zcl_SendCommand"
osal_mem_alloc      SYMBOL "osal_mem_alloc"
osal_buffer_uint24  SYMBOL "osal_buffer_uint24"
osal_mem_free       SYMBOL "osal_mem_free"
osal_memcpy         SYMBOL "osal_memcpy"
zclGeneral_KeyEstablishment_ECDSASign SYMBOL "zclGeneral_KeyEstablishment_ECDSASign"
zcl_registerPlugin  SYMBOL "zcl_registerPlugin"
StubAPS_InterPan    SYMBOL "StubAPS_InterPan"
osal_build_uint32   SYMBOL "osal_build_uint32"
zclFindAttrRec      SYMBOL "zclFindAttrRec"
zclReadAttrData     SYMBOL "zclReadAttrData"
osal_memset         SYMBOL "osal_memset"
??StubAPS_InterPan?relay SYMBOL "?relay", StubAPS_InterPan
??osal_buffer_uint24?relay SYMBOL "?relay", osal_buffer_uint24
??osal_buffer_uint32?relay SYMBOL "?relay", osal_buffer_uint32
??osal_build_uint32?relay SYMBOL "?relay", osal_build_uint32
??osal_mem_alloc?relay SYMBOL "?relay", osal_mem_alloc
??osal_mem_free?relay SYMBOL "?relay", osal_mem_free
??osal_memcpy?relay SYMBOL "?relay", osal_memcpy
??osal_memset?relay SYMBOL "?relay", osal_memset
??zclFindAttrRec?relay SYMBOL "?relay", zclFindAttrRec
??zclGeneral_KeyEstablishment_ECDSASign?relay SYMBOL "?relay", zclGeneral_KeyEstablishment_ECDSASign
??zclReadAttrData?relay SYMBOL "?relay", zclReadAttrData
??zcl_SendCommand?relay SYMBOL "?relay", zcl_SendCommand
??zcl_registerPlugin?relay SYMBOL "?relay", zcl_registerPlugin
zclSE_LoadControl_Send_CancelLoadControlEvent SYMBOL "zclSE_LoadControl_Send_CancelLoadControlEvent"
??zclSE_LoadControl_Send_CancelLoadControlEvent SYMBOL "?relay", zclSE_LoadControl_Send_CancelLoadControlEvent
zclSE_LoadControl_Send_GetScheduledEvent SYMBOL "zclSE_LoadControl_Send_GetScheduledEvent"
??zclSE_LoadControl_Send_GetScheduledEvent?rela SYMBOL "?relay", zclSE_LoadControl_Send_GetScheduledEvent
zclSE_LoadControl_Send_LoadControlEvent SYMBOL "zclSE_LoadControl_Send_LoadControlEvent"
??zclSE_LoadControl_Send_LoadControlEvent?relay SYMBOL "?relay", zclSE_LoadControl_Send_LoadControlEvent
zclSE_LoadControl_Send_ReportEventStatus SYMBOL "zclSE_LoadControl_Send_ReportEventStatus"
??zclSE_LoadControl_Send_ReportEventStatus?rela SYMBOL "?relay", zclSE_LoadControl_Send_ReportEventStatus
zclSE_Message_Send_CancelMessage SYMBOL "zclSE_Message_Send_CancelMessage"
??zclSE_Message_Send_CancelMessage?relay SYMBOL "?relay", zclSE_Message_Send_CancelMessage
zclSE_Message_Send_DisplayMessage SYMBOL "zclSE_Message_Send_DisplayMessage"
??zclSE_Message_Send_DisplayMessage?relay SYMBOL "?relay", zclSE_Message_Send_DisplayMessage
zclSE_Message_Send_MessageConfirmation SYMBOL "zclSE_Message_Send_MessageConfirmation"
??zclSE_Message_Send_MessageConfirmation?relay SYMBOL "?relay", zclSE_Message_Send_MessageConfirmation
zclSE_ParseInCmd_CancelLoadControlEvent SYMBOL "zclSE_ParseInCmd_CancelLoadControlEvent"
??zclSE_ParseInCmd_CancelLoadControlEvent?relay SYMBOL "?relay", zclSE_ParseInCmd_CancelLoadControlEvent
zclSE_ParseInCmd_CancelMessage SYMBOL "zclSE_ParseInCmd_CancelMessage"
??zclSE_ParseInCmd_CancelMessage?relay SYMBOL "?relay", zclSE_ParseInCmd_CancelMessage
zclSE_ParseInCmd_DisplayMessage SYMBOL "zclSE_ParseInCmd_DisplayMessage"
??zclSE_ParseInCmd_DisplayMessage?relay SYMBOL "?relay", zclSE_ParseInCmd_DisplayMessage
zclSE_ParseInCmd_LoadControlEvent SYMBOL "zclSE_ParseInCmd_LoadControlEvent"
??zclSE_ParseInCmd_LoadControlEvent?relay SYMBOL "?relay", zclSE_ParseInCmd_LoadControlEvent
zclSE_ParseInCmd_MessageConfirmation SYMBOL "zclSE_ParseInCmd_MessageConfirmation"
??zclSE_ParseInCmd_MessageConfirmation?relay SYMBOL "?relay", zclSE_ParseInCmd_MessageConfirmation
zclSE_ParseInCmd_PublishBlockPeriod SYMBOL "zclSE_ParseInCmd_PublishBlockPeriod"
??zclSE_ParseInCmd_PublishBlockPeriod?relay SYMBOL "?relay", zclSE_ParseInCmd_PublishBlockPeriod
zclSE_ParseInCmd_PublishPrice SYMBOL "zclSE_ParseInCmd_PublishPrice"
??zclSE_ParseInCmd_PublishPrice?relay SYMBOL "?relay", zclSE_ParseInCmd_PublishPrice
zclSE_ParseInCmd_ReportEventStatus SYMBOL "zclSE_ParseInCmd_ReportEventStatus"
??zclSE_ParseInCmd_ReportEventStatus?relay SYMBOL "?relay", zclSE_ParseInCmd_ReportEventStatus
zclSE_ParseInCmd_TransferData SYMBOL "zclSE_ParseInCmd_TransferData"
??zclSE_ParseInCmd_TransferData?relay SYMBOL "?relay", zclSE_ParseInCmd_TransferData
zclSE_Pricing_Send_GetBlockPeriod SYMBOL "zclSE_Pricing_Send_GetBlockPeriod"
??zclSE_Pricing_Send_GetBlockPeriod?relay SYMBOL "?relay", zclSE_Pricing_Send_GetBlockPeriod
zclSE_Pricing_Send_GetScheduledPrice SYMBOL "zclSE_Pricing_Send_GetScheduledPrice"
??zclSE_Pricing_Send_GetScheduledPrice?relay SYMBOL "?relay", zclSE_Pricing_Send_GetScheduledPrice
zclSE_Pricing_Send_PriceAcknowledgement SYMBOL "zclSE_Pricing_Send_PriceAcknowledgement"
??zclSE_Pricing_Send_PriceAcknowledgement?relay SYMBOL "?relay", zclSE_Pricing_Send_PriceAcknowledgement
zclSE_Pricing_Send_PublishBlockPeriod SYMBOL "zclSE_Pricing_Send_PublishBlockPeriod"
??zclSE_Pricing_Send_PublishBlockPeriod?relay SYMBOL "?relay", zclSE_Pricing_Send_PublishBlockPeriod
zclSE_Pricing_Send_PublishPrice SYMBOL "zclSE_Pricing_Send_PublishPrice"
??zclSE_Pricing_Send_PublishPrice?relay SYMBOL "?relay", zclSE_Pricing_Send_PublishPrice
zclSE_RegisterCmdCallbacks SYMBOL "zclSE_RegisterCmdCallbacks"
??zclSE_RegisterCmdCallbacks?relay SYMBOL "?relay", zclSE_RegisterCmdCallbacks
zclSE_SimpleMetering_Send_GetProfileCmd SYMBOL "zclSE_SimpleMetering_Send_GetProfileCmd"
??zclSE_SimpleMetering_Send_GetProfileCmd?relay SYMBOL "?relay", zclSE_SimpleMetering_Send_GetProfileCmd
zclSE_SimpleMetering_Send_GetProfileRsp SYMBOL "zclSE_SimpleMetering_Send_GetProfileRsp"
??zclSE_SimpleMetering_Send_GetProfileRsp?relay SYMBOL "?relay", zclSE_SimpleMetering_Send_GetProfileRsp
zclSE_SimpleMetering_Send_RemMirrorRsp SYMBOL "zclSE_SimpleMetering_Send_RemMirrorRsp"
??zclSE_SimpleMetering_Send_RemMirrorRsp?relay SYMBOL "?relay", zclSE_SimpleMetering_Send_RemMirrorRsp
zclSE_SimpleMetering_Send_ReqFastPollModeCmd SYMBOL "zclSE_SimpleMetering_Send_ReqFastPollModeCmd"
??zclSE_SimpleMetering_Send_ReqFastPollModeCmd? SYMBOL "?relay", zclSE_SimpleMetering_Send_ReqFastPollModeCmd
zclSE_SimpleMetering_Send_ReqFastPollModeRsp SYMBOL "zclSE_SimpleMetering_Send_ReqFastPollModeRsp"
??zclSE_SimpleMetering_Send_ReqFastPollModeRsp? SYMBOL "?relay", zclSE_SimpleMetering_Send_ReqFastPollModeRsp
zclSE_SimpleMetering_Send_ReqMirrorRsp SYMBOL "zclSE_SimpleMetering_Send_ReqMirrorRsp"
??zclSE_SimpleMetering_Send_ReqMirrorRsp?relay SYMBOL "?relay", zclSE_SimpleMetering_Send_ReqMirrorRsp
zclSE_Tunneling_Send_AckTransferData SYMBOL "zclSE_Tunneling_Send_AckTransferData"
??zclSE_Tunneling_Send_AckTransferData?relay SYMBOL "?relay", zclSE_Tunneling_Send_AckTransferData
zclSE_Tunneling_Send_CloseTunnel SYMBOL "zclSE_Tunneling_Send_CloseTunnel"
??zclSE_Tunneling_Send_CloseTunnel?relay SYMBOL "?relay", zclSE_Tunneling_Send_CloseTunnel
zclSE_Tunneling_Send_ReadyData SYMBOL "zclSE_Tunneling_Send_ReadyData"
??zclSE_Tunneling_Send_ReadyData?relay SYMBOL "?relay", zclSE_Tunneling_Send_ReadyData
zclSE_Tunneling_Send_ReqTunnelRsp SYMBOL "zclSE_Tunneling_Send_ReqTunnelRsp"
??zclSE_Tunneling_Send_ReqTunnelRsp?relay SYMBOL "?relay", zclSE_Tunneling_Send_ReqTunnelRsp
zclSE_Tunneling_Send_RequestTunnel SYMBOL "zclSE_Tunneling_Send_RequestTunnel"
??zclSE_Tunneling_Send_RequestTunnel?relay SYMBOL "?relay", zclSE_Tunneling_Send_RequestTunnel
zclSE_Tunneling_Send_TransferData SYMBOL "zclSE_Tunneling_Send_TransferData"
??zclSE_Tunneling_Send_TransferData?relay SYMBOL "?relay", zclSE_Tunneling_Send_TransferData
zclSE_Tunneling_Send_TransferDataError SYMBOL "zclSE_Tunneling_Send_TransferDataError"
??zclSE_Tunneling_Send_TransferDataError?relay SYMBOL "?relay", zclSE_Tunneling_Send_TransferDataError

        EXTERN osal_buffer_uint32
        FUNCTION osal_buffer_uint32,0202H
        ARGFRAME ISTACK, 1, STACK
        ARGFRAME PSTACK, 0, STACK
        ARGFRAME XSTACK, 32, STACK
        ARGFRAME IOVERLAY, 0, STATIC
        ARGFRAME DOVERLAY, 0, STATIC
        EXTERN zcl_SendCommand
        FUNCTION zcl_SendCommand,0202H
        ARGFRAME ISTACK, 0, STACK
        ARGFRAME PSTACK, 0, STACK
        ARGFRAME XSTACK, 39, STACK
        ARGFRAME IOVERLAY, 0, STATIC
        ARGFRAME DOVERLAY, 0, STATIC
        EXTERN osal_mem_alloc
        FUNCTION osal_mem_alloc,0202H
        ARGFRAME ISTACK, 0, STACK
        ARGFRAME PSTACK, 0, STACK
        ARGFRAME XSTACK, 25, STACK
        ARGFRAME IOVERLAY, 0, STATIC
        ARGFRAME DOVERLAY, 0, STATIC
        EXTERN osal_buffer_uint24
        FUNCTION osal_buffer_uint24,0202H
        ARGFRAME ISTACK, 0, STACK
        ARGFRAME PSTACK, 0, STACK
        ARGFRAME XSTACK, 32, STACK
        ARGFRAME IOVERLAY, 0, STATIC
        ARGFRAME DOVERLAY, 0, STATIC
        EXTERN osal_mem_free
        FUNCTION osal_mem_free,0202H
        ARGFRAME ISTACK, 0, STACK
        ARGFRAME PSTACK, 0, STACK
        ARGFRAME XSTACK, 54, STACK
        ARGFRAME IOVERLAY, 0, STATIC
        ARGFRAME DOVERLAY, 0, STATIC
        EXTERN osal_memcpy
        FUNCTION osal_memcpy,0202H
        ARGFRAME ISTACK, 0, STACK
        ARGFRAME PSTACK, 0, STACK
        ARGFRAME XSTACK, 27, STACK
        ARGFRAME IOVERLAY, 0, STATIC
        ARGFRAME DOVERLAY, 0, STATIC
        EXTERN zclGeneral_KeyEstablishment_ECDSASign
        FUNCTION zclGeneral_KeyEstablishment_ECDSASign,0202H
        ARGFRAME ISTACK, 0, STACK
        ARGFRAME PSTACK, 0, STACK
        ARGFRAME XSTACK, 18, STACK
        ARGFRAME IOVERLAY, 0, STATIC
        ARGFRAME DOVERLAY, 0, STATIC
        EXTERN zcl_registerPlugin
        FUNCTION zcl_registerPlugin,0202H
        ARGFRAME ISTACK, 0, STACK
        ARGFRAME PSTACK, 0, STACK
        ARGFRAME XSTACK, 14, STACK
        ARGFRAME IOVERLAY, 0, STATIC
        ARGFRAME DOVERLAY, 0, STATIC
        EXTERN StubAPS_InterPan
        FUNCTION StubAPS_InterPan,0202H
        ARGFRAME ISTACK, 0, STACK
        ARGFRAME PSTACK, 0, STACK
        ARGFRAME XSTACK, 9, STACK
        ARGFRAME IOVERLAY, 0, STATIC
        ARGFRAME DOVERLAY, 0, STATIC
        EXTERN osal_build_uint32
        FUNCTION osal_build_uint32,0202H
        ARGFRAME ISTACK, 0, STACK
        ARGFRAME PSTACK, 0, STACK
        ARGFRAME XSTACK, 31, STACK
        ARGFRAME IOVERLAY, 0, STATIC
        ARGFRAME DOVERLAY, 0, STATIC
        EXTERN zclFindAttrRec
        FUNCTION zclFindAttrRec,0202H
        ARGFRAME ISTACK, 0, STACK
        ARGFRAME PSTACK, 0, STACK
        ARGFRAME XSTACK, 27, STACK
        ARGFRAME IOVERLAY, 0, STATIC
        ARGFRAME DOVERLAY, 0, STATIC
        EXTERN zclReadAttrData
        FUNCTION zclReadAttrData,0202H
        ARGFRAME ISTACK, 0, STACK
        ARGFRAME PSTACK, 0, STACK
        ARGFRAME XSTACK, 27, STACK
        ARGFRAME IOVERLAY, 0, STATIC
        ARGFRAME DOVERLAY, 0, STATIC
        EXTERN osal_memset
        FUNCTION osal_memset,0202H
        ARGFRAME ISTACK, 0, STACK
        ARGFRAME PSTACK, 0, STACK
        ARGFRAME XSTACK, 12, STACK
        ARGFRAME IOVERLAY, 0, STATIC
        ARGFRAME DOVERLAY, 0, STATIC
        EXTERN ??StubAPS_InterPan?relay
        FUNCTION ??StubAPS_InterPan?relay,00H
        EXTERN ??osal_buffer_uint24?relay
        FUNCTION ??osal_buffer_uint24?relay,00H
        EXTERN ??osal_buffer_uint32?relay
        FUNCTION ??osal_buffer_uint32?relay,00H
        EXTERN ??osal_build_uint32?relay
        FUNCTION ??osal_build_uint32?relay,00H
        EXTERN ??osal_mem_alloc?relay
        FUNCTION ??osal_mem_alloc?relay,00H
        EXTERN ??osal_mem_free?relay
        FUNCTION ??osal_mem_free?relay,00H
        EXTERN ??osal_memcpy?relay
        FUNCTION ??osal_memcpy?relay,00H
        EXTERN ??osal_memset?relay
        FUNCTION ??osal_memset?relay,00H
        EXTERN ??zclFindAttrRec?relay
        FUNCTION ??zclFindAttrRec?relay,00H
        EXTERN ??zclGeneral_KeyEstablishment_ECDSASign?relay
        FUNCTION ??zclGeneral_KeyEstablishment_ECDSASign?relay,00H
        EXTERN ??zclReadAttrData?relay
        FUNCTION ??zclReadAttrData?relay,00H
        EXTERN ??zcl_SendCommand?relay
        FUNCTION ??zcl_SendCommand?relay,00H
        EXTERN ??zcl_registerPlugin?relay
        FUNCTION ??zcl_registerPlugin?relay,00H

// G:\»ªÖÚÎÞÏß\12.´®¿ÚÍ¸´«Ö®ÎÞÏßQQ\ZStack-2.5.1a\Components\stack\zcl\zcl_se.c
//    1 /**************************************************************************************************
//    2   Filename:       zcl_se.c
//    3   Revised:        $Date: 2012-03-11 00:25:21 -0800 (Sun, 11 Mar 2012) $
//    4   Revision:       $Revision: 29708 $
//    5 
//    6   Description:    Zigbee Cluster Library - SE (Smart Energy) Profile.
//    7 
//    8 
//    9   Copyright 2007-2012 Texas Instruments Incorporated. All rights reserved.
//   10 
//   11   IMPORTANT: Your use of this Software is limited to those specific rights
//   12   granted under the terms of a software license agreement between the user
//   13   who downloaded the software, his/her employer (which must be your employer)
//   14   and Texas Instruments Incorporated (the "License").  You may not use this
//   15   Software unless you agree to abide by the terms of the License. The License
//   16   limits your use, and you acknowledge, that the Software may not be modified,
//   17   copied or distributed unless embedded on a Texas Instruments microcontroller
//   18   or used solely and exclusively in conjunction with a Texas Instruments radio
//   19   frequency transceiver, which is integrated into your product.  Other than for
//   20   the foregoing purpose, you may not use, reproduce, copy, prepare derivative
//   21   works of, modify, distribute, perform, display or sell this Software and/or
//   22   its documentation for any purpose.
//   23 
//   24   YOU FURTHER ACKNOWLEDGE AND AGREE THAT THE SOFTWARE AND DOCUMENTATION ARE
//   25   PROVIDED “AS IS” WITHOUT WARRANTY OF ANY KIND, EITHER EXPRESS OR IMPLIED,
//   26   INCLUDING WITHOUT LIMITATION, ANY WARRANTY OF MERCHANTABILITY, TITLE,
//   27   NON-INFRINGEMENT AND FITNESS FOR A PARTICULAR PURPOSE. IN NO EVENT SHALL
//   28   TEXAS INSTRUMENTS OR ITS LICENSORS BE LIABLE OR OBLIGATED UNDER CONTRACT,
//   29   NEGLIGENCE, STRICT LIABILITY, CONTRIBUTION, BREACH OF WARRANTY, OR OTHER
//   30   LEGAL EQUITABLE THEORY ANY DIRECT OR INDIRECT DAMAGES OR EXPENSES
//   31   INCLUDING BUT NOT LIMITED TO ANY INCIDENTAL, SPECIAL, INDIRECT, PUNITIVE
//   32   OR CONSEQUENTIAL DAMAGES, LOST PROFITS OR LOST DATA, COST OF PROCUREMENT
//   33   OF SUBSTITUTE GOODS, TECHNOLOGY, SERVICES, OR ANY CLAIMS BY THIRD PARTIES
//   34   (INCLUDING BUT NOT LIMITED TO ANY DEFENSE THEREOF), OR OTHER SIMILAR COSTS.
//   35 
//   36   Should you have any questions regarding your right to use this Software,
//   37   contact Texas Instruments Incorporated at www.TI.com.
//   38 **************************************************************************************************/
//   39 
//   40 
//   41 /*********************************************************************
//   42  * INCLUDES
//   43  */
//   44 #include "ZComDef.h"
//   45 #include "OSAL.h"
//   46 #include "zcl.h"
//   47 #include "zcl_general.h"
//   48 #include "zcl_se.h"
//   49 #include "DebugTrace.h"
//   50 
//   51 #if defined ( INTER_PAN )
//   52   #include "stub_aps.h"
//   53 #endif
//   54 
//   55 
//   56 #include "zcl_key_establish.h"
//   57 
//   58 
//   59 /*********************************************************************
//   60  * MACROS
//   61  */
//   62 // Clusters that are supported thru Inter-PAN communication
//   63 #define INTER_PAN_CLUSTER( id )  ( (id) == ZCL_CLUSTER_ID_SE_PRICING || \ 
//   64                                    (id) == ZCL_CLUSTER_ID_SE_MESSAGE )
//   65 
//   66 /*********************************************************************
//   67  * CONSTANTS
//   68  */
//   69 
//   70 /*********************************************************************
//   71  * TYPEDEFS
//   72  */
//   73 typedef struct zclSECBRec
//   74 {
//   75   struct zclSECBRec          *next;
//   76   uint8                       endpoint; // Used to link it into the endpoint descriptor
//   77   zclSE_AppCallbacks_t       *CBs;     // Pointer to Callback function
//   78 } zclSECBRec_t;
//   79 
//   80 /*********************************************************************
//   81  * GLOBAL VARIABLES
//   82  */
//   83 
//   84 /*********************************************************************
//   85  * GLOBAL FUNCTIONS
//   86  */
//   87 
//   88 /*********************************************************************
//   89  * LOCAL VARIABLES
//   90  */

        RSEG XDATA_Z:XDATA:NOROOT(0)
        DATA16
//   91 static zclSECBRec_t *zclSECBs = (zclSECBRec_t *)NULL;
zclSECBs:
        DS 2
        REQUIRE __INIT_XDATA_Z

        RSEG XDATA_Z:XDATA:NOROOT(0)
        DATA8
//   92 static uint8 zclSEPluginRegisted = FALSE;
zclSEPluginRegisted:
        DS 1
        REQUIRE __INIT_XDATA_Z
//   93 
//   94 /*********************************************************************
//   95  * LOCAL FUNCTIONS
//   96  */
//   97 
//   98 static ZStatus_t zclSE_HdlIncoming(  zclIncoming_t *pInMsg );
//   99 static ZStatus_t zclSE_HdlInSpecificCommands( zclIncoming_t *pInMsg );
//  100 
//  101 #ifdef ZCL_SIMPLE_METERING
//  102 static ZStatus_t zclSE_ProcessInSimpleMeteringCmds( zclIncoming_t *pInMsg, zclSE_AppCallbacks_t *pCBs );
//  103 static ZStatus_t zclSE_ProcessInCmd_SimpleMeter_GetProfileCmd( zclIncoming_t *pInMsg, zclSE_AppCallbacks_t *pCBs );
//  104 static ZStatus_t zclSE_ProcessInCmd_SimpleMeter_GetProfileRsp( zclIncoming_t *pInMsg, zclSE_AppCallbacks_t *pCBs );
//  105 static ZStatus_t zclSE_ProcessInCmd_SimpleMeter_ReqMirrorCmd( zclIncoming_t *pInMsg, zclSE_AppCallbacks_t *pCBs );
//  106 static ZStatus_t zclSE_ProcessInCmd_SimpleMeter_ReqMirrorRsp( zclIncoming_t *pInMsg, zclSE_AppCallbacks_t *pCBs );
//  107 static ZStatus_t zclSE_ProcessInCmd_SimpleMeter_MirrorRemCmd( zclIncoming_t *pInMsg, zclSE_AppCallbacks_t *pCBs );
//  108 static ZStatus_t zclSE_ProcessInCmd_SimpleMeter_MirrorRemRsp( zclIncoming_t *pInMsg, zclSE_AppCallbacks_t *pCBs );
//  109 static ZStatus_t zclSE_ProcessInCmd_SimpleMeter_ReqFastPollModeCmd( zclIncoming_t *pInMsg, zclSE_AppCallbacks_t *pCBs );
//  110 static ZStatus_t zclSE_ProcessInCmd_SimpleMeter_ReqFastPollModeRsp( zclIncoming_t *pInMsg, zclSE_AppCallbacks_t *pCBs );
//  111 #ifdef SE_UK_EXT
//  112 static ZStatus_t zclSE_ProcessInCmd_SimpleMeter_GetSnapshotCmd( zclIncoming_t *pInMsg, zclSE_AppCallbacks_t *pCBs );
//  113 static ZStatus_t zclSE_ProcessInCmd_SimpleMeter_GetSnapshotRsp( zclIncoming_t *pInMsg, zclSE_AppCallbacks_t *pCBs );
//  114 static ZStatus_t zclSE_ProcessInCmd_SimpleMeter_TakeSnapshotCmd( zclIncoming_t *pInMsg, zclSE_AppCallbacks_t *pCBs );
//  115 static ZStatus_t zclSE_ProcessInCmd_SimpleMeter_MirrorReportAttrRsp( zclIncoming_t *pInMsg, zclSE_AppCallbacks_t *pCBs );
//  116 #endif  // SE_UK_EXT
//  117 #endif  // ZCL_SIMPLE_METERING
//  118 
//  119 #ifdef ZCL_PRICING
//  120 static ZStatus_t zclSE_ProcessInPricingCmds( zclIncoming_t *pInMsg, zclSE_AppCallbacks_t *pCBs );
//  121 static ZStatus_t zclSE_ProcessInCmd_Pricing_GetCurrentPrice( zclIncoming_t *pInMsg, zclSE_AppCallbacks_t *pCBs );
//  122 static ZStatus_t zclSE_ProcessInCmd_Pricing_GetScheduledPrice( zclIncoming_t *pInMsg, zclSE_AppCallbacks_t *pCBs );
//  123 static ZStatus_t zclSE_ProcessInCmd_Pricing_PublishPrice( zclIncoming_t *pInMsg, zclSE_AppCallbacks_t *pCBs );
//  124 static ZStatus_t zclSE_ProcessInCmd_Pricing_PriceAcknowledgement( zclIncoming_t *pInMsg, zclSE_AppCallbacks_t *pCBs );
//  125 static ZStatus_t zclSE_ProcessInCmd_Pricing_GetBlockPeriod( zclIncoming_t *pInMsg, zclSE_AppCallbacks_t *pCBs );
//  126 static ZStatus_t zclSE_ProcessInCmd_Pricing_PublishBlockPeriod( zclIncoming_t *pInMsg, zclSE_AppCallbacks_t *pCBs );
//  127 #ifdef SE_UK_EXT
//  128 static ZStatus_t zclSE_ProcessInCmd_Pricing_PublishTariffInformation( zclIncoming_t *pInMsg, zclSE_AppCallbacks_t *pCBs );
//  129 static ZStatus_t zclSE_ProcessInCmd_Pricing_PublishPriceMatrix( zclIncoming_t *pInMsg, zclSE_AppCallbacks_t *pCBs );
//  130 static ZStatus_t zclSE_ProcessInCmd_Pricing_PublishBlockThreshold( zclIncoming_t *pInMsg, zclSE_AppCallbacks_t *pCBs );
//  131 static ZStatus_t zclSE_ProcessInCmd_Pricing_PublishConversionFactor( zclIncoming_t *pInMsg, zclSE_AppCallbacks_t *pCBs );
//  132 static ZStatus_t zclSE_ProcessInCmd_Pricing_PublishCalorificValue( zclIncoming_t *pInMsg, zclSE_AppCallbacks_t *pCBs );
//  133 static ZStatus_t zclSE_ProcessInCmd_Pricing_PublishCO2Value( zclIncoming_t *pInMsg, zclSE_AppCallbacks_t *pCBs );
//  134 static ZStatus_t zclSE_ProcessInCmd_Pricing_PublishCPPEvent( zclIncoming_t *pInMsg, zclSE_AppCallbacks_t *pCBs );
//  135 static ZStatus_t zclSE_ProcessInCmd_Pricing_PublishBillingPeriod( zclIncoming_t *pInMsg, zclSE_AppCallbacks_t *pCBs );
//  136 static ZStatus_t zclSE_ProcessInCmd_Pricing_PublishConsolidatedBill( zclIncoming_t *pInMsg, zclSE_AppCallbacks_t *pCBs );
//  137 static ZStatus_t zclSE_ProcessInCmd_Pricing_PublishCreditPaymentInfo( zclIncoming_t *pInMsg, zclSE_AppCallbacks_t *pCBs );
//  138 static ZStatus_t zclSE_ProcessInCmd_Pricing_GetTariffInformation( zclIncoming_t *pInMsg, zclSE_AppCallbacks_t *pCBs );
//  139 static ZStatus_t zclSE_ProcessInCmd_Pricing_GetPriceMatrix( zclIncoming_t *pInMsg, zclSE_AppCallbacks_t *pCBs );
//  140 static ZStatus_t zclSE_ProcessInCmd_Pricing_GetBlockThresholds( zclIncoming_t *pInMsg, zclSE_AppCallbacks_t *pCBs );
//  141 static ZStatus_t zclSE_ProcessInCmd_Pricing_GetConversionFactor( zclIncoming_t *pInMsg, zclSE_AppCallbacks_t *pCBs );
//  142 static ZStatus_t zclSE_ProcessInCmd_Pricing_GetCalorificValue( zclIncoming_t *pInMsg, zclSE_AppCallbacks_t *pCBs );
//  143 static ZStatus_t zclSE_ProcessInCmd_Pricing_GetCO2Value( zclIncoming_t *pInMsg, zclSE_AppCallbacks_t *pCBs );
//  144 static ZStatus_t zclSE_ProcessInCmd_Pricing_GetBillingPeriod( zclIncoming_t *pInMsg, zclSE_AppCallbacks_t *pCBs );
//  145 static ZStatus_t zclSE_ProcessInCmd_Pricing_GetConsolidatedBill( zclIncoming_t *pInMsg, zclSE_AppCallbacks_t *pCBs );
//  146 static ZStatus_t zclSE_ProcessInCmd_Pricing_CPPEventResponse( zclIncoming_t *pInMsg, zclSE_AppCallbacks_t *pCBs );
//  147 #endif  // SE_UK_EXT
//  148 #endif  // ZCL_PRICING
//  149 
//  150 #ifdef ZCL_MESSAGE
//  151 static ZStatus_t zclSE_ProcessInMessageCmds( zclIncoming_t *pInMsg, zclSE_AppCallbacks_t *pCBs );
//  152 static ZStatus_t zclSE_ProcessInCmd_Message_DisplayMessage( zclIncoming_t *pInMsg, zclSE_AppCallbacks_t *pCBs );
//  153 static ZStatus_t zclSE_ProcessInCmd_Message_CancelMessage( zclIncoming_t *pInMsg, zclSE_AppCallbacks_t *pCBs );
//  154 static ZStatus_t zclSE_ProcessInCmd_Message_GetLastMessage( zclIncoming_t *pInMsg, zclSE_AppCallbacks_t *pCBs );
//  155 static ZStatus_t zclSE_ProcessInCmd_Message_MessageConfirmation( zclIncoming_t *pInMsg, zclSE_AppCallbacks_t *pCBs );
//  156 #endif  // ZCL_MESSAGE
//  157 
//  158 #ifdef ZCL_LOAD_CONTROL
//  159 static ZStatus_t zclSE_ProcessInLoadControlCmds( zclIncoming_t *pInMsg, zclSE_AppCallbacks_t *pCBs );
//  160 static ZStatus_t zclSE_ProcessInCmd_LoadControl_LoadControlEvent( zclIncoming_t *pInMsg, zclSE_AppCallbacks_t *pCBs );
//  161 static ZStatus_t zclSE_ProcessInCmd_LoadControl_CancelLoadControlEvent( zclIncoming_t *pInMsg, zclSE_AppCallbacks_t *pCBs );
//  162 static ZStatus_t zclSE_ProcessInCmd_LoadControl_CancelAllLoadControlEvents( zclIncoming_t *pInMsg, zclSE_AppCallbacks_t *pCBs );
//  163 static ZStatus_t zclSE_ProcessInCmd_LoadControl_ReportEventStatus( zclIncoming_t *pInMsg, zclSE_AppCallbacks_t *pCBs );
//  164 static ZStatus_t zclSE_ProcessInCmd_LoadControl_GetScheduledEvents( zclIncoming_t *pInMsg,
//  165                                                                     zclSE_AppCallbacks_t *pCBs );
//  166 #endif  // ZCL_LOAD_CONTROL
//  167 
//  168 #ifdef ZCL_TUNNELING
//  169 static ZStatus_t zclSE_ProcessInTunnelingCmds(zclIncoming_t *pInMsg, zclSE_AppCallbacks_t *pCBs);
//  170 static ZStatus_t zclSE_ProcessInCmd_Tunneling_RequestTunnel(zclIncoming_t *pInMsg, zclSE_AppCallbacks_t *pCBs);
//  171 static ZStatus_t zclSE_ProcessInCmd_Tunneling_ReqTunnelRsp(zclIncoming_t *pInMsg, zclSE_AppCallbacks_t *pCBs);
//  172 static ZStatus_t zclSE_ProcessInCmd_Tunneling_CloseTunnel(zclIncoming_t *pInMsg, zclSE_AppCallbacks_t *pCBs);
//  173 static ZStatus_t zclSE_ProcessInCmd_Tunneling_TransferData(zclIncoming_t *pInMsg, zclSE_AppCallbacks_t *pCBs);
//  174 static ZStatus_t zclSE_ProcessInCmd_Tunneling_TransferDataError(zclIncoming_t *pInMsg, zclSE_AppCallbacks_t *pCBs);
//  175 static ZStatus_t zclSE_ProcessInCmd_Tunneling_AckTransferData(zclIncoming_t *pInMsg, zclSE_AppCallbacks_t *pCBs);
//  176 static ZStatus_t zclSE_ProcessInCmd_Tunneling_ReadyData(zclIncoming_t *pInMsg, zclSE_AppCallbacks_t *pCBs);
//  177 #ifdef SE_UK_EXT
//  178 static ZStatus_t zclSE_ProcessInCmd_Tunneling_GetSuppTunnelProt(zclIncoming_t *pInMsg, zclSE_AppCallbacks_t *pCBs);
//  179 static ZStatus_t zclSE_ProcessInCmd_Tunneling_SuppTunnelProtRsp(zclIncoming_t *pInMsg, zclSE_AppCallbacks_t *pCBs);
//  180 static ZStatus_t zclSE_ProcessInCmd_Tunneling_TunnelClosureNotification(zclIncoming_t *pInMsg, zclSE_AppCallbacks_t *pCBs);
//  181 #endif  // SE_UK_EXT
//  182 #endif  // ZCL_TUNNELING
//  183 
//  184 #ifdef ZCL_PREPAYMENT
//  185 static ZStatus_t zclSE_ProcessInPrepaymentCmds( zclIncoming_t *pInMsg, zclSE_AppCallbacks_t *pCBs );
//  186 static ZStatus_t zclSE_ProcessInCmd_Prepayment_SelAvailEmergencyCredit( zclIncoming_t *pInMsg, zclSE_AppCallbacks_t *pCBs);
//  187 #ifndef SE_UK_EXT
//  188 static ZStatus_t zclSE_ProcessInCmd_Prepayment_ChangeSupply( zclIncoming_t *pInMsg, zclSE_AppCallbacks_t *pCBs );
//  189 static ZStatus_t zclSE_ProcessInCmd_Prepayment_SupplyStatusResponse( zclIncoming_t *pInMsg, zclSE_AppCallbacks_t *pCBs );
//  190 #else // SE_UK_EXT
//  191 static ZStatus_t zclSE_ProcessInCmd_Prepayment_ChangeDebt( zclIncoming_t *pInMsg, zclSE_AppCallbacks_t *pCBs );
//  192 static ZStatus_t zclSE_ProcessInCmd_Prepayment_EmergencyCreditSetup( zclIncoming_t *pInMsg, zclSE_AppCallbacks_t *pCBs );
//  193 static ZStatus_t zclSE_ProcessInCmd_Prepayment_ConsumerTopup( zclIncoming_t *pInMsg, zclSE_AppCallbacks_t *pCBs );
//  194 static ZStatus_t zclSE_ProcessInCmd_Prepayment_CreditAdjustment( zclIncoming_t *pInMsg, zclSE_AppCallbacks_t *pCBs );
//  195 static ZStatus_t zclSE_ProcessInCmd_Prepayment_ChangePaymentMode( zclIncoming_t *pInMsg, zclSE_AppCallbacks_t *pCBs );
//  196 static ZStatus_t zclSE_ProcessInCmd_Prepayment_GetPrepaySnapshot( zclIncoming_t *pInMsg, zclSE_AppCallbacks_t *pCBs );
//  197 static ZStatus_t zclSE_ProcessInCmd_Prepayment_GetTopupLog( zclIncoming_t *pInMsg, zclSE_AppCallbacks_t *pCBs );
//  198 static ZStatus_t zclSE_ProcessInCmd_Prepayment_SetLowCreditWarningLevel( zclIncoming_t *pInMsg, zclSE_AppCallbacks_t *pCBs );
//  199 static ZStatus_t zclSE_ProcessInCmd_Prepayment_GetDebtRepaymentLog( zclIncoming_t *pInMsg, zclSE_AppCallbacks_t *pCBs );
//  200 static ZStatus_t zclSE_ProcessInCmd_Prepayment_GetPrepaySnapshotResponse( zclIncoming_t *pInMsg, zclSE_AppCallbacks_t *pCBs );
//  201 static ZStatus_t zclSE_ProcessInCmd_Prepayment_ChangePaymentModeResponse( zclIncoming_t *pInMsg, zclSE_AppCallbacks_t *pCBs );
//  202 static ZStatus_t zclSE_ProcessInCmd_Prepayment_ConsumerTopupResponse( zclIncoming_t *pInMsg, zclSE_AppCallbacks_t *pCBs );
//  203 static ZStatus_t zclSE_ProcessInCmd_Prepayment_GetCommands( zclIncoming_t *pInMsg, zclSE_AppCallbacks_t *pCBs );
//  204 static ZStatus_t zclSE_ProcessInCmd_Prepayment_PublishTopupLog( zclIncoming_t *pInMsg, zclSE_AppCallbacks_t *pCBs );
//  205 static ZStatus_t zclSE_ProcessInCmd_Prepayment_PublishDebtLog( zclIncoming_t *pInMsg, zclSE_AppCallbacks_t *pCBs );
//  206 #endif  // SE_UK_EXT
//  207 #endif  // ZCL_PREPAYMENT
//  208 
//  209 #ifdef ZCL_TOU
//  210 #ifdef SE_UK_EXT
//  211 static ZStatus_t zclSE_ProcessInTouCmds( zclIncoming_t *pInMsg, zclSE_AppCallbacks_t *pCBs );
//  212 static ZStatus_t zclSE_ProcessInCmd_Tou_PublishCalendar( zclIncoming_t *pInMsg, zclSE_AppCallbacks_t *pCBs );
//  213 static ZStatus_t zclSE_ProcessInCmd_Tou_PublishDayProfile( zclIncoming_t *pInMsg, zclSE_AppCallbacks_t *pCBs );
//  214 static ZStatus_t zclSE_ProcessInCmd_Tou_PublishWeekProfile( zclIncoming_t *pInMsg, zclSE_AppCallbacks_t *pCBs );
//  215 static ZStatus_t zclSE_ProcessInCmd_Tou_PublishSeasons( zclIncoming_t *pInMsg, zclSE_AppCallbacks_t *pCBs );
//  216 static ZStatus_t zclSE_ProcessInCmd_Tou_PublishSpecialDays( zclIncoming_t *pInMsg, zclSE_AppCallbacks_t *pCBs );
//  217 static ZStatus_t zclSE_ProcessInCmd_Tou_GetCalendar( zclIncoming_t *pInMsg, zclSE_AppCallbacks_t *pCBs );
//  218 static ZStatus_t zclSE_ProcessInCmd_Tou_GetDayProfiles( zclIncoming_t *pInMsg, zclSE_AppCallbacks_t *pCBs );
//  219 static ZStatus_t zclSE_ProcessInCmd_Tou_GetWeekProfiles( zclIncoming_t *pInMsg, zclSE_AppCallbacks_t *pCBs );
//  220 static ZStatus_t zclSE_ProcessInCmd_Tou_GetSeasons( zclIncoming_t *pInMsg, zclSE_AppCallbacks_t *pCBs );
//  221 static ZStatus_t zclSE_ProcessInCmd_Tou_GetSpecialDays( zclIncoming_t *pInMsg, zclSE_AppCallbacks_t *pCBs );
//  222 #endif  // SE_UK_EXT
//  223 #endif  // ZCL_TOU
//  224 
//  225 #ifdef ZCL_DEVICE_MGMT
//  226 #ifdef SE_UK_EXT
//  227 static ZStatus_t zclSE_ProcessInDeviceMgmtCmds( zclIncoming_t *pInMsg, zclSE_AppCallbacks_t *pCBs );
//  228 static ZStatus_t zclSE_ProcessInCmd_DeviceMgmt_GetChangeTenancy( zclIncoming_t *pInMsg, zclSE_AppCallbacks_t *pCBs );
//  229 static ZStatus_t zclSE_ProcessInCmd_DeviceMgmt_GetChangeSupplier( zclIncoming_t *pInMsg, zclSE_AppCallbacks_t *pCBs );
//  230 static ZStatus_t zclSE_ProcessInCmd_DeviceMgmt_GetChangeSupply( zclIncoming_t *pInMsg, zclSE_AppCallbacks_t *pCBs );
//  231 static ZStatus_t zclSE_ProcessInCmd_DeviceMgmt_SupplyStatusResponse( zclIncoming_t *pInMsg, zclSE_AppCallbacks_t *pCBs );
//  232 static ZStatus_t zclSE_ProcessInCmd_DeviceMgmt_GetPassword( zclIncoming_t *pInMsg, zclSE_AppCallbacks_t *pCBs );
//  233 static ZStatus_t zclSE_ProcessInCmd_DeviceMgmt_PublishChangeTenancy( zclIncoming_t *pInMsg, zclSE_AppCallbacks_t *pCBs );
//  234 static ZStatus_t zclSE_ProcessInCmd_DeviceMgmt_PublishChangeSupplier( zclIncoming_t *pInMsg, zclSE_AppCallbacks_t *pCBs );
//  235 static ZStatus_t zclSE_ProcessInCmd_DeviceMgmt_ChangeSupply( zclIncoming_t *pInMsg, zclSE_AppCallbacks_t *pCBs );
//  236 static ZStatus_t zclSE_ProcessInCmd_DeviceMgmt_ChangePassword( zclIncoming_t *pInMsg, zclSE_AppCallbacks_t *pCBs );
//  237 static ZStatus_t zclSE_ProcessInCmd_DeviceMgmt_LocalChangeSupply( zclIncoming_t *pInMsg, zclSE_AppCallbacks_t *pCBs );
//  238 #endif  // SE_UK_EXT
//  239 #endif  // ZCL_DEVICE_MGMT
//  240 
//  241 #ifdef SE_UK_EXT
//  242 static uint8 zclSE_Parse_UTF8String( uint8 *pBuf, UTF8String_t *pString, uint8 maxLen );
//  243 #endif  // SE_UK_EXT
//  244 
//  245 #ifdef ZCL_SIMPLE_METERING
//  246 /*********************************************************************
//  247  * @fn      zclSE_SimpleMetering_Send_GetProfileCmd
//  248  *
//  249  * @brief   Call to send out a Get Profile Command
//  250  *
//  251  * @param   srcEP - Sending application's endpoint
//  252  * @param   dstAddr - where you want the message to go
//  253  * @param   channel - returned inteval (delivered @ 0; received @ 1)
//  254  * @param   endTime - UTC time for the starting time of requested interval
//  255  * @param   numOfPeriods - number of periods requested
//  256  * @param   disableDefaultRsp - disable default response
//  257  * @param   seqNum - ZCL sequence number
//  258  *
//  259  * @return  ZStatus_t
//  260  */

        RSEG BANKED_CODE:CODE:NOROOT(0)
//  261 ZStatus_t zclSE_SimpleMetering_Send_GetProfileCmd( uint8 srcEP, afAddrType_t *dstAddr,
zclSE_SimpleMetering_Send_GetProfileCmd:
        CFI Block cfiBlock0 Using cfiCommon0
        CFI Function zclSE_SimpleMetering_Send_GetProfileCmd
        CODE
//  262                                                       uint8 channel, uint32 endTime, uint8 numOfPeriods,
//  263                                                       uint8 disableDefaultRsp, uint8 seqNum )
//  264 {
        FUNCALL zclSE_SimpleMetering_Send_GetProfileCmd, osal_buffer_uint32
        LOCFRAME ISTACK, 0, STACK
        LOCFRAME PSTACK, 0, STACK
        LOCFRAME XSTACK, 27, STACK
        LOCFRAME IOVERLAY, 0, STATIC
        LOCFRAME DOVERLAY, 0, STATIC
        ARGFRAME ISTACK, 0, STACK
        ARGFRAME PSTACK, 0, STACK
        ARGFRAME XSTACK, 27, STACK
        ARGFRAME IOVERLAY, 0, STATIC
        ARGFRAME DOVERLAY, 0, STATIC
        FUNCALL zclSE_SimpleMetering_Send_GetProfileCmd, zcl_SendCommand
        LOCFRAME ISTACK, 0, STACK
        LOCFRAME PSTACK, 0, STACK
        LOCFRAME XSTACK, 34, STACK
        LOCFRAME IOVERLAY, 0, STATIC
        LOCFRAME DOVERLAY, 0, STATIC
        ARGFRAME ISTACK, 0, STACK
        ARGFRAME PSTACK, 0, STACK
        ARGFRAME XSTACK, 34, STACK
        ARGFRAME IOVERLAY, 0, STATIC
        ARGFRAME DOVERLAY, 0, STATIC
        MOV     A,#-0x11
        LCALL   ?BANKED_ENTER_XDATA
        CFI DPH0 load(1, XDATA, add(CFA_XSP16, literal(-1)))
        CFI DPL0 load(1, XDATA, add(CFA_XSP16, literal(-2)))
        CFI ?BRET_EXT load(1, XDATA, add(CFA_XSP16, literal(-3)))
        CFI ?RET_HIGH load(1, XDATA, add(CFA_XSP16, literal(-4)))
        CFI ?RET_LOW load(1, XDATA, add(CFA_XSP16, literal(-5)))
        CFI R7 load(1, XDATA, add(CFA_XSP16, literal(-6)))
        CFI V8 load(1, XDATA, add(CFA_XSP16, literal(-7)))
        CFI V7 load(1, XDATA, add(CFA_XSP16, literal(-8)))
        CFI V6 load(1, XDATA, add(CFA_XSP16, literal(-9)))
        CFI V5 load(1, XDATA, add(CFA_XSP16, literal(-10)))
        CFI V4 load(1, XDATA, add(CFA_XSP16, literal(-11)))
        CFI V3 load(1, XDATA, add(CFA_XSP16, literal(-12)))
        CFI V2 load(1, XDATA, add(CFA_XSP16, literal(-13)))
        CFI V1 load(1, XDATA, add(CFA_XSP16, literal(-14)))
        CFI V0 load(1, XDATA, add(CFA_XSP16, literal(-15)))
        CFI VB load(1, XDATA, add(CFA_XSP16, literal(-16)))
        CFI R6 load(1, XDATA, add(CFA_XSP16, literal(-17)))
        CFI CFA_SP SP+0
        CFI CFA_XSP16 add(XSP16, 17)
        ; Saved register size: 17
        ; Auto size: 6
        MOV     A,#-0x6
        LCALL   ?ALLOC_XSTACK8
        CFI CFA_XSP16 add(XSP16, 23)
        MOV     ?V0 + 4,R1
        MOV     ?V0 + 6,R2
        MOV     ?V0 + 7,R3
        MOV     A,R4
        MOV     R6,A
        MOV     A,R5
        MOV     R7,A
        MOV     A,#0x17
        LCALL   ?XSTACK_DISP0_8
        MOV     R0,#?V0 + 0
        LCALL   ?L_MOV_X
        MOV     A,#0x1b
        LCALL   ?XSTACK_DISP0_8
        MOVX    A,@DPTR
        MOV     ?V0 + 5,A
        MOV     A,#0x1c
        LCALL   ?XSTACK_DISP0_8
        MOVX    A,@DPTR
        MOV     ?V0 + 8,A
//  265   uint8 buf[6];
//  266 
//  267   buf[0] = channel;
        MOV     A,R6
        MOV     DPL,?XSP + 0
        MOV     DPH,?XSP + 1
        MOVX    @DPTR,A
//  268   osal_buffer_uint32( &buf[1], endTime );
        ; Setup parameters for call to function osal_buffer_uint32
        MOV     R0,#?V0 + 0
        LCALL   ?PUSH_XSTACK_I_FOUR
        CFI CFA_XSP16 add(XSP16, 27)
        MOV     A,#0x5
        LCALL   ?XSTACK_DISP0_8
        LCALL   ?Subroutine81 & 0xFFFF
??CrossCallReturnLabel_260:
        LCALL   ?DEALLOC_XSTACK8
        CFI CFA_XSP16 add(XSP16, 23)
//  269   buf[5] = numOfPeriods;
        MOV     A,#0x5
        LCALL   ?XSTACK_DISP0_8
        MOV     A,R7
        LCALL   ??Subroutine151_0 & 0xFFFF
//  270 
//  271   return zcl_SendCommand( srcEP, dstAddr, ZCL_CLUSTER_ID_SE_SIMPLE_METERING,
//  272                           COMMAND_SE_GET_PROFILE_CMD, TRUE,
//  273                           ZCL_FRAME_CLIENT_SERVER_DIR, disableDefaultRsp, 0, seqNum, 6, buf );
??CrossCallReturnLabel_234:
        LCALL   ?PUSH_XSTACK_I_TWO
        CFI CFA_XSP16 add(XSP16, 25)
        MOV     ?V0 + 0,#0x6
        MOV     ?V0 + 1,#0x0
        MOV     R0,#?V0 + 0
        LCALL   ?PUSH_XSTACK_I_TWO
        CFI CFA_XSP16 add(XSP16, 27)
        MOV     A,?V0 + 8
        MOV     ?V0 + 0,A
        MOV     R0,#?V0 + 0
        LCALL   ?PUSH_XSTACK_I_ONE
        CFI CFA_XSP16 add(XSP16, 28)
        CLR     A
        MOV     ?V0 + 0,A
        MOV     R0,#?V0 + 0
        LCALL   ?PUSH_XSTACK_I_TWO
        CFI CFA_XSP16 add(XSP16, 30)
        MOV     A,?V0 + 5
        MOV     ?V0 + 0,A
        MOV     R0,#?V0 + 0
        LCALL   ?PUSH_XSTACK_I_ONE
        CFI CFA_XSP16 add(XSP16, 31)
        MOV     ?V0 + 0,#0x0
        MOV     R0,#?V0 + 0
        LCALL   ?PUSH_XSTACK_I_ONE
        CFI CFA_XSP16 add(XSP16, 32)
        MOV     ?V0 + 0,#0x1
        MOV     R0,#?V0 + 0
        LCALL   ?PUSH_XSTACK_I_ONE
        CFI CFA_XSP16 add(XSP16, 33)
        MOV     ?V0 + 0,#0x0
        MOV     R0,#?V0 + 0
        LCALL   ?PUSH_XSTACK_I_ONE
        CFI CFA_XSP16 add(XSP16, 34)
        MOV     R4,#0x2
        MOV     R5,#0x7
        MOV     R2,?V0 + 6
        MOV     R3,?V0 + 7
        MOV     R1,?V0 + 4
        LCALL   ??Subroutine160_0 & 0xFFFF
??CrossCallReturnLabel_313:
        LCALL   ?DEALLOC_XSTACK8
        CFI CFA_XSP16 add(XSP16, 23)
        MOV     A,#0x6
        LCALL   ?DEALLOC_XSTACK8
        CFI EndBlock cfiBlock0
        REQUIRE ?Subroutine0
        ; // Fall through to label ?Subroutine0
//  274 }

        RSEG BANKED_CODE:CODE:NOROOT(0)
?Subroutine0:
        CFI Block cfiBlock1 Using cfiCommon0
        CFI NoFunction
        CFI CFA_SP SP+0
        CFI CFA_XSP16 add(XSP16, 17)
        CFI VB load(1, XDATA, add(CFA_XSP16, literal(-16)))
        CFI DPL0 load(1, XDATA, add(CFA_XSP16, literal(-2)))
        CFI DPH0 load(1, XDATA, add(CFA_XSP16, literal(-1)))
        CFI R6 load(1, XDATA, add(CFA_XSP16, literal(-17)))
        CFI R7 load(1, XDATA, add(CFA_XSP16, literal(-6)))
        CFI V0 load(1, XDATA, add(CFA_XSP16, literal(-15)))
        CFI V1 load(1, XDATA, add(CFA_XSP16, literal(-14)))
        CFI V2 load(1, XDATA, add(CFA_XSP16, literal(-13)))
        CFI V3 load(1, XDATA, add(CFA_XSP16, literal(-12)))
        CFI V4 load(1, XDATA, add(CFA_XSP16, literal(-11)))
        CFI V5 load(1, XDATA, add(CFA_XSP16, literal(-10)))
        CFI V6 load(1, XDATA, add(CFA_XSP16, literal(-9)))
        CFI V7 load(1, XDATA, add(CFA_XSP16, literal(-8)))
        CFI V8 load(1, XDATA, add(CFA_XSP16, literal(-7)))
        CFI ?BRET_EXT load(1, XDATA, add(CFA_XSP16, literal(-3)))
        CFI ?RET_HIGH load(1, XDATA, add(CFA_XSP16, literal(-4)))
        CFI ?RET_LOW load(1, XDATA, add(CFA_XSP16, literal(-5)))
        MOV     R7,#0x9
        LJMP    ?BANKED_LEAVE_XDATA
        CFI EndBlock cfiBlock1
//  275 
//  276 /*********************************************************************
//  277  * @fn      zclSE_SimpleMetering_Send_GetProfileRsp
//  278  *
//  279  * @brief   Call to send out a Get Profile Response
//  280  *
//  281  * @param   srcEP - Sending application's endpoint
//  282  * @param   dstAddr - where you want the message to go
//  283  * @param   endTime - UTC time for the starting time of requested interval
//  284  * @param   intervals - data buffer holding an array of interval data captured
//  285  *          using the period
//  286  *          specified by the ProfileIntervalPeriod attribute. Data is organized
//  287  *          in a reverse chronological order, the most recent interval is
//  288  *          transmitted first and the oldest interval is transmitted last.
//  289  *          Invalid intervals intervals should be marked as 0xFFFFFF
//  290  * @param   len - length of the intervals buffer
//  291  * @param   disableDefaultRsp - disable default response
//  292  * @param   seqNum - ZCL sequence number
//  293  *
//  294  * @return  ZStatus_t
//  295  */

        RSEG BANKED_CODE:CODE:NOROOT(0)
//  296 ZStatus_t zclSE_SimpleMetering_Send_GetProfileRsp( uint8 srcEP, afAddrType_t *dstAddr,
zclSE_SimpleMetering_Send_GetProfileRsp:
        CFI Block cfiBlock2 Using cfiCommon0
        CFI Function zclSE_SimpleMetering_Send_GetProfileRsp
        CODE
//  297                                                    uint32 endTime, uint8 rspStatus, uint8 profileIntervalPeriod,
//  298                                                    uint8 numOfPeriodDelivered, uint24 *intervals,
//  299                                                    uint8 disableDefaultRsp, uint8 seqNum )
//  300 {
        FUNCALL zclSE_SimpleMetering_Send_GetProfileRsp, osal_mem_alloc
        LOCFRAME ISTACK, 0, STACK
        LOCFRAME PSTACK, 0, STACK
        LOCFRAME XSTACK, 25, STACK
        LOCFRAME IOVERLAY, 0, STATIC
        LOCFRAME DOVERLAY, 0, STATIC
        ARGFRAME ISTACK, 0, STACK
        ARGFRAME PSTACK, 0, STACK
        ARGFRAME XSTACK, 25, STACK
        ARGFRAME IOVERLAY, 0, STATIC
        ARGFRAME DOVERLAY, 0, STATIC
        FUNCALL zclSE_SimpleMetering_Send_GetProfileRsp, osal_buffer_uint32
        LOCFRAME ISTACK, 0, STACK
        LOCFRAME PSTACK, 0, STACK
        LOCFRAME XSTACK, 29, STACK
        LOCFRAME IOVERLAY, 0, STATIC
        LOCFRAME DOVERLAY, 0, STATIC
        ARGFRAME ISTACK, 0, STACK
        ARGFRAME PSTACK, 0, STACK
        ARGFRAME XSTACK, 29, STACK
        ARGFRAME IOVERLAY, 0, STATIC
        ARGFRAME DOVERLAY, 0, STATIC
        FUNCALL zclSE_SimpleMetering_Send_GetProfileRsp, osal_buffer_uint24
        LOCFRAME ISTACK, 0, STACK
        LOCFRAME PSTACK, 0, STACK
        LOCFRAME XSTACK, 29, STACK
        LOCFRAME IOVERLAY, 0, STATIC
        LOCFRAME DOVERLAY, 0, STATIC
        ARGFRAME ISTACK, 0, STACK
        ARGFRAME PSTACK, 0, STACK
        ARGFRAME XSTACK, 29, STACK
        ARGFRAME IOVERLAY, 0, STATIC
        ARGFRAME DOVERLAY, 0, STATIC
        FUNCALL zclSE_SimpleMetering_Send_GetProfileRsp, zcl_SendCommand
        LOCFRAME ISTACK, 0, STACK
        LOCFRAME PSTACK, 0, STACK
        LOCFRAME XSTACK, 36, STACK
        LOCFRAME IOVERLAY, 0, STATIC
        LOCFRAME DOVERLAY, 0, STATIC
        ARGFRAME ISTACK, 0, STACK
        ARGFRAME PSTACK, 0, STACK
        ARGFRAME XSTACK, 36, STACK
        ARGFRAME IOVERLAY, 0, STATIC
        ARGFRAME DOVERLAY, 0, STATIC
        FUNCALL zclSE_SimpleMetering_Send_GetProfileRsp, osal_mem_free
        LOCFRAME ISTACK, 0, STACK
        LOCFRAME PSTACK, 0, STACK
        LOCFRAME XSTACK, 25, STACK
        LOCFRAME IOVERLAY, 0, STATIC
        LOCFRAME DOVERLAY, 0, STATIC
        ARGFRAME ISTACK, 0, STACK
        ARGFRAME PSTACK, 0, STACK
        ARGFRAME XSTACK, 25, STACK
        ARGFRAME IOVERLAY, 0, STATIC
        ARGFRAME DOVERLAY, 0, STATIC
        MOV     A,#-0x17
        LCALL   ?BANKED_ENTER_XDATA
        CFI DPH0 load(1, XDATA, add(CFA_XSP16, literal(-1)))
        CFI DPL0 load(1, XDATA, add(CFA_XSP16, literal(-2)))
        CFI ?BRET_EXT load(1, XDATA, add(CFA_XSP16, literal(-3)))
        CFI ?RET_HIGH load(1, XDATA, add(CFA_XSP16, literal(-4)))
        CFI ?RET_LOW load(1, XDATA, add(CFA_XSP16, literal(-5)))
        CFI R7 load(1, XDATA, add(CFA_XSP16, literal(-6)))
        CFI V14 load(1, XDATA, add(CFA_XSP16, literal(-7)))
        CFI V13 load(1, XDATA, add(CFA_XSP16, literal(-8)))
        CFI V12 load(1, XDATA, add(CFA_XSP16, literal(-9)))
        CFI V11 load(1, XDATA, add(CFA_XSP16, literal(-10)))
        CFI V10 load(1, XDATA, add(CFA_XSP16, literal(-11)))
        CFI V9 load(1, XDATA, add(CFA_XSP16, literal(-12)))
        CFI V8 load(1, XDATA, add(CFA_XSP16, literal(-13)))
        CFI V7 load(1, XDATA, add(CFA_XSP16, literal(-14)))
        CFI V6 load(1, XDATA, add(CFA_XSP16, literal(-15)))
        CFI V5 load(1, XDATA, add(CFA_XSP16, literal(-16)))
        CFI V4 load(1, XDATA, add(CFA_XSP16, literal(-17)))
        CFI V3 load(1, XDATA, add(CFA_XSP16, literal(-18)))
        CFI V2 load(1, XDATA, add(CFA_XSP16, literal(-19)))
        CFI V1 load(1, XDATA, add(CFA_XSP16, literal(-20)))
        CFI V0 load(1, XDATA, add(CFA_XSP16, literal(-21)))
        CFI VB load(1, XDATA, add(CFA_XSP16, literal(-22)))
        CFI R6 load(1, XDATA, add(CFA_XSP16, literal(-23)))
        CFI CFA_SP SP+0
        CFI CFA_XSP16 add(XSP16, 23)
        ; Saved register size: 23
        ; Auto size: 2
        MOV     A,#-0x2
        LCALL   ?ALLOC_XSTACK8
        CFI CFA_XSP16 add(XSP16, 25)
        MOV     DPL,?XSP + 0
        MOV     DPH,?XSP + 1
        MOV     A,R2
        MOVX    @DPTR,A
        INC     DPTR
        MOV     A,R3
        MOVX    @DPTR,A
        MOV     ?V0 + 14,R1
        MOV     ?V0 + 13,R4
        MOV     ?V0 + 12,R5
        MOV     A,#0x19
        LCALL   ?XSTACK_DISP0_8
        MOV     R0,#?V0 + 4
        LCALL   ?L_MOV_X
        MOV     A,#0x1d
        LCALL   ?XSTACK_DISP0_8
        MOVX    A,@DPTR
        MOV     ?V0 + 9,A
        MOV     A,#0x1e
        LCALL   ?XSTACK_DISP0_8
        MOVX    A,@DPTR
        MOV     R6,A
        INC     DPTR
        MOVX    A,@DPTR
        MOV     R7,A
        MOV     A,#0x20
        LCALL   ?XSTACK_DISP0_8
        MOVX    A,@DPTR
        MOV     ?V0 + 2,A
        MOV     A,#0x21
        LCALL   ?XSTACK_DISP0_8
        MOVX    A,@DPTR
        MOV     ?V0 + 3,A
//  301   uint8 *buf;
//  302   uint8 *pBuf;
//  303   uint8 i;
//  304   uint8 len;
//  305   ZStatus_t status;
//  306 
//  307   // endTime + status + profileIntervalPeriod + numOfEntry + array
//  308   len = 4 + 1 + 1 + 1 + (3 * numOfPeriodDelivered);
        MOV     B,#0x3
        MOV     A,?V0 + 9
        MUL     AB
        ADD     A,#0x7
        MOV     ?V0 + 8,A
//  309   buf = osal_mem_alloc( len );
        ; Setup parameters for call to function osal_mem_alloc
        MOV     R2,A
        MOV     R3,#0x0
        LCALL   ??Subroutine161_0 & 0xFFFF
//  310   if ( buf == NULL )
??CrossCallReturnLabel_328:
        JNZ     ??zclSE_SimpleMetering_Send_GetProfileRsp_0
//  311   {
//  312     return ( ZMemError );
        MOV     R1,#0x10
        LJMP    ??CrossCallReturnLabel_213 & 0xFFFF
//  313   }
//  314 
//  315   osal_buffer_uint32( buf, endTime );
??zclSE_SimpleMetering_Send_GetProfileRsp_0:
        ; Setup parameters for call to function osal_buffer_uint32
        MOV     R0,#?V0 + 4
        LCALL   ?PUSH_XSTACK_I_FOUR
        CFI CFA_XSP16 add(XSP16, 29)
        LCALL   ??Subroutine156_0 & 0xFFFF
??CrossCallReturnLabel_267:
        LCALL   ?DEALLOC_XSTACK8
        CFI CFA_XSP16 add(XSP16, 25)
//  316   buf[4] = rspStatus;
        MOV     DPL,?V0 + 0
        MOV     DPH,?V0 + 1
        INC     DPTR
        INC     DPTR
        INC     DPTR
        INC     DPTR
        MOV     A,?V0 + 13
        LCALL   ?Subroutine120 & 0xFFFF
//  317   buf[5] = profileIntervalPeriod;
??CrossCallReturnLabel_177:
        MOV     A,?V0 + 12
        LCALL   ?Subroutine77 & 0xFFFF
//  318 
//  319   // Starting of the array of uint24
//  320   buf[6] = numOfPeriodDelivered;   // Number of entries in the array
??CrossCallReturnLabel_120:
        MOV     A,?V0 + 9
        MOVX    @DPTR,A
//  321   pBuf = &buf[7];
        MOV     A,?V0 + 0
        ADD     A,#0x7
        MOV     R2,A
        MOV     A,?V0 + 1
        ADDC    A,#0x0
        MOV     R3,A
//  322   for ( i = 0; i < numOfPeriodDelivered; i++ )
        MOV     ?V0 + 6,#0x0
        SJMP    ??zclSE_SimpleMetering_Send_GetProfileRsp_1
//  323   {
//  324     pBuf = osal_buffer_uint24( pBuf, *intervals++ );
??zclSE_SimpleMetering_Send_GetProfileRsp_2:
        ; Setup parameters for call to function osal_buffer_uint24
        MOV     DPL,R6
        MOV     DPH,R7
        LCALL   ?PUSH_XSTACK8_X_FOUR
        CFI CFA_XSP16 add(XSP16, 29)
        LCALL   ?Subroutine96 & 0xFFFF
//  325   }
??CrossCallReturnLabel_151:
        LCALL   ?DEALLOC_XSTACK8
        CFI CFA_XSP16 add(XSP16, 25)
        LCALL   ?Subroutine95 & 0xFFFF
??CrossCallReturnLabel_148:
        INC     ?V0 + 6
??zclSE_SimpleMetering_Send_GetProfileRsp_1:
        MOV     A,?V0 + 6
        CLR     C
        SUBB    A,?V0 + 9
        JC      ??zclSE_SimpleMetering_Send_GetProfileRsp_2
//  326 
//  327   status = zcl_SendCommand( srcEP, dstAddr, ZCL_CLUSTER_ID_SE_SIMPLE_METERING,
//  328                             COMMAND_SE_GET_PROFILE_RSP, TRUE,
//  329                             ZCL_FRAME_SERVER_CLIENT_DIR, disableDefaultRsp, 0, seqNum, len, buf );
        ; Setup parameters for call to function zcl_SendCommand
        MOV     R0,#?V0 + 0
        LCALL   ?PUSH_XSTACK_I_TWO
        CFI CFA_XSP16 add(XSP16, 27)
        MOV     ?V0 + 9,#0x0
        MOV     R0,#?V0 + 8
        LCALL   ?PUSH_XSTACK_I_TWO
        CFI CFA_XSP16 add(XSP16, 29)
        MOV     R0,#?V0 + 3
        LCALL   ?PUSH_XSTACK_I_ONE
        CFI CFA_XSP16 add(XSP16, 30)
        CLR     A
        MOV     ?V0 + 4,A
        MOV     ?V0 + 5,A
        MOV     R0,#?V0 + 4
        LCALL   ?PUSH_XSTACK_I_TWO
        CFI CFA_XSP16 add(XSP16, 32)
        MOV     R0,#?V0 + 2
        LCALL   ?PUSH_XSTACK_I_ONE
        CFI CFA_XSP16 add(XSP16, 33)
        MOV     ?V0 + 2,#0x1
        MOV     R0,#?V0 + 2
        LCALL   ?PUSH_XSTACK_I_ONE
        CFI CFA_XSP16 add(XSP16, 34)
        MOV     R0,#?V0 + 2
        LCALL   ?PUSH_XSTACK_I_ONE
        CFI CFA_XSP16 add(XSP16, 35)
        MOV     ?V0 + 2,#0x0
        MOV     R0,#?V0 + 2
        LCALL   ?PUSH_XSTACK_I_ONE
        CFI CFA_XSP16 add(XSP16, 36)
        MOV     R4,#0x2
        MOV     R5,#0x7
        MOV     A,#0xb
        LCALL   ?XSTACK_DISP0_8
        LCALL   ?Subroutine57 & 0xFFFF
??CrossCallReturnLabel_74:
        MOV     R1,?V0 + 14
        LCALL   ??Subroutine160_0 & 0xFFFF
??CrossCallReturnLabel_314:
        LCALL   ?DEALLOC_XSTACK8
        CFI CFA_XSP16 add(XSP16, 25)
        LCALL   ?Subroutine94 & 0xFFFF
//  330 
//  331   osal_mem_free( buf );
//  332 
//  333   return status;
??CrossCallReturnLabel_213:
        MOV     A,#0x2
        LCALL   ?DEALLOC_XSTACK8
        CFI CFA_XSP16 add(XSP16, 23)
        MOV     R7,#0xf
        LJMP    ?BANKED_LEAVE_XDATA
        CFI EndBlock cfiBlock2
//  334 }

        RSEG BANKED_CODE:CODE:NOROOT(0)
?Subroutine94:
        CFI Block cfiCond3 Using cfiCommon0
        CFI NoFunction
        CFI Conditional ??CrossCallReturnLabel_213
        CFI R6 load(1, XDATA, add(CFA_XSP16, literal(-23)))
        CFI VB load(1, XDATA, add(CFA_XSP16, literal(-22)))
        CFI V0 load(1, XDATA, add(CFA_XSP16, literal(-21)))
        CFI V1 load(1, XDATA, add(CFA_XSP16, literal(-20)))
        CFI V2 load(1, XDATA, add(CFA_XSP16, literal(-19)))
        CFI V3 load(1, XDATA, add(CFA_XSP16, literal(-18)))
        CFI V4 load(1, XDATA, add(CFA_XSP16, literal(-17)))
        CFI V5 load(1, XDATA, add(CFA_XSP16, literal(-16)))
        CFI V6 load(1, XDATA, add(CFA_XSP16, literal(-15)))
        CFI V7 load(1, XDATA, add(CFA_XSP16, literal(-14)))
        CFI V8 load(1, XDATA, add(CFA_XSP16, literal(-13)))
        CFI V9 load(1, XDATA, add(CFA_XSP16, literal(-12)))
        CFI V10 load(1, XDATA, add(CFA_XSP16, literal(-11)))
        CFI V11 load(1, XDATA, add(CFA_XSP16, literal(-10)))
        CFI V12 load(1, XDATA, add(CFA_XSP16, literal(-9)))
        CFI V13 load(1, XDATA, add(CFA_XSP16, literal(-8)))
        CFI V14 load(1, XDATA, add(CFA_XSP16, literal(-7)))
        CFI R7 load(1, XDATA, add(CFA_XSP16, literal(-6)))
        CFI ?RET_LOW load(1, XDATA, add(CFA_XSP16, literal(-5)))
        CFI ?RET_HIGH load(1, XDATA, add(CFA_XSP16, literal(-4)))
        CFI ?BRET_EXT load(1, XDATA, add(CFA_XSP16, literal(-3)))
        CFI DPL0 load(1, XDATA, add(CFA_XSP16, literal(-2)))
        CFI DPH0 load(1, XDATA, add(CFA_XSP16, literal(-1)))
        CFI CFA_SP SP+0
        CFI CFA_XSP16 add(XSP16, 25)
        CFI Block cfiCond4 Using cfiCommon0
        CFI (cfiCond4) NoFunction
        CFI (cfiCond4) Conditional ??CrossCallReturnLabel_214
        CFI (cfiCond4) R6 load(1, XDATA, add(CFA_XSP16, literal(-20)))
        CFI (cfiCond4) VB load(1, XDATA, add(CFA_XSP16, literal(-19)))
        CFI (cfiCond4) V0 load(1, XDATA, add(CFA_XSP16, literal(-18)))
        CFI (cfiCond4) V1 load(1, XDATA, add(CFA_XSP16, literal(-17)))
        CFI (cfiCond4) V2 load(1, XDATA, add(CFA_XSP16, literal(-16)))
        CFI (cfiCond4) V3 load(1, XDATA, add(CFA_XSP16, literal(-15)))
        CFI (cfiCond4) V4 load(1, XDATA, add(CFA_XSP16, literal(-14)))
        CFI (cfiCond4) V5 load(1, XDATA, add(CFA_XSP16, literal(-13)))
        CFI (cfiCond4) V6 load(1, XDATA, add(CFA_XSP16, literal(-12)))
        CFI (cfiCond4) V7 load(1, XDATA, add(CFA_XSP16, literal(-11)))
        CFI (cfiCond4) V8 load(1, XDATA, add(CFA_XSP16, literal(-10)))
        CFI (cfiCond4) V9 load(1, XDATA, add(CFA_XSP16, literal(-9)))
        CFI (cfiCond4) V10 load(1, XDATA, add(CFA_XSP16, literal(-8)))
        CFI (cfiCond4) V11 load(1, XDATA, add(CFA_XSP16, literal(-7)))
        CFI (cfiCond4) R7 load(1, XDATA, add(CFA_XSP16, literal(-6)))
        CFI (cfiCond4) ?RET_LOW load(1, XDATA, add(CFA_XSP16, literal(-5)))
        CFI (cfiCond4) ?RET_HIGH load(1, XDATA, add(CFA_XSP16, literal(-4)))
        CFI (cfiCond4) ?BRET_EXT load(1, XDATA, add(CFA_XSP16, literal(-3)))
        CFI (cfiCond4) DPL0 load(1, XDATA, add(CFA_XSP16, literal(-2)))
        CFI (cfiCond4) DPH0 load(1, XDATA, add(CFA_XSP16, literal(-1)))
        CFI (cfiCond4) CFA_SP SP+0
        CFI (cfiCond4) CFA_XSP16 add(XSP16, 20)
        CFI Block cfiCond5 Using cfiCommon0
        CFI (cfiCond5) NoFunction
        CFI (cfiCond5) Conditional ??CrossCallReturnLabel_215
        CFI (cfiCond5) R6 load(1, XDATA, add(CFA_XSP16, literal(-22)))
        CFI (cfiCond5) VB load(1, XDATA, add(CFA_XSP16, literal(-21)))
        CFI (cfiCond5) V0 load(1, XDATA, add(CFA_XSP16, literal(-20)))
        CFI (cfiCond5) V1 load(1, XDATA, add(CFA_XSP16, literal(-19)))
        CFI (cfiCond5) V2 load(1, XDATA, add(CFA_XSP16, literal(-18)))
        CFI (cfiCond5) V3 load(1, XDATA, add(CFA_XSP16, literal(-17)))
        CFI (cfiCond5) V4 load(1, XDATA, add(CFA_XSP16, literal(-16)))
        CFI (cfiCond5) V5 load(1, XDATA, add(CFA_XSP16, literal(-15)))
        CFI (cfiCond5) V6 load(1, XDATA, add(CFA_XSP16, literal(-14)))
        CFI (cfiCond5) V7 load(1, XDATA, add(CFA_XSP16, literal(-13)))
        CFI (cfiCond5) V8 load(1, XDATA, add(CFA_XSP16, literal(-12)))
        CFI (cfiCond5) V9 load(1, XDATA, add(CFA_XSP16, literal(-11)))
        CFI (cfiCond5) V10 load(1, XDATA, add(CFA_XSP16, literal(-10)))
        CFI (cfiCond5) V11 load(1, XDATA, add(CFA_XSP16, literal(-9)))
        CFI (cfiCond5) V12 load(1, XDATA, add(CFA_XSP16, literal(-8)))
        CFI (cfiCond5) V13 load(1, XDATA, add(CFA_XSP16, literal(-7)))
        CFI (cfiCond5) R7 load(1, XDATA, add(CFA_XSP16, literal(-6)))
        CFI (cfiCond5) ?RET_LOW load(1, XDATA, add(CFA_XSP16, literal(-5)))
        CFI (cfiCond5) ?RET_HIGH load(1, XDATA, add(CFA_XSP16, literal(-4)))
        CFI (cfiCond5) ?BRET_EXT load(1, XDATA, add(CFA_XSP16, literal(-3)))
        CFI (cfiCond5) DPL0 load(1, XDATA, add(CFA_XSP16, literal(-2)))
        CFI (cfiCond5) DPH0 load(1, XDATA, add(CFA_XSP16, literal(-1)))
        CFI (cfiCond5) CFA_SP SP+0
        CFI (cfiCond5) CFA_XSP16 add(XSP16, 22)
        CFI Block cfiCond6 Using cfiCommon0
        CFI (cfiCond6) NoFunction
        CFI (cfiCond6) Conditional ??CrossCallReturnLabel_216
        CFI (cfiCond6) R6 load(1, XDATA, add(CFA_XSP16, literal(-18)))
        CFI (cfiCond6) VB load(1, XDATA, add(CFA_XSP16, literal(-17)))
        CFI (cfiCond6) V0 load(1, XDATA, add(CFA_XSP16, literal(-16)))
        CFI (cfiCond6) V1 load(1, XDATA, add(CFA_XSP16, literal(-15)))
        CFI (cfiCond6) V2 load(1, XDATA, add(CFA_XSP16, literal(-14)))
        CFI (cfiCond6) V3 load(1, XDATA, add(CFA_XSP16, literal(-13)))
        CFI (cfiCond6) V4 load(1, XDATA, add(CFA_XSP16, literal(-12)))
        CFI (cfiCond6) V5 load(1, XDATA, add(CFA_XSP16, literal(-11)))
        CFI (cfiCond6) V6 load(1, XDATA, add(CFA_XSP16, literal(-10)))
        CFI (cfiCond6) V7 load(1, XDATA, add(CFA_XSP16, literal(-9)))
        CFI (cfiCond6) V8 load(1, XDATA, add(CFA_XSP16, literal(-8)))
        CFI (cfiCond6) V9 load(1, XDATA, add(CFA_XSP16, literal(-7)))
        CFI (cfiCond6) R7 load(1, XDATA, add(CFA_XSP16, literal(-6)))
        CFI (cfiCond6) ?RET_LOW load(1, XDATA, add(CFA_XSP16, literal(-5)))
        CFI (cfiCond6) ?RET_HIGH load(1, XDATA, add(CFA_XSP16, literal(-4)))
        CFI (cfiCond6) ?BRET_EXT load(1, XDATA, add(CFA_XSP16, literal(-3)))
        CFI (cfiCond6) DPL0 load(1, XDATA, add(CFA_XSP16, literal(-2)))
        CFI (cfiCond6) DPH0 load(1, XDATA, add(CFA_XSP16, literal(-1)))
        CFI (cfiCond6) CFA_SP SP+0
        CFI (cfiCond6) CFA_XSP16 add(XSP16, 18)
        CFI Block cfiCond7 Using cfiCommon0
        CFI (cfiCond7) NoFunction
        CFI (cfiCond7) Conditional ??CrossCallReturnLabel_217
        CFI (cfiCond7) R6 load(1, XDATA, add(CFA_XSP16, literal(-18)))
        CFI (cfiCond7) VB load(1, XDATA, add(CFA_XSP16, literal(-17)))
        CFI (cfiCond7) V0 load(1, XDATA, add(CFA_XSP16, literal(-16)))
        CFI (cfiCond7) V1 load(1, XDATA, add(CFA_XSP16, literal(-15)))
        CFI (cfiCond7) V2 load(1, XDATA, add(CFA_XSP16, literal(-14)))
        CFI (cfiCond7) V3 load(1, XDATA, add(CFA_XSP16, literal(-13)))
        CFI (cfiCond7) V4 load(1, XDATA, add(CFA_XSP16, literal(-12)))
        CFI (cfiCond7) V5 load(1, XDATA, add(CFA_XSP16, literal(-11)))
        CFI (cfiCond7) V6 load(1, XDATA, add(CFA_XSP16, literal(-10)))
        CFI (cfiCond7) V7 load(1, XDATA, add(CFA_XSP16, literal(-9)))
        CFI (cfiCond7) V8 load(1, XDATA, add(CFA_XSP16, literal(-8)))
        CFI (cfiCond7) V9 load(1, XDATA, add(CFA_XSP16, literal(-7)))
        CFI (cfiCond7) R7 load(1, XDATA, add(CFA_XSP16, literal(-6)))
        CFI (cfiCond7) ?RET_LOW load(1, XDATA, add(CFA_XSP16, literal(-5)))
        CFI (cfiCond7) ?RET_HIGH load(1, XDATA, add(CFA_XSP16, literal(-4)))
        CFI (cfiCond7) ?BRET_EXT load(1, XDATA, add(CFA_XSP16, literal(-3)))
        CFI (cfiCond7) DPL0 load(1, XDATA, add(CFA_XSP16, literal(-2)))
        CFI (cfiCond7) DPH0 load(1, XDATA, add(CFA_XSP16, literal(-1)))
        CFI (cfiCond7) CFA_SP SP+0
        CFI (cfiCond7) CFA_XSP16 add(XSP16, 18)
        CFI Block cfiCond8 Using cfiCommon0
        CFI (cfiCond8) NoFunction
        CFI (cfiCond8) Conditional ??CrossCallReturnLabel_218
        CFI (cfiCond8) R6 load(1, XDATA, add(CFA_XSP16, literal(-24)))
        CFI (cfiCond8) VB load(1, XDATA, add(CFA_XSP16, literal(-23)))
        CFI (cfiCond8) V0 load(1, XDATA, add(CFA_XSP16, literal(-22)))
        CFI (cfiCond8) V1 load(1, XDATA, add(CFA_XSP16, literal(-21)))
        CFI (cfiCond8) V2 load(1, XDATA, add(CFA_XSP16, literal(-20)))
        CFI (cfiCond8) V3 load(1, XDATA, add(CFA_XSP16, literal(-19)))
        CFI (cfiCond8) V4 load(1, XDATA, add(CFA_XSP16, literal(-18)))
        CFI (cfiCond8) V5 load(1, XDATA, add(CFA_XSP16, literal(-17)))
        CFI (cfiCond8) V6 load(1, XDATA, add(CFA_XSP16, literal(-16)))
        CFI (cfiCond8) V7 load(1, XDATA, add(CFA_XSP16, literal(-15)))
        CFI (cfiCond8) V8 load(1, XDATA, add(CFA_XSP16, literal(-14)))
        CFI (cfiCond8) V9 load(1, XDATA, add(CFA_XSP16, literal(-13)))
        CFI (cfiCond8) V10 load(1, XDATA, add(CFA_XSP16, literal(-12)))
        CFI (cfiCond8) V11 load(1, XDATA, add(CFA_XSP16, literal(-11)))
        CFI (cfiCond8) V12 load(1, XDATA, add(CFA_XSP16, literal(-10)))
        CFI (cfiCond8) V13 load(1, XDATA, add(CFA_XSP16, literal(-9)))
        CFI (cfiCond8) V14 load(1, XDATA, add(CFA_XSP16, literal(-8)))
        CFI (cfiCond8) V15 load(1, XDATA, add(CFA_XSP16, literal(-7)))
        CFI (cfiCond8) R7 load(1, XDATA, add(CFA_XSP16, literal(-6)))
        CFI (cfiCond8) ?RET_LOW load(1, XDATA, add(CFA_XSP16, literal(-5)))
        CFI (cfiCond8) ?RET_HIGH load(1, XDATA, add(CFA_XSP16, literal(-4)))
        CFI (cfiCond8) ?BRET_EXT load(1, XDATA, add(CFA_XSP16, literal(-3)))
        CFI (cfiCond8) DPL0 load(1, XDATA, add(CFA_XSP16, literal(-2)))
        CFI (cfiCond8) DPH0 load(1, XDATA, add(CFA_XSP16, literal(-1)))
        CFI (cfiCond8) CFA_SP SP+0
        CFI (cfiCond8) CFA_XSP16 add(XSP16, 24)
        CFI Block cfiPicker9 Using cfiCommon1
        CFI (cfiPicker9) NoFunction
        CFI (cfiPicker9) Picker
        MOV     A,R1
        MOV     R6,A
        ; Setup parameters for call to function osal_mem_free
        ; Setup parameters for call to function osal_mem_free
        ; Setup parameters for call to function osal_mem_free
        ; Setup parameters for call to function osal_mem_free
        ; Setup parameters for call to function osal_mem_free
        ; Setup parameters for call to function osal_mem_free
        MOV     R2,?V0 + 0
        MOV     R3,?V0 + 1
        CFI EndBlock cfiCond3
        CFI EndBlock cfiCond4
        CFI EndBlock cfiCond5
        CFI EndBlock cfiCond6
        CFI EndBlock cfiCond7
        CFI EndBlock cfiCond8
        CFI EndBlock cfiPicker9
        REQUIRE ??Subroutine148_0
        ; // Fall through to label ??Subroutine148_0

        RSEG BANKED_CODE:CODE:NOROOT(0)
??Subroutine148_0:
        CFI Block cfiCond10 Using cfiCommon0
        CFI NoFunction
        CFI Conditional ??CrossCallReturnLabel_219
        CFI R6 load(1, XDATA, add(CFA_XSP16, literal(-18)))
        CFI VB load(1, XDATA, add(CFA_XSP16, literal(-17)))
        CFI V0 load(1, XDATA, add(CFA_XSP16, literal(-16)))
        CFI V1 load(1, XDATA, add(CFA_XSP16, literal(-15)))
        CFI V2 load(1, XDATA, add(CFA_XSP16, literal(-14)))
        CFI V3 load(1, XDATA, add(CFA_XSP16, literal(-13)))
        CFI V4 load(1, XDATA, add(CFA_XSP16, literal(-12)))
        CFI V5 load(1, XDATA, add(CFA_XSP16, literal(-11)))
        CFI V6 load(1, XDATA, add(CFA_XSP16, literal(-10)))
        CFI V7 load(1, XDATA, add(CFA_XSP16, literal(-9)))
        CFI V8 load(1, XDATA, add(CFA_XSP16, literal(-8)))
        CFI V9 load(1, XDATA, add(CFA_XSP16, literal(-7)))
        CFI R7 load(1, XDATA, add(CFA_XSP16, literal(-6)))
        CFI ?RET_LOW load(1, XDATA, add(CFA_XSP16, literal(-5)))
        CFI ?RET_HIGH load(1, XDATA, add(CFA_XSP16, literal(-4)))
        CFI ?BRET_EXT load(1, XDATA, add(CFA_XSP16, literal(-3)))
        CFI DPL0 load(1, XDATA, add(CFA_XSP16, literal(-2)))
        CFI DPH0 load(1, XDATA, add(CFA_XSP16, literal(-1)))
        CFI CFA_SP SP+0
        CFI CFA_XSP16 add(XSP16, 18)
        CFI Block cfiCond11 Using cfiCommon0
        CFI (cfiCond11) NoFunction
        CFI (cfiCond11) Conditional ??CrossCallReturnLabel_220
        CFI (cfiCond11) R6 load(1, XDATA, add(CFA_XSP16, literal(-18)))
        CFI (cfiCond11) VB load(1, XDATA, add(CFA_XSP16, literal(-17)))
        CFI (cfiCond11) V0 load(1, XDATA, add(CFA_XSP16, literal(-16)))
        CFI (cfiCond11) V1 load(1, XDATA, add(CFA_XSP16, literal(-15)))
        CFI (cfiCond11) V2 load(1, XDATA, add(CFA_XSP16, literal(-14)))
        CFI (cfiCond11) V3 load(1, XDATA, add(CFA_XSP16, literal(-13)))
        CFI (cfiCond11) V4 load(1, XDATA, add(CFA_XSP16, literal(-12)))
        CFI (cfiCond11) V5 load(1, XDATA, add(CFA_XSP16, literal(-11)))
        CFI (cfiCond11) V6 load(1, XDATA, add(CFA_XSP16, literal(-10)))
        CFI (cfiCond11) V7 load(1, XDATA, add(CFA_XSP16, literal(-9)))
        CFI (cfiCond11) V8 load(1, XDATA, add(CFA_XSP16, literal(-8)))
        CFI (cfiCond11) V9 load(1, XDATA, add(CFA_XSP16, literal(-7)))
        CFI (cfiCond11) R7 load(1, XDATA, add(CFA_XSP16, literal(-6)))
        CFI (cfiCond11) ?RET_LOW load(1, XDATA, add(CFA_XSP16, literal(-5)))
        CFI (cfiCond11) ?RET_HIGH load(1, XDATA, add(CFA_XSP16, literal(-4)))
        CFI (cfiCond11) ?BRET_EXT load(1, XDATA, add(CFA_XSP16, literal(-3)))
        CFI (cfiCond11) DPL0 load(1, XDATA, add(CFA_XSP16, literal(-2)))
        CFI (cfiCond11) DPH0 load(1, XDATA, add(CFA_XSP16, literal(-1)))
        CFI (cfiCond11) CFA_SP SP+0
        CFI (cfiCond11) CFA_XSP16 add(XSP16, 18)
        CFI Block cfiCond12 Using cfiCommon0
        CFI (cfiCond12) NoFunction
        CFI (cfiCond12) Conditional ??CrossCallReturnLabel_221
        CFI (cfiCond12) R6 load(1, XDATA, add(CFA_XSP16, literal(-18)))
        CFI (cfiCond12) VB load(1, XDATA, add(CFA_XSP16, literal(-17)))
        CFI (cfiCond12) V0 load(1, XDATA, add(CFA_XSP16, literal(-16)))
        CFI (cfiCond12) V1 load(1, XDATA, add(CFA_XSP16, literal(-15)))
        CFI (cfiCond12) V2 load(1, XDATA, add(CFA_XSP16, literal(-14)))
        CFI (cfiCond12) V3 load(1, XDATA, add(CFA_XSP16, literal(-13)))
        CFI (cfiCond12) V4 load(1, XDATA, add(CFA_XSP16, literal(-12)))
        CFI (cfiCond12) V5 load(1, XDATA, add(CFA_XSP16, literal(-11)))
        CFI (cfiCond12) V6 load(1, XDATA, add(CFA_XSP16, literal(-10)))
        CFI (cfiCond12) V7 load(1, XDATA, add(CFA_XSP16, literal(-9)))
        CFI (cfiCond12) V8 load(1, XDATA, add(CFA_XSP16, literal(-8)))
        CFI (cfiCond12) V9 load(1, XDATA, add(CFA_XSP16, literal(-7)))
        CFI (cfiCond12) R7 load(1, XDATA, add(CFA_XSP16, literal(-6)))
        CFI (cfiCond12) ?RET_LOW load(1, XDATA, add(CFA_XSP16, literal(-5)))
        CFI (cfiCond12) ?RET_HIGH load(1, XDATA, add(CFA_XSP16, literal(-4)))
        CFI (cfiCond12) ?BRET_EXT load(1, XDATA, add(CFA_XSP16, literal(-3)))
        CFI (cfiCond12) DPL0 load(1, XDATA, add(CFA_XSP16, literal(-2)))
        CFI (cfiCond12) DPH0 load(1, XDATA, add(CFA_XSP16, literal(-1)))
        CFI (cfiCond12) CFA_SP SP+0
        CFI (cfiCond12) CFA_XSP16 add(XSP16, 18)
        CFI Block cfiCond13 Using cfiCommon0
        CFI (cfiCond13) NoFunction
        CFI (cfiCond13) Conditional ??CrossCallReturnLabel_222
        CFI (cfiCond13) R6 load(1, XDATA, add(CFA_XSP16, literal(-18)))
        CFI (cfiCond13) VB load(1, XDATA, add(CFA_XSP16, literal(-17)))
        CFI (cfiCond13) V0 load(1, XDATA, add(CFA_XSP16, literal(-16)))
        CFI (cfiCond13) V1 load(1, XDATA, add(CFA_XSP16, literal(-15)))
        CFI (cfiCond13) V2 load(1, XDATA, add(CFA_XSP16, literal(-14)))
        CFI (cfiCond13) V3 load(1, XDATA, add(CFA_XSP16, literal(-13)))
        CFI (cfiCond13) V4 load(1, XDATA, add(CFA_XSP16, literal(-12)))
        CFI (cfiCond13) V5 load(1, XDATA, add(CFA_XSP16, literal(-11)))
        CFI (cfiCond13) V6 load(1, XDATA, add(CFA_XSP16, literal(-10)))
        CFI (cfiCond13) V7 load(1, XDATA, add(CFA_XSP16, literal(-9)))
        CFI (cfiCond13) V8 load(1, XDATA, add(CFA_XSP16, literal(-8)))
        CFI (cfiCond13) V9 load(1, XDATA, add(CFA_XSP16, literal(-7)))
        CFI (cfiCond13) R7 load(1, XDATA, add(CFA_XSP16, literal(-6)))
        CFI (cfiCond13) ?RET_LOW load(1, XDATA, add(CFA_XSP16, literal(-5)))
        CFI (cfiCond13) ?RET_HIGH load(1, XDATA, add(CFA_XSP16, literal(-4)))
        CFI (cfiCond13) ?BRET_EXT load(1, XDATA, add(CFA_XSP16, literal(-3)))
        CFI (cfiCond13) DPL0 load(1, XDATA, add(CFA_XSP16, literal(-2)))
        CFI (cfiCond13) DPH0 load(1, XDATA, add(CFA_XSP16, literal(-1)))
        CFI (cfiCond13) CFA_SP SP+0
        CFI (cfiCond13) CFA_XSP16 add(XSP16, 18)
        CFI Block cfiCond14 Using cfiCommon0
        CFI (cfiCond14) NoFunction
        CFI (cfiCond14) Conditional ??CrossCallReturnLabel_223
        CFI (cfiCond14) R6 load(1, XDATA, add(CFA_XSP16, literal(-17)))
        CFI (cfiCond14) VB load(1, XDATA, add(CFA_XSP16, literal(-16)))
        CFI (cfiCond14) V0 load(1, XDATA, add(CFA_XSP16, literal(-15)))
        CFI (cfiCond14) V1 load(1, XDATA, add(CFA_XSP16, literal(-14)))
        CFI (cfiCond14) V2 load(1, XDATA, add(CFA_XSP16, literal(-13)))
        CFI (cfiCond14) V3 load(1, XDATA, add(CFA_XSP16, literal(-12)))
        CFI (cfiCond14) V4 load(1, XDATA, add(CFA_XSP16, literal(-11)))
        CFI (cfiCond14) V5 load(1, XDATA, add(CFA_XSP16, literal(-10)))
        CFI (cfiCond14) V6 load(1, XDATA, add(CFA_XSP16, literal(-9)))
        CFI (cfiCond14) V7 load(1, XDATA, add(CFA_XSP16, literal(-8)))
        CFI (cfiCond14) V8 load(1, XDATA, add(CFA_XSP16, literal(-7)))
        CFI (cfiCond14) R7 load(1, XDATA, add(CFA_XSP16, literal(-6)))
        CFI (cfiCond14) ?RET_LOW load(1, XDATA, add(CFA_XSP16, literal(-5)))
        CFI (cfiCond14) ?RET_HIGH load(1, XDATA, add(CFA_XSP16, literal(-4)))
        CFI (cfiCond14) ?BRET_EXT load(1, XDATA, add(CFA_XSP16, literal(-3)))
        CFI (cfiCond14) DPL0 load(1, XDATA, add(CFA_XSP16, literal(-2)))
        CFI (cfiCond14) DPH0 load(1, XDATA, add(CFA_XSP16, literal(-1)))
        CFI (cfiCond14) CFA_SP SP+0
        CFI (cfiCond14) CFA_XSP16 add(XSP16, 17)
        CFI Block cfiCond15 Using cfiCommon0
        CFI (cfiCond15) NoFunction
        CFI (cfiCond15) Conditional ??CrossCallReturnLabel_213
        CFI (cfiCond15) R6 load(1, XDATA, add(CFA_XSP16, literal(-23)))
        CFI (cfiCond15) VB load(1, XDATA, add(CFA_XSP16, literal(-22)))
        CFI (cfiCond15) V0 load(1, XDATA, add(CFA_XSP16, literal(-21)))
        CFI (cfiCond15) V1 load(1, XDATA, add(CFA_XSP16, literal(-20)))
        CFI (cfiCond15) V2 load(1, XDATA, add(CFA_XSP16, literal(-19)))
        CFI (cfiCond15) V3 load(1, XDATA, add(CFA_XSP16, literal(-18)))
        CFI (cfiCond15) V4 load(1, XDATA, add(CFA_XSP16, literal(-17)))
        CFI (cfiCond15) V5 load(1, XDATA, add(CFA_XSP16, literal(-16)))
        CFI (cfiCond15) V6 load(1, XDATA, add(CFA_XSP16, literal(-15)))
        CFI (cfiCond15) V7 load(1, XDATA, add(CFA_XSP16, literal(-14)))
        CFI (cfiCond15) V8 load(1, XDATA, add(CFA_XSP16, literal(-13)))
        CFI (cfiCond15) V9 load(1, XDATA, add(CFA_XSP16, literal(-12)))
        CFI (cfiCond15) V10 load(1, XDATA, add(CFA_XSP16, literal(-11)))
        CFI (cfiCond15) V11 load(1, XDATA, add(CFA_XSP16, literal(-10)))
        CFI (cfiCond15) V12 load(1, XDATA, add(CFA_XSP16, literal(-9)))
        CFI (cfiCond15) V13 load(1, XDATA, add(CFA_XSP16, literal(-8)))
        CFI (cfiCond15) V14 load(1, XDATA, add(CFA_XSP16, literal(-7)))
        CFI (cfiCond15) R7 load(1, XDATA, add(CFA_XSP16, literal(-6)))
        CFI (cfiCond15) ?RET_LOW load(1, XDATA, add(CFA_XSP16, literal(-5)))
        CFI (cfiCond15) ?RET_HIGH load(1, XDATA, add(CFA_XSP16, literal(-4)))
        CFI (cfiCond15) ?BRET_EXT load(1, XDATA, add(CFA_XSP16, literal(-3)))
        CFI (cfiCond15) DPL0 load(1, XDATA, add(CFA_XSP16, literal(-2)))
        CFI (cfiCond15) DPH0 load(1, XDATA, add(CFA_XSP16, literal(-1)))
        CFI (cfiCond15) CFA_SP SP+0
        CFI (cfiCond15) CFA_XSP16 add(XSP16, 25)
        CFI Block cfiCond16 Using cfiCommon0
        CFI (cfiCond16) NoFunction
        CFI (cfiCond16) Conditional ??CrossCallReturnLabel_214
        CFI (cfiCond16) R6 load(1, XDATA, add(CFA_XSP16, literal(-20)))
        CFI (cfiCond16) VB load(1, XDATA, add(CFA_XSP16, literal(-19)))
        CFI (cfiCond16) V0 load(1, XDATA, add(CFA_XSP16, literal(-18)))
        CFI (cfiCond16) V1 load(1, XDATA, add(CFA_XSP16, literal(-17)))
        CFI (cfiCond16) V2 load(1, XDATA, add(CFA_XSP16, literal(-16)))
        CFI (cfiCond16) V3 load(1, XDATA, add(CFA_XSP16, literal(-15)))
        CFI (cfiCond16) V4 load(1, XDATA, add(CFA_XSP16, literal(-14)))
        CFI (cfiCond16) V5 load(1, XDATA, add(CFA_XSP16, literal(-13)))
        CFI (cfiCond16) V6 load(1, XDATA, add(CFA_XSP16, literal(-12)))
        CFI (cfiCond16) V7 load(1, XDATA, add(CFA_XSP16, literal(-11)))
        CFI (cfiCond16) V8 load(1, XDATA, add(CFA_XSP16, literal(-10)))
        CFI (cfiCond16) V9 load(1, XDATA, add(CFA_XSP16, literal(-9)))
        CFI (cfiCond16) V10 load(1, XDATA, add(CFA_XSP16, literal(-8)))
        CFI (cfiCond16) V11 load(1, XDATA, add(CFA_XSP16, literal(-7)))
        CFI (cfiCond16) R7 load(1, XDATA, add(CFA_XSP16, literal(-6)))
        CFI (cfiCond16) ?RET_LOW load(1, XDATA, add(CFA_XSP16, literal(-5)))
        CFI (cfiCond16) ?RET_HIGH load(1, XDATA, add(CFA_XSP16, literal(-4)))
        CFI (cfiCond16) ?BRET_EXT load(1, XDATA, add(CFA_XSP16, literal(-3)))
        CFI (cfiCond16) DPL0 load(1, XDATA, add(CFA_XSP16, literal(-2)))
        CFI (cfiCond16) DPH0 load(1, XDATA, add(CFA_XSP16, literal(-1)))
        CFI (cfiCond16) CFA_SP SP+0
        CFI (cfiCond16) CFA_XSP16 add(XSP16, 20)
        CFI Block cfiCond17 Using cfiCommon0
        CFI (cfiCond17) NoFunction
        CFI (cfiCond17) Conditional ??CrossCallReturnLabel_215
        CFI (cfiCond17) R6 load(1, XDATA, add(CFA_XSP16, literal(-22)))
        CFI (cfiCond17) VB load(1, XDATA, add(CFA_XSP16, literal(-21)))
        CFI (cfiCond17) V0 load(1, XDATA, add(CFA_XSP16, literal(-20)))
        CFI (cfiCond17) V1 load(1, XDATA, add(CFA_XSP16, literal(-19)))
        CFI (cfiCond17) V2 load(1, XDATA, add(CFA_XSP16, literal(-18)))
        CFI (cfiCond17) V3 load(1, XDATA, add(CFA_XSP16, literal(-17)))
        CFI (cfiCond17) V4 load(1, XDATA, add(CFA_XSP16, literal(-16)))
        CFI (cfiCond17) V5 load(1, XDATA, add(CFA_XSP16, literal(-15)))
        CFI (cfiCond17) V6 load(1, XDATA, add(CFA_XSP16, literal(-14)))
        CFI (cfiCond17) V7 load(1, XDATA, add(CFA_XSP16, literal(-13)))
        CFI (cfiCond17) V8 load(1, XDATA, add(CFA_XSP16, literal(-12)))
        CFI (cfiCond17) V9 load(1, XDATA, add(CFA_XSP16, literal(-11)))
        CFI (cfiCond17) V10 load(1, XDATA, add(CFA_XSP16, literal(-10)))
        CFI (cfiCond17) V11 load(1, XDATA, add(CFA_XSP16, literal(-9)))
        CFI (cfiCond17) V12 load(1, XDATA, add(CFA_XSP16, literal(-8)))
        CFI (cfiCond17) V13 load(1, XDATA, add(CFA_XSP16, literal(-7)))
        CFI (cfiCond17) R7 load(1, XDATA, add(CFA_XSP16, literal(-6)))
        CFI (cfiCond17) ?RET_LOW load(1, XDATA, add(CFA_XSP16, literal(-5)))
        CFI (cfiCond17) ?RET_HIGH load(1, XDATA, add(CFA_XSP16, literal(-4)))
        CFI (cfiCond17) ?BRET_EXT load(1, XDATA, add(CFA_XSP16, literal(-3)))
        CFI (cfiCond17) DPL0 load(1, XDATA, add(CFA_XSP16, literal(-2)))
        CFI (cfiCond17) DPH0 load(1, XDATA, add(CFA_XSP16, literal(-1)))
        CFI (cfiCond17) CFA_SP SP+0
        CFI (cfiCond17) CFA_XSP16 add(XSP16, 22)
        CFI Block cfiCond18 Using cfiCommon0
        CFI (cfiCond18) NoFunction
        CFI (cfiCond18) Conditional ??CrossCallReturnLabel_216
        CFI (cfiCond18) R6 load(1, XDATA, add(CFA_XSP16, literal(-18)))
        CFI (cfiCond18) VB load(1, XDATA, add(CFA_XSP16, literal(-17)))
        CFI (cfiCond18) V0 load(1, XDATA, add(CFA_XSP16, literal(-16)))
        CFI (cfiCond18) V1 load(1, XDATA, add(CFA_XSP16, literal(-15)))
        CFI (cfiCond18) V2 load(1, XDATA, add(CFA_XSP16, literal(-14)))
        CFI (cfiCond18) V3 load(1, XDATA, add(CFA_XSP16, literal(-13)))
        CFI (cfiCond18) V4 load(1, XDATA, add(CFA_XSP16, literal(-12)))
        CFI (cfiCond18) V5 load(1, XDATA, add(CFA_XSP16, literal(-11)))
        CFI (cfiCond18) V6 load(1, XDATA, add(CFA_XSP16, literal(-10)))
        CFI (cfiCond18) V7 load(1, XDATA, add(CFA_XSP16, literal(-9)))
        CFI (cfiCond18) V8 load(1, XDATA, add(CFA_XSP16, literal(-8)))
        CFI (cfiCond18) V9 load(1, XDATA, add(CFA_XSP16, literal(-7)))
        CFI (cfiCond18) R7 load(1, XDATA, add(CFA_XSP16, literal(-6)))
        CFI (cfiCond18) ?RET_LOW load(1, XDATA, add(CFA_XSP16, literal(-5)))
        CFI (cfiCond18) ?RET_HIGH load(1, XDATA, add(CFA_XSP16, literal(-4)))
        CFI (cfiCond18) ?BRET_EXT load(1, XDATA, add(CFA_XSP16, literal(-3)))
        CFI (cfiCond18) DPL0 load(1, XDATA, add(CFA_XSP16, literal(-2)))
        CFI (cfiCond18) DPH0 load(1, XDATA, add(CFA_XSP16, literal(-1)))
        CFI (cfiCond18) CFA_SP SP+0
        CFI (cfiCond18) CFA_XSP16 add(XSP16, 18)
        CFI Block cfiCond19 Using cfiCommon0
        CFI (cfiCond19) NoFunction
        CFI (cfiCond19) Conditional ??CrossCallReturnLabel_217
        CFI (cfiCond19) R6 load(1, XDATA, add(CFA_XSP16, literal(-18)))
        CFI (cfiCond19) VB load(1, XDATA, add(CFA_XSP16, literal(-17)))
        CFI (cfiCond19) V0 load(1, XDATA, add(CFA_XSP16, literal(-16)))
        CFI (cfiCond19) V1 load(1, XDATA, add(CFA_XSP16, literal(-15)))
        CFI (cfiCond19) V2 load(1, XDATA, add(CFA_XSP16, literal(-14)))
        CFI (cfiCond19) V3 load(1, XDATA, add(CFA_XSP16, literal(-13)))
        CFI (cfiCond19) V4 load(1, XDATA, add(CFA_XSP16, literal(-12)))
        CFI (cfiCond19) V5 load(1, XDATA, add(CFA_XSP16, literal(-11)))
        CFI (cfiCond19) V6 load(1, XDATA, add(CFA_XSP16, literal(-10)))
        CFI (cfiCond19) V7 load(1, XDATA, add(CFA_XSP16, literal(-9)))
        CFI (cfiCond19) V8 load(1, XDATA, add(CFA_XSP16, literal(-8)))
        CFI (cfiCond19) V9 load(1, XDATA, add(CFA_XSP16, literal(-7)))
        CFI (cfiCond19) R7 load(1, XDATA, add(CFA_XSP16, literal(-6)))
        CFI (cfiCond19) ?RET_LOW load(1, XDATA, add(CFA_XSP16, literal(-5)))
        CFI (cfiCond19) ?RET_HIGH load(1, XDATA, add(CFA_XSP16, literal(-4)))
        CFI (cfiCond19) ?BRET_EXT load(1, XDATA, add(CFA_XSP16, literal(-3)))
        CFI (cfiCond19) DPL0 load(1, XDATA, add(CFA_XSP16, literal(-2)))
        CFI (cfiCond19) DPH0 load(1, XDATA, add(CFA_XSP16, literal(-1)))
        CFI (cfiCond19) CFA_SP SP+0
        CFI (cfiCond19) CFA_XSP16 add(XSP16, 18)
        CFI Block cfiCond20 Using cfiCommon0
        CFI (cfiCond20) NoFunction
        CFI (cfiCond20) Conditional ??CrossCallReturnLabel_218
        CFI (cfiCond20) R6 load(1, XDATA, add(CFA_XSP16, literal(-24)))
        CFI (cfiCond20) VB load(1, XDATA, add(CFA_XSP16, literal(-23)))
        CFI (cfiCond20) V0 load(1, XDATA, add(CFA_XSP16, literal(-22)))
        CFI (cfiCond20) V1 load(1, XDATA, add(CFA_XSP16, literal(-21)))
        CFI (cfiCond20) V2 load(1, XDATA, add(CFA_XSP16, literal(-20)))
        CFI (cfiCond20) V3 load(1, XDATA, add(CFA_XSP16, literal(-19)))
        CFI (cfiCond20) V4 load(1, XDATA, add(CFA_XSP16, literal(-18)))
        CFI (cfiCond20) V5 load(1, XDATA, add(CFA_XSP16, literal(-17)))
        CFI (cfiCond20) V6 load(1, XDATA, add(CFA_XSP16, literal(-16)))
        CFI (cfiCond20) V7 load(1, XDATA, add(CFA_XSP16, literal(-15)))
        CFI (cfiCond20) V8 load(1, XDATA, add(CFA_XSP16, literal(-14)))
        CFI (cfiCond20) V9 load(1, XDATA, add(CFA_XSP16, literal(-13)))
        CFI (cfiCond20) V10 load(1, XDATA, add(CFA_XSP16, literal(-12)))
        CFI (cfiCond20) V11 load(1, XDATA, add(CFA_XSP16, literal(-11)))
        CFI (cfiCond20) V12 load(1, XDATA, add(CFA_XSP16, literal(-10)))
        CFI (cfiCond20) V13 load(1, XDATA, add(CFA_XSP16, literal(-9)))
        CFI (cfiCond20) V14 load(1, XDATA, add(CFA_XSP16, literal(-8)))
        CFI (cfiCond20) V15 load(1, XDATA, add(CFA_XSP16, literal(-7)))
        CFI (cfiCond20) R7 load(1, XDATA, add(CFA_XSP16, literal(-6)))
        CFI (cfiCond20) ?RET_LOW load(1, XDATA, add(CFA_XSP16, literal(-5)))
        CFI (cfiCond20) ?RET_HIGH load(1, XDATA, add(CFA_XSP16, literal(-4)))
        CFI (cfiCond20) ?BRET_EXT load(1, XDATA, add(CFA_XSP16, literal(-3)))
        CFI (cfiCond20) DPL0 load(1, XDATA, add(CFA_XSP16, literal(-2)))
        CFI (cfiCond20) DPH0 load(1, XDATA, add(CFA_XSP16, literal(-1)))
        CFI (cfiCond20) CFA_SP SP+0
        CFI (cfiCond20) CFA_XSP16 add(XSP16, 24)
        CFI Block cfiPicker21 Using cfiCommon1
        CFI (cfiPicker21) NoFunction
        CFI (cfiPicker21) Picker
        LCALL   ??osal_mem_free?relay
        MOV     A,R6
        MOV     R1,A
        RET
        CFI EndBlock cfiCond10
        CFI EndBlock cfiCond11
        CFI EndBlock cfiCond12
        CFI EndBlock cfiCond13
        CFI EndBlock cfiCond14
        CFI EndBlock cfiCond15
        CFI EndBlock cfiCond16
        CFI EndBlock cfiCond17
        CFI EndBlock cfiCond18
        CFI EndBlock cfiCond19
        CFI EndBlock cfiCond20
        CFI EndBlock cfiPicker21
//  335 
//  336 /*********************************************************************
//  337  * @fn      zclSE_SimpleMetering_Send_ReqMirrorRsp
//  338  *
//  339  * @brief   Call to send out a Request Mirror Response
//  340  *
//  341  * @param   srcEP - Sending application's endpoint
//  342  * @param   dstAddr - where you want the message to go
//  343  *
//  344  * @return  ZStatus_t
//  345  */

        RSEG BANKED_CODE:CODE:NOROOT(0)
//  346 ZStatus_t zclSE_SimpleMetering_Send_ReqMirrorRsp( uint8 srcEP, afAddrType_t *dstAddr,
zclSE_SimpleMetering_Send_ReqMirrorRsp:
        CFI Block cfiBlock22 Using cfiCommon0
        CFI Function zclSE_SimpleMetering_Send_ReqMirrorRsp
        CODE
//  347                                                       uint16 endpointId,
//  348                                                       uint8 disableDefaultRsp, uint8 seqNum )
//  349 {
        FUNCALL zclSE_SimpleMetering_Send_ReqMirrorRsp, zcl_SendCommand
        LOCFRAME ISTACK, 0, STACK
        LOCFRAME PSTACK, 0, STACK
        LOCFRAME XSTACK, 23, STACK
        LOCFRAME IOVERLAY, 0, STATIC
        LOCFRAME DOVERLAY, 0, STATIC
        ARGFRAME ISTACK, 0, STACK
        ARGFRAME PSTACK, 0, STACK
        ARGFRAME XSTACK, 23, STACK
        ARGFRAME IOVERLAY, 0, STATIC
        ARGFRAME DOVERLAY, 0, STATIC
        MOV     A,#-0xa
        LCALL   ?BANKED_ENTER_XDATA
        CFI DPH0 load(1, XDATA, add(CFA_XSP16, literal(-1)))
        CFI DPL0 load(1, XDATA, add(CFA_XSP16, literal(-2)))
        CFI ?BRET_EXT load(1, XDATA, add(CFA_XSP16, literal(-3)))
        CFI ?RET_HIGH load(1, XDATA, add(CFA_XSP16, literal(-4)))
        CFI ?RET_LOW load(1, XDATA, add(CFA_XSP16, literal(-5)))
        CFI R7 load(1, XDATA, add(CFA_XSP16, literal(-6)))
        CFI V1 load(1, XDATA, add(CFA_XSP16, literal(-7)))
        CFI V0 load(1, XDATA, add(CFA_XSP16, literal(-8)))
        CFI VB load(1, XDATA, add(CFA_XSP16, literal(-9)))
        CFI R6 load(1, XDATA, add(CFA_XSP16, literal(-10)))
        CFI CFA_SP SP+0
        CFI CFA_XSP16 add(XSP16, 10)
        ; Saved register size: 10
        ; Auto size: 2
        MOV     A,#-0x2
        LCALL   ?ALLOC_XSTACK8
        CFI CFA_XSP16 add(XSP16, 12)
        MOV     A,R1
        MOV     R6,A
        MOV     A,#0xc
        LCALL   ?XSTACK_DISP0_8
        MOVX    A,@DPTR
        MOV     R1,A
        MOV     A,#0xd
        LCALL   ?XSTACK_DISP0_8
        LCALL   ?Subroutine52 & 0xFFFF
//  350   ZStatus_t status;
//  351   uint8 buf[2];
//  352 
//  353   buf[0] = (uint8) endpointId ;
//  354   buf[1] = (uint8)( endpointId >> 8 );
??CrossCallReturnLabel_64:
        LCALL   ?XSTACK_DISP0_8
        LCALL   ?Subroutine68 & 0xFFFF
//  355 
//  356   status = zcl_SendCommand( srcEP, dstAddr, ZCL_CLUSTER_ID_SE_SIMPLE_METERING,
//  357                             COMMAND_SE_REQ_MIRROR_RSP, TRUE,
//  358                             ZCL_FRAME_CLIENT_SERVER_DIR, disableDefaultRsp, 0, seqNum, 2, buf );
//  359 
//  360   return status ;
??CrossCallReturnLabel_232:
        LCALL   ?PUSH_XSTACK_I_TWO
        CFI CFA_XSP16 add(XSP16, 14)
        MOV     ?V0 + 0,#0x2
        MOV     ?V0 + 1,#0x0
        MOV     R0,#?V0 + 0
        LCALL   ?PUSH_XSTACK_I_TWO
        CFI CFA_XSP16 add(XSP16, 16)
        MOV     A,R7
        MOV     ?V0 + 0,A
        MOV     R0,#?V0 + 0
        LCALL   ?PUSH_XSTACK_I_ONE
        CFI CFA_XSP16 add(XSP16, 17)
        CLR     A
        MOV     ?V0 + 0,A
        MOV     R0,#?V0 + 0
        LCALL   ?PUSH_XSTACK_I_TWO
        CFI CFA_XSP16 add(XSP16, 19)
        MOV     A,R1
        MOV     ?V0 + 0,A
        MOV     R0,#?V0 + 0
        LCALL   ?PUSH_XSTACK_I_ONE
        CFI CFA_XSP16 add(XSP16, 20)
        MOV     ?V0 + 0,#0x0
        MOV     R0,#?V0 + 0
        LCALL   ?PUSH_XSTACK_I_ONE
        CFI CFA_XSP16 add(XSP16, 21)
        MOV     ?V0 + 0,#0x1
        MOV     R0,#?V0 + 0
        LCALL   ?PUSH_XSTACK_I_ONE
        CFI CFA_XSP16 add(XSP16, 22)
        LJMP    ?Subroutine1 & 0xFFFF
        CFI EndBlock cfiBlock22
//  361 }
//  362 
//  363 /*********************************************************************
//  364  * @fn      zclSE_SimpleMetering_Send_RemMirrorRsp
//  365  *
//  366  * @brief   Call to send out a Remove Mirror Response
//  367  *
//  368  * @param   srcEP - Sending application's endpoint
//  369  * @param   dstAddr - where you want the message to go
//  370  *
//  371  * @return  ZStatus_t
//  372  */

        RSEG BANKED_CODE:CODE:NOROOT(0)
//  373 ZStatus_t zclSE_SimpleMetering_Send_RemMirrorRsp( uint8 srcEP, afAddrType_t *dstAddr,
zclSE_SimpleMetering_Send_RemMirrorRsp:
        CFI Block cfiBlock23 Using cfiCommon0
        CFI Function zclSE_SimpleMetering_Send_RemMirrorRsp
        CODE
//  374                                                       uint16 endpointId,
//  375                                                       uint8 disableDefaultRsp, uint8 seqNum )
//  376 {
        FUNCALL zclSE_SimpleMetering_Send_RemMirrorRsp, zcl_SendCommand
        LOCFRAME ISTACK, 0, STACK
        LOCFRAME PSTACK, 0, STACK
        LOCFRAME XSTACK, 23, STACK
        LOCFRAME IOVERLAY, 0, STATIC
        LOCFRAME DOVERLAY, 0, STATIC
        ARGFRAME ISTACK, 0, STACK
        ARGFRAME PSTACK, 0, STACK
        ARGFRAME XSTACK, 23, STACK
        ARGFRAME IOVERLAY, 0, STATIC
        ARGFRAME DOVERLAY, 0, STATIC
        MOV     A,#-0xa
        LCALL   ?BANKED_ENTER_XDATA
        CFI DPH0 load(1, XDATA, add(CFA_XSP16, literal(-1)))
        CFI DPL0 load(1, XDATA, add(CFA_XSP16, literal(-2)))
        CFI ?BRET_EXT load(1, XDATA, add(CFA_XSP16, literal(-3)))
        CFI ?RET_HIGH load(1, XDATA, add(CFA_XSP16, literal(-4)))
        CFI ?RET_LOW load(1, XDATA, add(CFA_XSP16, literal(-5)))
        CFI R7 load(1, XDATA, add(CFA_XSP16, literal(-6)))
        CFI V1 load(1, XDATA, add(CFA_XSP16, literal(-7)))
        CFI V0 load(1, XDATA, add(CFA_XSP16, literal(-8)))
        CFI VB load(1, XDATA, add(CFA_XSP16, literal(-9)))
        CFI R6 load(1, XDATA, add(CFA_XSP16, literal(-10)))
        CFI CFA_SP SP+0
        CFI CFA_XSP16 add(XSP16, 10)
        ; Saved register size: 10
        ; Auto size: 2
        MOV     A,#-0x2
        LCALL   ?ALLOC_XSTACK8
        CFI CFA_XSP16 add(XSP16, 12)
        MOV     A,R1
        MOV     R6,A
        MOV     A,#0xc
        LCALL   ?XSTACK_DISP0_8
        MOVX    A,@DPTR
        MOV     R1,A
        MOV     A,#0xd
        LCALL   ?XSTACK_DISP0_8
        LCALL   ?Subroutine52 & 0xFFFF
//  377   ZStatus_t status;
//  378   uint8 buf[2];
//  379 
//  380   buf[0] = (uint8) endpointId ;
//  381   buf[1] = (uint8)( endpointId >> 8 );
??CrossCallReturnLabel_65:
        LCALL   ?XSTACK_DISP0_8
        LCALL   ?Subroutine68 & 0xFFFF
//  382 
//  383   status = zcl_SendCommand( srcEP, dstAddr, ZCL_CLUSTER_ID_SE_SIMPLE_METERING,
//  384                             COMMAND_SE_MIRROR_REM_RSP, TRUE,
//  385                             ZCL_FRAME_CLIENT_SERVER_DIR, disableDefaultRsp, 0, seqNum, 2, buf );
//  386 
//  387   return status ;
??CrossCallReturnLabel_233:
        LCALL   ?PUSH_XSTACK_I_TWO
        CFI CFA_XSP16 add(XSP16, 14)
        MOV     ?V0 + 0,#0x2
        MOV     ?V0 + 1,#0x0
        MOV     R0,#?V0 + 0
        LCALL   ?PUSH_XSTACK_I_TWO
        CFI CFA_XSP16 add(XSP16, 16)
        MOV     A,R7
        MOV     ?V0 + 0,A
        MOV     R0,#?V0 + 0
        LCALL   ?PUSH_XSTACK_I_ONE
        CFI CFA_XSP16 add(XSP16, 17)
        CLR     A
        MOV     ?V0 + 0,A
        MOV     R0,#?V0 + 0
        LCALL   ?PUSH_XSTACK_I_TWO
        CFI CFA_XSP16 add(XSP16, 19)
        MOV     A,R1
        MOV     ?V0 + 0,A
        MOV     R0,#?V0 + 0
        LCALL   ?PUSH_XSTACK_I_ONE
        CFI CFA_XSP16 add(XSP16, 20)
        MOV     ?V0 + 0,#0x0
        MOV     R0,#?V0 + 0
        LCALL   ?PUSH_XSTACK_I_ONE
        CFI CFA_XSP16 add(XSP16, 21)
        MOV     ?V0 + 0,#0x1
        MOV     R0,#?V0 + 0
        LCALL   ?PUSH_XSTACK_I_ONE
        CFI CFA_XSP16 add(XSP16, 22)
        MOV     ?V0 + 0,#0x2
        LJMP    ?Subroutine1 & 0xFFFF
        CFI EndBlock cfiBlock23

        RSEG BANKED_CODE:CODE:NOROOT(0)
?Subroutine52:
        CFI Block cfiCond24 Using cfiCommon0
        CFI NoFunction
        CFI Conditional ??CrossCallReturnLabel_64
        CFI R6 load(1, XDATA, add(CFA_XSP16, literal(-10)))
        CFI VB load(1, XDATA, add(CFA_XSP16, literal(-9)))
        CFI V0 load(1, XDATA, add(CFA_XSP16, literal(-8)))
        CFI V1 load(1, XDATA, add(CFA_XSP16, literal(-7)))
        CFI R7 load(1, XDATA, add(CFA_XSP16, literal(-6)))
        CFI ?RET_LOW load(1, XDATA, add(CFA_XSP16, literal(-5)))
        CFI ?RET_HIGH load(1, XDATA, add(CFA_XSP16, literal(-4)))
        CFI ?BRET_EXT load(1, XDATA, add(CFA_XSP16, literal(-3)))
        CFI DPL0 load(1, XDATA, add(CFA_XSP16, literal(-2)))
        CFI DPH0 load(1, XDATA, add(CFA_XSP16, literal(-1)))
        CFI CFA_SP SP+0
        CFI CFA_XSP16 add(XSP16, 12)
        CFI Block cfiCond25 Using cfiCommon0
        CFI (cfiCond25) NoFunction
        CFI (cfiCond25) Conditional ??CrossCallReturnLabel_65
        CFI (cfiCond25) R6 load(1, XDATA, add(CFA_XSP16, literal(-10)))
        CFI (cfiCond25) VB load(1, XDATA, add(CFA_XSP16, literal(-9)))
        CFI (cfiCond25) V0 load(1, XDATA, add(CFA_XSP16, literal(-8)))
        CFI (cfiCond25) V1 load(1, XDATA, add(CFA_XSP16, literal(-7)))
        CFI (cfiCond25) R7 load(1, XDATA, add(CFA_XSP16, literal(-6)))
        CFI (cfiCond25) ?RET_LOW load(1, XDATA, add(CFA_XSP16, literal(-5)))
        CFI (cfiCond25) ?RET_HIGH load(1, XDATA, add(CFA_XSP16, literal(-4)))
        CFI (cfiCond25) ?BRET_EXT load(1, XDATA, add(CFA_XSP16, literal(-3)))
        CFI (cfiCond25) DPL0 load(1, XDATA, add(CFA_XSP16, literal(-2)))
        CFI (cfiCond25) DPH0 load(1, XDATA, add(CFA_XSP16, literal(-1)))
        CFI (cfiCond25) CFA_SP SP+0
        CFI (cfiCond25) CFA_XSP16 add(XSP16, 12)
        CFI Block cfiPicker26 Using cfiCommon1
        CFI (cfiPicker26) NoFunction
        CFI (cfiPicker26) Picker
        MOVX    A,@DPTR
        MOV     R7,A
        MOV     A,R4
        MOV     DPL,?XSP + 0
        MOV     DPH,?XSP + 1
        MOVX    @DPTR,A
        MOV     A,#0x1
        RET
        CFI EndBlock cfiCond24
        CFI EndBlock cfiCond25
        CFI EndBlock cfiPicker26
//  388 }
//  389 
//  390 
//  391 /*********************************************************************
//  392  * @fn      zclSE_SimpleMetering_Send_ReqFastPollModeCmd
//  393  *
//  394  * @brief   Call to send out a Request Fast Poll Mode Command
//  395  *
//  396  * @param   srcEP - Sending application's endpoint
//  397  * @param   dstAddr - where you want the message to go
//  398  * @param   pCmd - zclCCReqFastPollModeCmd_t command
//  399  * @param   disableDefaultRsp - disable default response
//  400  * @param   seqNum - ZCL sequence number
//  401  *
//  402  * @return  ZStatus_t
//  403  */

        RSEG BANKED_CODE:CODE:NOROOT(0)
//  404 ZStatus_t zclSE_SimpleMetering_Send_ReqFastPollModeCmd( uint8 srcEP, afAddrType_t *dstAddr,
zclSE_SimpleMetering_Send_ReqFastPollModeCmd:
        CFI Block cfiBlock27 Using cfiCommon0
        CFI Function zclSE_SimpleMetering_Send_ReqFastPollModeCmd
        CODE
//  405                                                         zclCCReqFastPollModeCmd_t *pCmd,
//  406                                                         uint8 disableDefaultRsp, uint8 seqNum )
//  407 {
        FUNCALL zclSE_SimpleMetering_Send_ReqFastPollModeCmd, zcl_SendCommand
        LOCFRAME ISTACK, 0, STACK
        LOCFRAME PSTACK, 0, STACK
        LOCFRAME XSTACK, 23, STACK
        LOCFRAME IOVERLAY, 0, STATIC
        LOCFRAME DOVERLAY, 0, STATIC
        ARGFRAME ISTACK, 0, STACK
        ARGFRAME PSTACK, 0, STACK
        ARGFRAME XSTACK, 23, STACK
        ARGFRAME IOVERLAY, 0, STATIC
        ARGFRAME DOVERLAY, 0, STATIC
        MOV     A,#-0xa
        LCALL   ?BANKED_ENTER_XDATA
        CFI DPH0 load(1, XDATA, add(CFA_XSP16, literal(-1)))
        CFI DPL0 load(1, XDATA, add(CFA_XSP16, literal(-2)))
        CFI ?BRET_EXT load(1, XDATA, add(CFA_XSP16, literal(-3)))
        CFI ?RET_HIGH load(1, XDATA, add(CFA_XSP16, literal(-4)))
        CFI ?RET_LOW load(1, XDATA, add(CFA_XSP16, literal(-5)))
        CFI R7 load(1, XDATA, add(CFA_XSP16, literal(-6)))
        CFI V1 load(1, XDATA, add(CFA_XSP16, literal(-7)))
        CFI V0 load(1, XDATA, add(CFA_XSP16, literal(-8)))
        CFI VB load(1, XDATA, add(CFA_XSP16, literal(-9)))
        CFI R6 load(1, XDATA, add(CFA_XSP16, literal(-10)))
        CFI CFA_SP SP+0
        CFI CFA_XSP16 add(XSP16, 10)
        ; Saved register size: 10
        ; Auto size: 2
        MOV     A,#-0x2
        LCALL   ?ALLOC_XSTACK8
        CFI CFA_XSP16 add(XSP16, 12)
        MOV     A,R1
        MOV     R6,A
        MOV     A,#0xc
        LCALL   ?XSTACK_DISP0_8
        MOVX    A,@DPTR
        MOV     R1,A
        MOV     A,#0xd
        LCALL   ?XSTACK_DISP0_8
        MOVX    A,@DPTR
        MOV     R7,A
//  408   ZStatus_t status;
//  409   uint8 buf[PACKET_LEN_SE_METERING_FAST_POLLING_REQ];
//  410 
//  411   buf[0] = pCmd->fastPollUpdatePeriod;
        LCALL   ??Subroutine162_0 & 0xFFFF
//  412   buf[1] = pCmd->duration;
??CrossCallReturnLabel_335:
        PUSH    A
        CFI CFA_SP SP+-1
        MOV     A,#0x1
        LCALL   ?XSTACK_DISP0_8
        POP     A
        CFI CFA_SP SP+0
        LCALL   ??Subroutine151_0 & 0xFFFF
//  413 
//  414   status = zcl_SendCommand( srcEP, dstAddr, ZCL_CLUSTER_ID_SE_SIMPLE_METERING,
//  415                             COMMAND_SE_REQ_FAST_POLL_MODE_CMD, TRUE,
//  416                             ZCL_FRAME_CLIENT_SERVER_DIR, disableDefaultRsp, 0, seqNum,
//  417                             PACKET_LEN_SE_METERING_FAST_POLLING_REQ, buf );
//  418 
//  419   return status ;
??CrossCallReturnLabel_235:
        LCALL   ?PUSH_XSTACK_I_TWO
        CFI CFA_XSP16 add(XSP16, 14)
        MOV     ?V0 + 0,#0x2
        MOV     ?V0 + 1,#0x0
        MOV     R0,#?V0 + 0
        LCALL   ?PUSH_XSTACK_I_TWO
        CFI CFA_XSP16 add(XSP16, 16)
        MOV     A,R7
        MOV     ?V0 + 0,A
        MOV     R0,#?V0 + 0
        LCALL   ?PUSH_XSTACK_I_ONE
        CFI CFA_XSP16 add(XSP16, 17)
        CLR     A
        MOV     ?V0 + 0,A
        MOV     R0,#?V0 + 0
        LCALL   ?PUSH_XSTACK_I_TWO
        CFI CFA_XSP16 add(XSP16, 19)
        MOV     A,R1
        MOV     ?V0 + 0,A
        MOV     R0,#?V0 + 0
        LCALL   ?PUSH_XSTACK_I_ONE
        CFI CFA_XSP16 add(XSP16, 20)
        MOV     ?V0 + 0,#0x0
        MOV     R0,#?V0 + 0
        LCALL   ?PUSH_XSTACK_I_ONE
        CFI CFA_XSP16 add(XSP16, 21)
        MOV     ?V0 + 0,#0x1
        MOV     R0,#?V0 + 0
        LCALL   ?PUSH_XSTACK_I_ONE
        CFI CFA_XSP16 add(XSP16, 22)
        MOV     ?V0 + 0,#0x3
        LJMP    ?Subroutine1 & 0xFFFF
        CFI EndBlock cfiBlock27
//  420 }
//  421 
//  422 /*********************************************************************
//  423  * @fn      zclSE_SimpleMetering_Send_ReqFastPollModeRsp
//  424  *
//  425  * @brief   Call to send out a Request Fast Poll Mode Response
//  426  *
//  427  * @param   srcEP - Sending application's endpoint
//  428  * @param   dstAddr - where you want the message to go
//  429  * @param   pCmd - zclCCReqFastPollModeRsp_t command
//  430  * @param   disableDefaultRsp - disable default response
//  431  * @param   seqNum - ZCL sequence number
//  432  *
//  433  * @return  ZStatus_t
//  434  */

        RSEG BANKED_CODE:CODE:NOROOT(0)
//  435 ZStatus_t zclSE_SimpleMetering_Send_ReqFastPollModeRsp( uint8 srcEP, afAddrType_t *dstAddr,
zclSE_SimpleMetering_Send_ReqFastPollModeRsp:
        CFI Block cfiBlock28 Using cfiCommon0
        CFI Function zclSE_SimpleMetering_Send_ReqFastPollModeRsp
        CODE
//  436                                                         zclCCReqFastPollModeRsp_t *pCmd,
//  437                                                         uint8 disableDefaultRsp, uint8 seqNum )
//  438 {
        FUNCALL zclSE_SimpleMetering_Send_ReqFastPollModeRsp, osal_buffer_uint32
        LOCFRAME ISTACK, 0, STACK
        LOCFRAME PSTACK, 0, STACK
        LOCFRAME XSTACK, 22, STACK
        LOCFRAME IOVERLAY, 0, STATIC
        LOCFRAME DOVERLAY, 0, STATIC
        ARGFRAME ISTACK, 0, STACK
        ARGFRAME PSTACK, 0, STACK
        ARGFRAME XSTACK, 22, STACK
        ARGFRAME IOVERLAY, 0, STATIC
        ARGFRAME DOVERLAY, 0, STATIC
        FUNCALL zclSE_SimpleMetering_Send_ReqFastPollModeRsp, zcl_SendCommand
        LOCFRAME ISTACK, 0, STACK
        LOCFRAME PSTACK, 0, STACK
        LOCFRAME XSTACK, 29, STACK
        LOCFRAME IOVERLAY, 0, STATIC
        LOCFRAME DOVERLAY, 0, STATIC
        ARGFRAME ISTACK, 0, STACK
        ARGFRAME PSTACK, 0, STACK
        ARGFRAME XSTACK, 29, STACK
        ARGFRAME IOVERLAY, 0, STATIC
        ARGFRAME DOVERLAY, 0, STATIC
        MOV     A,#-0xd
        LCALL   ?BANKED_ENTER_XDATA
        CFI DPH0 load(1, XDATA, add(CFA_XSP16, literal(-1)))
        CFI DPL0 load(1, XDATA, add(CFA_XSP16, literal(-2)))
        CFI ?BRET_EXT load(1, XDATA, add(CFA_XSP16, literal(-3)))
        CFI ?RET_HIGH load(1, XDATA, add(CFA_XSP16, literal(-4)))
        CFI ?RET_LOW load(1, XDATA, add(CFA_XSP16, literal(-5)))
        CFI R7 load(1, XDATA, add(CFA_XSP16, literal(-6)))
        CFI V4 load(1, XDATA, add(CFA_XSP16, literal(-7)))
        CFI V3 load(1, XDATA, add(CFA_XSP16, literal(-8)))
        CFI V2 load(1, XDATA, add(CFA_XSP16, literal(-9)))
        CFI V1 load(1, XDATA, add(CFA_XSP16, literal(-10)))
        CFI V0 load(1, XDATA, add(CFA_XSP16, literal(-11)))
        CFI VB load(1, XDATA, add(CFA_XSP16, literal(-12)))
        CFI R6 load(1, XDATA, add(CFA_XSP16, literal(-13)))
        CFI CFA_SP SP+0
        CFI CFA_XSP16 add(XSP16, 13)
        ; Saved register size: 13
        ; Auto size: 5
        MOV     A,#-0x5
        LCALL   ?ALLOC_XSTACK8
        CFI CFA_XSP16 add(XSP16, 18)
        MOV     ?V0 + 2,R1
        MOV     A,R2
        MOV     R6,A
        MOV     A,R3
        MOV     R7,A
        MOV     A,#0x12
        LCALL   ?XSTACK_DISP0_8
        LCALL   ?Subroutine39 & 0xFFFF
??CrossCallReturnLabel_43:
        LCALL   ?XSTACK_DISP0_8
        LCALL   ?Subroutine31 & 0xFFFF
//  439   ZStatus_t status;
//  440   uint8 buf[PACKET_LEN_SE_METERING_FAST_POLLING_RSP];
//  441 
//  442   buf[0] = pCmd->appliedUpdatePeriod;
??CrossCallReturnLabel_29:
        LCALL   ??Subroutine174_0 & 0xFFFF
//  443   osal_buffer_uint32( &buf[1], pCmd->fastPollModeEndTime );
??CrossCallReturnLabel_379:
        ; Setup parameters for call to function osal_buffer_uint32
        MOV     DPL,R4
        MOV     DPH,R5
        INC     DPTR
        LCALL   ?PUSH_XSTACK8_X_FOUR
        CFI CFA_XSP16 add(XSP16, 22)
        MOV     A,#0x5
        LCALL   ?XSTACK_DISP0_8
        LCALL   ?Subroutine81 & 0xFFFF
??CrossCallReturnLabel_261:
        LCALL   ?DEALLOC_XSTACK8
        CFI CFA_XSP16 add(XSP16, 18)
//  444 
//  445   status = zcl_SendCommand( srcEP, dstAddr, ZCL_CLUSTER_ID_SE_SIMPLE_METERING,
//  446                             COMMAND_SE_REQ_FAST_POLL_MODE_RSP, TRUE,
//  447                             ZCL_FRAME_SERVER_CLIENT_DIR, disableDefaultRsp, 0, seqNum,
//  448                             PACKET_LEN_SE_METERING_FAST_POLLING_RSP, buf );
//  449 
//  450   return status ;
        ; Setup parameters for call to function zcl_SendCommand
        MOV     DPL,?XSP + 0
        MOV     DPH,?XSP + 1
        MOV     ?V0 + 0,DPL
        MOV     ?V0 + 1,DPH
        MOV     R0,#?V0 + 0
        LCALL   ?PUSH_XSTACK_I_TWO
        CFI CFA_XSP16 add(XSP16, 20)
        MOV     ?V0 + 0,#0x5
        MOV     ?V0 + 1,#0x0
        MOV     R0,#?V0 + 0
        LCALL   ?PUSH_XSTACK_I_TWO
        CFI CFA_XSP16 add(XSP16, 22)
        MOV     A,?V0 + 4
        MOV     ?V0 + 0,A
        MOV     R0,#?V0 + 0
        LCALL   ?PUSH_XSTACK_I_ONE
        CFI CFA_XSP16 add(XSP16, 23)
        CLR     A
        MOV     ?V0 + 0,A
        MOV     R0,#?V0 + 0
        LCALL   ?PUSH_XSTACK_I_TWO
        CFI CFA_XSP16 add(XSP16, 25)
        MOV     A,?V0 + 3
        MOV     ?V0 + 0,A
        MOV     R0,#?V0 + 0
        LCALL   ?PUSH_XSTACK_I_ONE
        CFI CFA_XSP16 add(XSP16, 26)
        MOV     ?V0 + 0,#0x1
        MOV     R0,#?V0 + 0
        LCALL   ?PUSH_XSTACK_I_ONE
        CFI CFA_XSP16 add(XSP16, 27)
        MOV     R0,#?V0 + 0
        LCALL   ?PUSH_XSTACK_I_ONE
        CFI CFA_XSP16 add(XSP16, 28)
        MOV     ?V0 + 0,#0x3
        MOV     R0,#?V0 + 0
        LCALL   ?PUSH_XSTACK_I_ONE
        CFI CFA_XSP16 add(XSP16, 29)
        MOV     R4,#0x2
        LJMP    ??Subroutine152_0 & 0xFFFF
        CFI EndBlock cfiBlock28
//  451 }
//  452 
//  453 #ifdef SE_UK_EXT
//  454 /*********************************************************************
//  455  * @fn      zclSE_SimpleMetering_Send_GetSnapshotCmd
//  456  *
//  457  * @brief   Call to send out a Get Snapshot Command
//  458  *
//  459  * @param   srcEP - Sending application's endpoint
//  460  * @param   dstAddr - where you want the message to go
//  461  * @param   pCmd - zclCCReqGetSnapshotCmd_t command
//  462  * @param   disableDefaultRsp - disable default response
//  463  * @param   seqNum - ZCL sequence number
//  464  *
//  465  * @return  ZStatus_t
//  466  */
//  467 ZStatus_t zclSE_SimpleMetering_Send_GetSnapshotCmd( uint8 srcEP, afAddrType_t *dstAddr,
//  468                                                     zclCCReqGetSnapshotCmd_t *pCmd,
//  469                                                     uint8 disableDefaultRsp, uint8 seqNum )
//  470 {
//  471   ZStatus_t status;
//  472   uint8 buf[PACKET_LEN_SE_GET_SNAPSHOT_CMD];
//  473 
//  474   osal_buffer_uint32( &buf[0], pCmd->StartTime );
//  475   buf[4] = pCmd->NumberOfSnapshots;
//  476   buf[5] = LO_UINT16( pCmd->SnapshotCause );
//  477   buf[6] = HI_UINT16( pCmd->SnapshotCause );
//  478 
//  479   status = zcl_SendCommand( srcEP, dstAddr, ZCL_CLUSTER_ID_SE_SIMPLE_METERING,
//  480                             COMMAND_SE_GET_SNAPSHOT_CMD, TRUE,
//  481                             ZCL_FRAME_CLIENT_SERVER_DIR, disableDefaultRsp, 0, seqNum,
//  482                             PACKET_LEN_SE_GET_SNAPSHOT_CMD, buf );
//  483 
//  484   return status;
//  485 }
//  486 
//  487 /*********************************************************************
//  488  * @fn      zclSE_SimpleMetering_Send_GetSnapshotRsp
//  489  *
//  490  * @brief   Call to send out a Get Snapshot Response
//  491  *
//  492  * @param   srcEP - Sending application's endpoint
//  493  * @param   dstAddr - where you want the message to go
//  494  * @param   pCmd - zclCCReqGetSnapshotRsp_t command
//  495  * @param   disableDefaultRsp - disable default response
//  496  * @param   seqNum - ZCL sequence number
//  497  *
//  498  * @return  ZStatus_t
//  499  */
//  500 ZStatus_t zclSE_SimpleMetering_Send_GetSnapshotRsp( uint8 srcEP, afAddrType_t *dstAddr,
//  501                                                     zclCCReqGetSnapshotRsp_t *pCmd,
//  502                                                     uint8 disableDefaultRsp, uint8 seqNum )
//  503 {
//  504   uint8 *buf;
//  505   uint8 *pBuf;
//  506   uint16 bufLen;
//  507   ZStatus_t status;
//  508   uint16 payloadLen;
//  509 
//  510   if ( pCmd->pSnapshotPayload )
//  511   {
//  512     switch( pCmd->SnapshotPayloadType )
//  513     {
//  514       case SE_SNAPSHOT_TYPE_CSD_AND_RCV_REGISTER:
//  515         payloadLen = SE_SNAPSHOT_CSD_AND_RCV_REGISTER_PAYLOAD_LEN;
//  516         break;
//  517 
//  518       case SE_SNAPSHOT_TYPE_TOU_INFO_RECEIVED:
//  519       case SE_SNAPSHOT_TYPE_TOU_INFO_DELIVERED:
//  520         // Len in Bytes = (uint8) + (NumberOfTiersInUse * (48BitIntegers))
//  521         payloadLen = 1 + (pCmd->pSnapshotPayload[0] * 6);
//  522         break;
//  523 
//  524       case SE_SNAPSHOT_TYPE_BLOCK_INFO_RECEIVED:
//  525       case SE_SNAPSHOT_TYPE_BLOCK_INFO_DELIVERED:
//  526         // Len in Bytes = (uint8) + (NumberOfTiersAndBlockThresholdsInUse * (32BitIntegers))
//  527         payloadLen = 1 + (pCmd->pSnapshotPayload[0] * 4);
//  528         break;
//  529 
//  530       default:
//  531         return ZInvalidParameter;
//  532     }
//  533 
//  534     bufLen = PACKET_LEN_SE_GET_SNAPSHOT_RSP + payloadLen;
//  535 
//  536     buf = osal_mem_alloc( bufLen );
//  537     if ( buf == NULL )
//  538     {
//  539       return ( ZMemError );
//  540     }
//  541 
//  542     pBuf = osal_buffer_uint32( buf, pCmd->IssuerEventID );
//  543     pBuf = osal_buffer_uint32( pBuf, pCmd->SnapshotTime );
//  544     *pBuf++ = pCmd->CommandIndex;
//  545     *pBuf++ = LO_UINT16( pCmd->SnapshotCause );
//  546     *pBuf++ = HI_UINT16( pCmd->SnapshotCause );
//  547     *pBuf++ = pCmd->SnapshotPayloadType;
//  548 
//  549     osal_memcpy(pBuf, pCmd->pSnapshotPayload, payloadLen);
//  550 
//  551     status = zcl_SendCommand( srcEP, dstAddr, ZCL_CLUSTER_ID_SE_SIMPLE_METERING,
//  552                               COMMAND_SE_GET_SNAPSHOT_RSP, TRUE,
//  553                               ZCL_FRAME_SERVER_CLIENT_DIR, disableDefaultRsp, 0, seqNum,
//  554                               bufLen, buf );
//  555 
//  556     osal_mem_free( buf );
//  557 
//  558     return status;
//  559   }
//  560   else
//  561   {
//  562     return ZInvalidParameter;
//  563   }
//  564 }
//  565 
//  566 /*********************************************************************
//  567  * @fn      zclSE_SimpleMetering_Send_TakeSnapshot
//  568  *
//  569  * @brief   Call to send out a Take Snapshot
//  570  *
//  571  * @param   srcEP - Sending application's endpoint
//  572  * @param   dstAddr - where you want the message to go
//  573  * @param   disableDefaultRsp - disable default response
//  574  * @param   seqNum - ZCL sequence number
//  575  *
//  576  * @return  ZStatus_t
//  577  */
//  578 ZStatus_t zclSE_SimpleMetering_Send_TakeSnapshot( uint8 srcEP, afAddrType_t *dstAddr,
//  579                                                   uint8 disableDefaultRsp, uint8 seqNum )
//  580 {
//  581   return zcl_SendCommand( srcEP, dstAddr, ZCL_CLUSTER_ID_SE_SIMPLE_METERING,
//  582                           COMMAND_SE_TAKE_SNAPSHOT_CMD, TRUE,
//  583                           ZCL_FRAME_CLIENT_SERVER_DIR, disableDefaultRsp, 0, seqNum,
//  584                           0, NULL );
//  585 }
//  586 
//  587 /*********************************************************************
//  588  * @fn      zclSE_SimpleMetering_Send_MirrorReportAttrRsp
//  589  *
//  590  * @brief   Call to send out a Mirror Report Attribute Response
//  591  *
//  592  * @param   srcEP - Sending application's endpoint
//  593  * @param   dstAddr - where you want the message to go
//  594  * @param   pCmd - zclCCReqMirrorReportAttrRsp_t command
//  595  * @param   disableDefaultRsp - disable default response
//  596  * @param   seqNum - ZCL sequence number
//  597  *
//  598  * @return  ZStatus_t
//  599  */
//  600 ZStatus_t zclSE_SimpleMetering_Send_MirrorReportAttrRsp( uint8 srcEP, afAddrType_t *dstAddr,
//  601                                                          zclCCReqMirrorReportAttrRsp_t *pCmd,
//  602                                                          uint8 disableDefaultRsp, uint8 seqNum )
//  603 {
//  604   ZStatus_t status;
//  605   uint8 buf[PACKET_LEN_SE_MIRROR_REPORT_ATTR_RSP];
//  606 
//  607   buf[0] = pCmd->NotificationFlags;
//  608   buf[1] = LO_UINT16( pCmd->PriceNotificationFlags );
//  609   buf[2] = HI_UINT16( pCmd->PriceNotificationFlags );
//  610   buf[3] = pCmd->CalendarNotificationFlags;
//  611   buf[4] = LO_UINT16( pCmd->PrePayNotificationFlags );
//  612   buf[5] = HI_UINT16( pCmd->PrePayNotificationFlags );
//  613   buf[6] = pCmd->DeviceMgmtNotificationFlags;
//  614 
//  615   status = zcl_SendCommand( srcEP, dstAddr, ZCL_CLUSTER_ID_SE_SIMPLE_METERING,
//  616                             COMMAND_SE_MIRROR_REPORT_ATTR_RSP, TRUE,
//  617                             ZCL_FRAME_CLIENT_SERVER_DIR, disableDefaultRsp, 0, seqNum,
//  618                             PACKET_LEN_SE_MIRROR_REPORT_ATTR_RSP, buf );
//  619 
//  620   return status;
//  621 }
//  622 #endif  // SE_UK_EXT
//  623 #endif  // ZCL_SIMPLE_METERING
//  624 
//  625 #ifdef ZCL_PRICING
//  626 /*********************************************************************
//  627  * @fn      zclSE_Pricing_Send_GetScheduledPrice
//  628  *
//  629  * @brief   Call to send out a Get Scheduled Price Command
//  630  *
//  631  * @param   srcEP - Sending application's endpoint
//  632  * @param   dstAddr - where you want the message to go
//  633  * @param   pCmd - command payload
//  634  * @param   disableDefaultRsp - disable default response
//  635  * @param   seqNum - ZCL sequence number
//  636  *
//  637  * @return  ZStatus_t
//  638  */

        RSEG BANKED_CODE:CODE:NOROOT(0)
//  639 ZStatus_t zclSE_Pricing_Send_GetScheduledPrice( uint8 srcEP, afAddrType_t *dstAddr,
zclSE_Pricing_Send_GetScheduledPrice:
        CFI Block cfiBlock29 Using cfiCommon0
        CFI Function zclSE_Pricing_Send_GetScheduledPrice
        CODE
//  640                                             zclCCGetScheduledPrice_t *pCmd,
//  641                                             uint8 disableDefaultRsp, uint8 seqNum )
//  642 {
        FUNCALL zclSE_Pricing_Send_GetScheduledPrice, osal_buffer_uint32
        LOCFRAME ISTACK, 0, STACK
        LOCFRAME PSTACK, 0, STACK
        LOCFRAME XSTACK, 22, STACK
        LOCFRAME IOVERLAY, 0, STATIC
        LOCFRAME DOVERLAY, 0, STATIC
        ARGFRAME ISTACK, 0, STACK
        ARGFRAME PSTACK, 0, STACK
        ARGFRAME XSTACK, 22, STACK
        ARGFRAME IOVERLAY, 0, STATIC
        ARGFRAME DOVERLAY, 0, STATIC
        FUNCALL zclSE_Pricing_Send_GetScheduledPrice, zcl_SendCommand
        LOCFRAME ISTACK, 0, STACK
        LOCFRAME PSTACK, 0, STACK
        LOCFRAME XSTACK, 29, STACK
        LOCFRAME IOVERLAY, 0, STATIC
        LOCFRAME DOVERLAY, 0, STATIC
        ARGFRAME ISTACK, 0, STACK
        ARGFRAME PSTACK, 0, STACK
        ARGFRAME XSTACK, 29, STACK
        ARGFRAME IOVERLAY, 0, STATIC
        ARGFRAME DOVERLAY, 0, STATIC
        MOV     A,#-0xd
        LCALL   ?BANKED_ENTER_XDATA
        CFI DPH0 load(1, XDATA, add(CFA_XSP16, literal(-1)))
        CFI DPL0 load(1, XDATA, add(CFA_XSP16, literal(-2)))
        CFI ?BRET_EXT load(1, XDATA, add(CFA_XSP16, literal(-3)))
        CFI ?RET_HIGH load(1, XDATA, add(CFA_XSP16, literal(-4)))
        CFI ?RET_LOW load(1, XDATA, add(CFA_XSP16, literal(-5)))
        CFI R7 load(1, XDATA, add(CFA_XSP16, literal(-6)))
        CFI V4 load(1, XDATA, add(CFA_XSP16, literal(-7)))
        CFI V3 load(1, XDATA, add(CFA_XSP16, literal(-8)))
        CFI V2 load(1, XDATA, add(CFA_XSP16, literal(-9)))
        CFI V1 load(1, XDATA, add(CFA_XSP16, literal(-10)))
        CFI V0 load(1, XDATA, add(CFA_XSP16, literal(-11)))
        CFI VB load(1, XDATA, add(CFA_XSP16, literal(-12)))
        CFI R6 load(1, XDATA, add(CFA_XSP16, literal(-13)))
        CFI CFA_SP SP+0
        CFI CFA_XSP16 add(XSP16, 13)
        ; Saved register size: 13
        ; Auto size: 5
        MOV     A,#-0x5
        LCALL   ?ALLOC_XSTACK8
        CFI CFA_XSP16 add(XSP16, 18)
        MOV     ?V0 + 2,R1
        MOV     A,R2
        MOV     R6,A
        MOV     A,R3
        MOV     R7,A
        MOV     ?V0 + 0,R4
        MOV     ?V0 + 1,R5
        MOV     A,#0x12
        LCALL   ?XSTACK_DISP0_8
        LCALL   ?Subroutine39 & 0xFFFF
??CrossCallReturnLabel_44:
        LCALL   ?XSTACK_DISP0_8
        LCALL   ?Subroutine31 & 0xFFFF
//  643   uint8 buf[5];
//  644   ZStatus_t status;
//  645 
//  646   osal_buffer_uint32( buf, pCmd->startTime );
??CrossCallReturnLabel_30:
        LCALL   ?PUSH_XSTACK8_X_FOUR
        CFI CFA_XSP16 add(XSP16, 22)
        MOV     A,#0x4
        LCALL   ?XSTACK_DISP0_8
        LCALL   ?Subroutine81 & 0xFFFF
??CrossCallReturnLabel_262:
        LCALL   ?DEALLOC_XSTACK8
        CFI CFA_XSP16 add(XSP16, 18)
//  647   buf[4] = pCmd->numEvents;
        MOV     DPL,?V0 + 0
        MOV     DPH,?V0 + 1
        INC     DPTR
        INC     DPTR
        INC     DPTR
        INC     DPTR
        MOVX    A,@DPTR
        PUSH    A
        CFI CFA_SP SP+-1
        MOV     A,#0x4
        LCALL   ?XSTACK_DISP0_8
        POP     A
        CFI CFA_SP SP+0
        LCALL   ??Subroutine151_0 & 0xFFFF
//  648 
//  649   status = zcl_SendCommand( srcEP, dstAddr, ZCL_CLUSTER_ID_SE_PRICING,
//  650                             COMMAND_SE_GET_SCHEDULED_PRICE, TRUE,
//  651                             ZCL_FRAME_CLIENT_SERVER_DIR, disableDefaultRsp, 0,
//  652                             seqNum, 5, buf );
//  653 
//  654   return status;
??CrossCallReturnLabel_236:
        LCALL   ?PUSH_XSTACK_I_TWO
        CFI CFA_XSP16 add(XSP16, 20)
        MOV     ?V0 + 0,#0x5
        MOV     ?V0 + 1,#0x0
        MOV     R0,#?V0 + 0
        LCALL   ?PUSH_XSTACK_I_TWO
        CFI CFA_XSP16 add(XSP16, 22)
        MOV     A,?V0 + 4
        MOV     ?V0 + 0,A
        MOV     R0,#?V0 + 0
        LCALL   ?PUSH_XSTACK_I_ONE
        CFI CFA_XSP16 add(XSP16, 23)
        CLR     A
        MOV     ?V0 + 0,A
        MOV     R0,#?V0 + 0
        LCALL   ?PUSH_XSTACK_I_TWO
        CFI CFA_XSP16 add(XSP16, 25)
        MOV     A,?V0 + 3
        MOV     ?V0 + 0,A
        MOV     R0,#?V0 + 0
        LCALL   ?PUSH_XSTACK_I_ONE
        CFI CFA_XSP16 add(XSP16, 26)
        MOV     ?V0 + 0,#0x0
        MOV     R0,#?V0 + 0
        LCALL   ?PUSH_XSTACK_I_ONE
        CFI CFA_XSP16 add(XSP16, 27)
        MOV     ?V0 + 0,#0x1
        MOV     R0,#?V0 + 0
        LCALL   ?PUSH_XSTACK_I_ONE
        CFI CFA_XSP16 add(XSP16, 28)
        LJMP    ?Subroutine2 & 0xFFFF
        CFI EndBlock cfiBlock29
//  655 }
//  656 
//  657 /*********************************************************************
//  658  * @fn      zclSE_Pricing_Send_PublishPrice
//  659  *
//  660  * @brief   Call to send out a Publish Price Command
//  661  *
//  662  * @param   srcEP - Sending application's endpoint
//  663  * @param   dstAddr - where you want the message to go
//  664  * @param   pCmd - command payload
//  665  * @param   disableDefaultRsp - disable default response
//  666  * @param   seqNum - ZCL sequence number
//  667  *
//  668  * @return  ZStatus_t
//  669  */

        RSEG BANKED_CODE:CODE:NOROOT(0)
//  670 ZStatus_t zclSE_Pricing_Send_PublishPrice( uint8 srcEP, afAddrType_t *dstAddr,
zclSE_Pricing_Send_PublishPrice:
        CFI Block cfiBlock30 Using cfiCommon0
        CFI Function zclSE_Pricing_Send_PublishPrice
        CODE
//  671                                             zclCCPublishPrice_t *pCmd,
//  672                                             uint8 disableDefaultRsp, uint8 seqNum )
//  673 {
        FUNCALL zclSE_Pricing_Send_PublishPrice, osal_mem_alloc
        LOCFRAME ISTACK, 0, STACK
        LOCFRAME PSTACK, 0, STACK
        LOCFRAME XSTACK, 20, STACK
        LOCFRAME IOVERLAY, 0, STATIC
        LOCFRAME DOVERLAY, 0, STATIC
        ARGFRAME ISTACK, 0, STACK
        ARGFRAME PSTACK, 0, STACK
        ARGFRAME XSTACK, 20, STACK
        ARGFRAME IOVERLAY, 0, STATIC
        ARGFRAME DOVERLAY, 0, STATIC
        FUNCALL zclSE_Pricing_Send_PublishPrice, osal_buffer_uint32
        LOCFRAME ISTACK, 0, STACK
        LOCFRAME PSTACK, 0, STACK
        LOCFRAME XSTACK, 24, STACK
        LOCFRAME IOVERLAY, 0, STATIC
        LOCFRAME DOVERLAY, 0, STATIC
        ARGFRAME ISTACK, 0, STACK
        ARGFRAME PSTACK, 0, STACK
        ARGFRAME XSTACK, 24, STACK
        ARGFRAME IOVERLAY, 0, STATIC
        ARGFRAME DOVERLAY, 0, STATIC
        FUNCALL zclSE_Pricing_Send_PublishPrice, osal_memcpy
        LOCFRAME ISTACK, 0, STACK
        LOCFRAME PSTACK, 0, STACK
        LOCFRAME XSTACK, 23, STACK
        LOCFRAME IOVERLAY, 0, STATIC
        LOCFRAME DOVERLAY, 0, STATIC
        ARGFRAME ISTACK, 0, STACK
        ARGFRAME PSTACK, 0, STACK
        ARGFRAME XSTACK, 23, STACK
        ARGFRAME IOVERLAY, 0, STATIC
        ARGFRAME DOVERLAY, 0, STATIC
        FUNCALL zclSE_Pricing_Send_PublishPrice, osal_buffer_uint32
        LOCFRAME ISTACK, 0, STACK
        LOCFRAME PSTACK, 0, STACK
        LOCFRAME XSTACK, 24, STACK
        LOCFRAME IOVERLAY, 0, STATIC
        LOCFRAME DOVERLAY, 0, STATIC
        ARGFRAME ISTACK, 0, STACK
        ARGFRAME PSTACK, 0, STACK
        ARGFRAME XSTACK, 24, STACK
        ARGFRAME IOVERLAY, 0, STATIC
        ARGFRAME DOVERLAY, 0, STATIC
        FUNCALL zclSE_Pricing_Send_PublishPrice, osal_buffer_uint32
        LOCFRAME ISTACK, 0, STACK
        LOCFRAME PSTACK, 0, STACK
        LOCFRAME XSTACK, 24, STACK
        LOCFRAME IOVERLAY, 0, STATIC
        LOCFRAME DOVERLAY, 0, STATIC
        ARGFRAME ISTACK, 0, STACK
        ARGFRAME PSTACK, 0, STACK
        ARGFRAME XSTACK, 24, STACK
        ARGFRAME IOVERLAY, 0, STATIC
        ARGFRAME DOVERLAY, 0, STATIC
        FUNCALL zclSE_Pricing_Send_PublishPrice, osal_buffer_uint32
        LOCFRAME ISTACK, 0, STACK
        LOCFRAME PSTACK, 0, STACK
        LOCFRAME XSTACK, 24, STACK
        LOCFRAME IOVERLAY, 0, STATIC
        LOCFRAME DOVERLAY, 0, STATIC
        ARGFRAME ISTACK, 0, STACK
        ARGFRAME PSTACK, 0, STACK
        ARGFRAME XSTACK, 24, STACK
        ARGFRAME IOVERLAY, 0, STATIC
        ARGFRAME DOVERLAY, 0, STATIC
        FUNCALL zclSE_Pricing_Send_PublishPrice, osal_buffer_uint32
        LOCFRAME ISTACK, 0, STACK
        LOCFRAME PSTACK, 0, STACK
        LOCFRAME XSTACK, 24, STACK
        LOCFRAME IOVERLAY, 0, STATIC
        LOCFRAME DOVERLAY, 0, STATIC
        ARGFRAME ISTACK, 0, STACK
        ARGFRAME PSTACK, 0, STACK
        ARGFRAME XSTACK, 24, STACK
        ARGFRAME IOVERLAY, 0, STATIC
        ARGFRAME DOVERLAY, 0, STATIC
        FUNCALL zclSE_Pricing_Send_PublishPrice, osal_buffer_uint32
        LOCFRAME ISTACK, 0, STACK
        LOCFRAME PSTACK, 0, STACK
        LOCFRAME XSTACK, 24, STACK
        LOCFRAME IOVERLAY, 0, STATIC
        LOCFRAME DOVERLAY, 0, STATIC
        ARGFRAME ISTACK, 0, STACK
        ARGFRAME PSTACK, 0, STACK
        ARGFRAME XSTACK, 24, STACK
        ARGFRAME IOVERLAY, 0, STATIC
        ARGFRAME DOVERLAY, 0, STATIC
        FUNCALL zclSE_Pricing_Send_PublishPrice, osal_buffer_uint32
        LOCFRAME ISTACK, 0, STACK
        LOCFRAME PSTACK, 0, STACK
        LOCFRAME XSTACK, 24, STACK
        LOCFRAME IOVERLAY, 0, STATIC
        LOCFRAME DOVERLAY, 0, STATIC
        ARGFRAME ISTACK, 0, STACK
        ARGFRAME PSTACK, 0, STACK
        ARGFRAME XSTACK, 24, STACK
        ARGFRAME IOVERLAY, 0, STATIC
        ARGFRAME DOVERLAY, 0, STATIC
        FUNCALL zclSE_Pricing_Send_PublishPrice, zcl_SendCommand
        LOCFRAME ISTACK, 0, STACK
        LOCFRAME PSTACK, 0, STACK
        LOCFRAME XSTACK, 31, STACK
        LOCFRAME IOVERLAY, 0, STATIC
        LOCFRAME DOVERLAY, 0, STATIC
        ARGFRAME ISTACK, 0, STACK
        ARGFRAME PSTACK, 0, STACK
        ARGFRAME XSTACK, 31, STACK
        ARGFRAME IOVERLAY, 0, STATIC
        ARGFRAME DOVERLAY, 0, STATIC
        FUNCALL zclSE_Pricing_Send_PublishPrice, osal_mem_free
        LOCFRAME ISTACK, 0, STACK
        LOCFRAME PSTACK, 0, STACK
        LOCFRAME XSTACK, 20, STACK
        LOCFRAME IOVERLAY, 0, STATIC
        LOCFRAME DOVERLAY, 0, STATIC
        ARGFRAME ISTACK, 0, STACK
        ARGFRAME PSTACK, 0, STACK
        ARGFRAME XSTACK, 20, STACK
        ARGFRAME IOVERLAY, 0, STATIC
        ARGFRAME DOVERLAY, 0, STATIC
        MOV     A,#-0x14
        LCALL   ?BANKED_ENTER_XDATA
        CFI DPH0 load(1, XDATA, add(CFA_XSP16, literal(-1)))
        CFI DPL0 load(1, XDATA, add(CFA_XSP16, literal(-2)))
        CFI ?BRET_EXT load(1, XDATA, add(CFA_XSP16, literal(-3)))
        CFI ?RET_HIGH load(1, XDATA, add(CFA_XSP16, literal(-4)))
        CFI ?RET_LOW load(1, XDATA, add(CFA_XSP16, literal(-5)))
        CFI R7 load(1, XDATA, add(CFA_XSP16, literal(-6)))
        CFI V11 load(1, XDATA, add(CFA_XSP16, literal(-7)))
        CFI V10 load(1, XDATA, add(CFA_XSP16, literal(-8)))
        CFI V9 load(1, XDATA, add(CFA_XSP16, literal(-9)))
        CFI V8 load(1, XDATA, add(CFA_XSP16, literal(-10)))
        CFI V7 load(1, XDATA, add(CFA_XSP16, literal(-11)))
        CFI V6 load(1, XDATA, add(CFA_XSP16, literal(-12)))
        CFI V5 load(1, XDATA, add(CFA_XSP16, literal(-13)))
        CFI V4 load(1, XDATA, add(CFA_XSP16, literal(-14)))
        CFI V3 load(1, XDATA, add(CFA_XSP16, literal(-15)))
        CFI V2 load(1, XDATA, add(CFA_XSP16, literal(-16)))
        CFI V1 load(1, XDATA, add(CFA_XSP16, literal(-17)))
        CFI V0 load(1, XDATA, add(CFA_XSP16, literal(-18)))
        CFI VB load(1, XDATA, add(CFA_XSP16, literal(-19)))
        CFI R6 load(1, XDATA, add(CFA_XSP16, literal(-20)))
        CFI CFA_SP SP+0
        CFI CFA_XSP16 add(XSP16, 20)
        ; Saved register size: 20
        ; Auto size: 0
        MOV     ?V0 + 11,R1
        MOV     ?V0 + 8,R2
        MOV     ?V0 + 9,R3
        MOV     A,R4
        MOV     R6,A
        MOV     A,R5
        MOV     R7,A
        MOV     A,#0x14
        LCALL   ?XSTACK_DISP0_8
        MOVX    A,@DPTR
        MOV     ?V0 + 10,A
        MOV     A,#0x15
        LCALL   ?XSTACK_DISP0_8
        MOVX    A,@DPTR
        MOV     ?V0 + 7,A
//  674   uint8 *buf;
//  675   uint8 *pBuf;
//  676   uint16 bufLen;
//  677   ZStatus_t status;
//  678 
//  679   bufLen = PACKET_LEN_SE_PUBLISH_PRICE + pCmd->rateLabel.strLen;
        MOV     DPL,R6
        MOV     DPH,R7
        INC     DPTR
        INC     DPTR
        INC     DPTR
        INC     DPTR
        MOVX    A,@DPTR
        ADD     A,#0x2a
        LCALL   ?Subroutine82 & 0xFFFF
//  680   buf = osal_mem_alloc( bufLen );
//  681   if ( buf == NULL )
??CrossCallReturnLabel_326:
        JNZ     ??zclSE_Pricing_Send_PublishPrice_0
//  682   {
//  683     return ( ZMemError );
        MOV     R1,#0x10
        LJMP    ??CrossCallReturnLabel_214 & 0xFFFF
//  684   }
//  685 
//  686   pBuf = osal_buffer_uint32( buf, pCmd->providerId );
??zclSE_Pricing_Send_PublishPrice_0:
        ; Setup parameters for call to function osal_buffer_uint32
        MOV     DPL,R6
        MOV     DPH,R7
        LCALL   ?PUSH_XSTACK8_X_FOUR
        CFI CFA_XSP16 add(XSP16, 24)
        LCALL   ??Subroutine156_0 & 0xFFFF
??CrossCallReturnLabel_268:
        LCALL   ?DEALLOC_XSTACK8
        CFI CFA_XSP16 add(XSP16, 20)
//  687   *pBuf++ = pCmd->rateLabel.strLen;
        MOV     A,R6
        ADD     A,#0x4
        MOV     R4,A
        MOV     A,R7
        ADDC    A,#0x0
        MOV     R5,A
        MOV     DPL,R4
        MOV     DPH,R5
        LCALL   ??Subroutine154_0 & 0xFFFF
//  688   pBuf = osal_memcpy( pBuf, pCmd->rateLabel.pStr, pCmd->rateLabel.strLen );
??CrossCallReturnLabel_241:
        ; Setup parameters for call to function osal_memcpy
        MOV     DPL,R6
        MOV     DPH,R7
        INC     DPTR
        INC     DPTR
        INC     DPTR
        INC     DPTR
        INC     DPTR
        MOVX    A,@DPTR
        MOV     ?V0 + 4,A
        INC     DPTR
        MOVX    A,@DPTR
        MOV     ?V0 + 5,A
        MOV     ?V0 + 6,#0x0
        MOV     R0,#?V0 + 4
        LCALL   ?PUSH_XSTACK_I_THREE
        CFI CFA_XSP16 add(XSP16, 23)
        LCALL   ?Subroutine59 & 0xFFFF
??CrossCallReturnLabel_79:
        LCALL   ?DEALLOC_XSTACK8
        CFI CFA_XSP16 add(XSP16, 20)
//  689   pBuf = osal_buffer_uint32( pBuf, pCmd->issuerEventId );
        ; Setup parameters for call to function osal_buffer_uint32
        MOV     DPL,R6
        MOV     DPH,R7
        INC     DPTR
        INC     DPTR
        INC     DPTR
        INC     DPTR
        INC     DPTR
        INC     DPTR
        INC     DPTR
        LCALL   ?PUSH_XSTACK8_X_FOUR
        CFI CFA_XSP16 add(XSP16, 24)
        LCALL   ??Subroutine156_0 & 0xFFFF
??CrossCallReturnLabel_269:
        LCALL   ?DEALLOC_XSTACK8
        CFI CFA_XSP16 add(XSP16, 20)
//  690   pBuf = osal_buffer_uint32( pBuf, pCmd->currentTime );
        ; Setup parameters for call to function osal_buffer_uint32
        MOV     A,R6
        ADD     A,#0xb
        MOV     DPL,A
        MOV     A,R7
        LCALL   ??Subroutine193_0 & 0xFFFF
??CrossCallReturnLabel_502:
        LCALL   ?PUSH_XSTACK8_X_FOUR
        CFI CFA_XSP16 add(XSP16, 24)
        LCALL   ??Subroutine156_0 & 0xFFFF
??CrossCallReturnLabel_270:
        LCALL   ?DEALLOC_XSTACK8
        CFI CFA_XSP16 add(XSP16, 20)
//  691   *pBuf++ = pCmd->unitOfMeasure;
        MOV     A,R6
        ADD     A,#0xf
        LCALL   ?Subroutine28 & 0xFFFF
//  692   *pBuf++ = LO_UINT16( pCmd->currency );
??CrossCallReturnLabel_20:
        ADD     A,#0x10
        MOV     R0,A
        MOV     A,R7
        LCALL   ?Subroutine90 & 0xFFFF
??CrossCallReturnLabel_143:
        LCALL   ?Subroutine64 & 0xFFFF
??CrossCallReturnLabel_89:
        LCALL   ??Subroutine149_0 & 0xFFFF
//  693   *pBuf++ = HI_UINT16( pCmd->currency );
//  694   *pBuf++ = pCmd->priceTrailingDigit;
??CrossCallReturnLabel_226:
        ADD     A,#0x12
        MOV     DPL,A
        MOV     A,R7
        LCALL   ??Subroutine193_0 & 0xFFFF
??CrossCallReturnLabel_503:
        LCALL   ??Subroutine150_0 & 0xFFFF
//  695   *pBuf++ = pCmd->numberOfPriceTiers;
??CrossCallReturnLabel_227:
        ADD     A,#0x13
        MOV     DPL,A
        MOV     A,R7
        LCALL   ??Subroutine193_0 & 0xFFFF
??CrossCallReturnLabel_504:
        LCALL   ??Subroutine150_0 & 0xFFFF
//  696   pBuf = osal_buffer_uint32( pBuf, pCmd->startTime );
??CrossCallReturnLabel_228:
        ADD     A,#0x14
        MOV     DPL,A
        MOV     A,R7
        LCALL   ??Subroutine193_0 & 0xFFFF
??CrossCallReturnLabel_505:
        LCALL   ?PUSH_XSTACK8_X_FOUR
        CFI CFA_XSP16 add(XSP16, 24)
        LCALL   ??Subroutine156_0 & 0xFFFF
??CrossCallReturnLabel_271:
        LCALL   ?DEALLOC_XSTACK8
        CFI CFA_XSP16 add(XSP16, 20)
//  697   *pBuf++ = LO_UINT16( pCmd->durationInMinutes );
        MOV     A,R6
        ADD     A,#0x18
        LCALL   ?Subroutine16 & 0xFFFF
//  698   *pBuf++ = HI_UINT16( pCmd->durationInMinutes );
//  699   pBuf = osal_buffer_uint32( pBuf, pCmd->price );
??CrossCallReturnLabel_224:
        ADD     A,#0x1a
        MOV     DPL,A
        MOV     A,R7
        LCALL   ??Subroutine193_0 & 0xFFFF
??CrossCallReturnLabel_506:
        LCALL   ?PUSH_XSTACK8_X_FOUR
        CFI CFA_XSP16 add(XSP16, 24)
        LCALL   ??Subroutine156_0 & 0xFFFF
??CrossCallReturnLabel_272:
        LCALL   ?DEALLOC_XSTACK8
        CFI CFA_XSP16 add(XSP16, 20)
//  700   *pBuf++ = pCmd->priceRatio;
        MOV     A,R6
        ADD     A,#0x1e
        LCALL   ?Subroutine28 & 0xFFFF
//  701   pBuf = osal_buffer_uint32( pBuf, pCmd->generationPrice );
??CrossCallReturnLabel_21:
        ADD     A,#0x1f
        MOV     DPL,A
        MOV     A,R7
        LCALL   ??Subroutine193_0 & 0xFFFF
??CrossCallReturnLabel_507:
        LCALL   ?PUSH_XSTACK8_X_FOUR
        CFI CFA_XSP16 add(XSP16, 24)
        LCALL   ??Subroutine156_0 & 0xFFFF
??CrossCallReturnLabel_273:
        LCALL   ?DEALLOC_XSTACK8
        CFI CFA_XSP16 add(XSP16, 20)
//  702   *pBuf++ = pCmd->generationPriceRatio;
        MOV     A,R6
        ADD     A,#0x23
        LCALL   ?Subroutine28 & 0xFFFF
//  703   pBuf = osal_buffer_uint32( pBuf, pCmd->alternateCostDelivered );
??CrossCallReturnLabel_22:
        ADD     A,#0x24
        MOV     DPL,A
        MOV     A,R7
        LCALL   ??Subroutine193_0 & 0xFFFF
??CrossCallReturnLabel_508:
        LCALL   ?PUSH_XSTACK8_X_FOUR
        CFI CFA_XSP16 add(XSP16, 24)
        LCALL   ??Subroutine156_0 & 0xFFFF
??CrossCallReturnLabel_274:
        LCALL   ?DEALLOC_XSTACK8
        CFI CFA_XSP16 add(XSP16, 20)
//  704   *pBuf++ = pCmd->alternateCostUnit;
        MOV     A,R6
        ADD     A,#0x28
        LCALL   ?Subroutine28 & 0xFFFF
//  705   *pBuf++ = pCmd->alternateCostTrailingDigit;
??CrossCallReturnLabel_23:
        ADD     A,#0x29
        MOV     DPL,A
        MOV     A,R7
        LCALL   ??Subroutine193_0 & 0xFFFF
??CrossCallReturnLabel_509:
        LCALL   ??Subroutine150_0 & 0xFFFF
//  706   *pBuf++ = pCmd->numberOfBlockThresholds;
??CrossCallReturnLabel_229:
        ADD     A,#0x2a
        MOV     DPL,A
        MOV     A,R7
        LCALL   ??Subroutine193_0 & 0xFFFF
??CrossCallReturnLabel_510:
        LCALL   ??Subroutine150_0 & 0xFFFF
//  707   *pBuf = pCmd->priceControl;
??CrossCallReturnLabel_230:
        ADD     A,#0x2b
        MOV     DPL,A
        MOV     A,R7
        LCALL   ?Subroutine65 & 0xFFFF
//  708 
//  709   status = zcl_SendCommand( srcEP, dstAddr, ZCL_CLUSTER_ID_SE_PRICING,
//  710                             COMMAND_SE_PUBLISH_PRICE, TRUE,
//  711                             ZCL_FRAME_SERVER_CLIENT_DIR, disableDefaultRsp, 0,
//  712                             seqNum, bufLen, buf );
??CrossCallReturnLabel_91:
        LCALL   ?PUSH_XSTACK_I_TWO
        CFI CFA_XSP16 add(XSP16, 22)
        MOV     R0,#?V0 + 2
        LCALL   ?PUSH_XSTACK_I_TWO
        CFI CFA_XSP16 add(XSP16, 24)
        MOV     A,?V0 + 7
        MOV     ?V0 + 2,A
        MOV     R0,#?V0 + 2
        LCALL   ?PUSH_XSTACK_I_ONE
        CFI CFA_XSP16 add(XSP16, 25)
        CLR     A
        MOV     ?V0 + 2,A
        MOV     ?V0 + 3,A
        MOV     R0,#?V0 + 2
        LCALL   ?PUSH_XSTACK_I_TWO
        CFI CFA_XSP16 add(XSP16, 27)
        MOV     A,?V0 + 10
        MOV     ?V0 + 2,A
        MOV     R0,#?V0 + 2
        LCALL   ?PUSH_XSTACK_I_ONE
        CFI CFA_XSP16 add(XSP16, 28)
        MOV     ?V0 + 2,#0x1
        MOV     R0,#?V0 + 2
        LCALL   ?PUSH_XSTACK_I_ONE
        CFI CFA_XSP16 add(XSP16, 29)
        MOV     R0,#?V0 + 2
        LCALL   ?PUSH_XSTACK_I_ONE
        CFI CFA_XSP16 add(XSP16, 30)
        MOV     ?V0 + 2,#0x0
        MOV     R0,#?V0 + 2
        LCALL   ?PUSH_XSTACK_I_ONE
        CFI CFA_XSP16 add(XSP16, 31)
        MOV     R4,#0x0
        MOV     R5,#0x7
        MOV     R2,?V0 + 8
        MOV     R3,?V0 + 9
        MOV     R1,?V0 + 11
        LCALL   ??Subroutine160_0 & 0xFFFF
??CrossCallReturnLabel_315:
        LCALL   ?DEALLOC_XSTACK8
        CFI CFA_XSP16 add(XSP16, 20)
        LCALL   ?Subroutine94 & 0xFFFF
//  713 
//  714   osal_mem_free( buf );
//  715 
//  716   return status;
??CrossCallReturnLabel_214:
        MOV     R7,#0xc
        LJMP    ?BANKED_LEAVE_XDATA
        CFI EndBlock cfiBlock30
//  717 }

        RSEG BANKED_CODE:CODE:NOROOT(0)
?Subroutine28:
        CFI Block cfiCond31 Using cfiCommon0
        CFI NoFunction
        CFI Conditional ??CrossCallReturnLabel_20
        CFI R6 load(1, XDATA, add(CFA_XSP16, literal(-20)))
        CFI VB load(1, XDATA, add(CFA_XSP16, literal(-19)))
        CFI V0 load(1, XDATA, add(CFA_XSP16, literal(-18)))
        CFI V1 load(1, XDATA, add(CFA_XSP16, literal(-17)))
        CFI V2 load(1, XDATA, add(CFA_XSP16, literal(-16)))
        CFI V3 load(1, XDATA, add(CFA_XSP16, literal(-15)))
        CFI V4 load(1, XDATA, add(CFA_XSP16, literal(-14)))
        CFI V5 load(1, XDATA, add(CFA_XSP16, literal(-13)))
        CFI V6 load(1, XDATA, add(CFA_XSP16, literal(-12)))
        CFI V7 load(1, XDATA, add(CFA_XSP16, literal(-11)))
        CFI V8 load(1, XDATA, add(CFA_XSP16, literal(-10)))
        CFI V9 load(1, XDATA, add(CFA_XSP16, literal(-9)))
        CFI V10 load(1, XDATA, add(CFA_XSP16, literal(-8)))
        CFI V11 load(1, XDATA, add(CFA_XSP16, literal(-7)))
        CFI R7 load(1, XDATA, add(CFA_XSP16, literal(-6)))
        CFI ?RET_LOW load(1, XDATA, add(CFA_XSP16, literal(-5)))
        CFI ?RET_HIGH load(1, XDATA, add(CFA_XSP16, literal(-4)))
        CFI ?BRET_EXT load(1, XDATA, add(CFA_XSP16, literal(-3)))
        CFI DPL0 load(1, XDATA, add(CFA_XSP16, literal(-2)))
        CFI DPH0 load(1, XDATA, add(CFA_XSP16, literal(-1)))
        CFI CFA_SP SP+0
        CFI CFA_XSP16 add(XSP16, 20)
        CFI Block cfiCond32 Using cfiCommon0
        CFI (cfiCond32) NoFunction
        CFI (cfiCond32) Conditional ??CrossCallReturnLabel_21
        CFI (cfiCond32) R6 load(1, XDATA, add(CFA_XSP16, literal(-20)))
        CFI (cfiCond32) VB load(1, XDATA, add(CFA_XSP16, literal(-19)))
        CFI (cfiCond32) V0 load(1, XDATA, add(CFA_XSP16, literal(-18)))
        CFI (cfiCond32) V1 load(1, XDATA, add(CFA_XSP16, literal(-17)))
        CFI (cfiCond32) V2 load(1, XDATA, add(CFA_XSP16, literal(-16)))
        CFI (cfiCond32) V3 load(1, XDATA, add(CFA_XSP16, literal(-15)))
        CFI (cfiCond32) V4 load(1, XDATA, add(CFA_XSP16, literal(-14)))
        CFI (cfiCond32) V5 load(1, XDATA, add(CFA_XSP16, literal(-13)))
        CFI (cfiCond32) V6 load(1, XDATA, add(CFA_XSP16, literal(-12)))
        CFI (cfiCond32) V7 load(1, XDATA, add(CFA_XSP16, literal(-11)))
        CFI (cfiCond32) V8 load(1, XDATA, add(CFA_XSP16, literal(-10)))
        CFI (cfiCond32) V9 load(1, XDATA, add(CFA_XSP16, literal(-9)))
        CFI (cfiCond32) V10 load(1, XDATA, add(CFA_XSP16, literal(-8)))
        CFI (cfiCond32) V11 load(1, XDATA, add(CFA_XSP16, literal(-7)))
        CFI (cfiCond32) R7 load(1, XDATA, add(CFA_XSP16, literal(-6)))
        CFI (cfiCond32) ?RET_LOW load(1, XDATA, add(CFA_XSP16, literal(-5)))
        CFI (cfiCond32) ?RET_HIGH load(1, XDATA, add(CFA_XSP16, literal(-4)))
        CFI (cfiCond32) ?BRET_EXT load(1, XDATA, add(CFA_XSP16, literal(-3)))
        CFI (cfiCond32) DPL0 load(1, XDATA, add(CFA_XSP16, literal(-2)))
        CFI (cfiCond32) DPH0 load(1, XDATA, add(CFA_XSP16, literal(-1)))
        CFI (cfiCond32) CFA_SP SP+0
        CFI (cfiCond32) CFA_XSP16 add(XSP16, 20)
        CFI Block cfiCond33 Using cfiCommon0
        CFI (cfiCond33) NoFunction
        CFI (cfiCond33) Conditional ??CrossCallReturnLabel_22
        CFI (cfiCond33) R6 load(1, XDATA, add(CFA_XSP16, literal(-20)))
        CFI (cfiCond33) VB load(1, XDATA, add(CFA_XSP16, literal(-19)))
        CFI (cfiCond33) V0 load(1, XDATA, add(CFA_XSP16, literal(-18)))
        CFI (cfiCond33) V1 load(1, XDATA, add(CFA_XSP16, literal(-17)))
        CFI (cfiCond33) V2 load(1, XDATA, add(CFA_XSP16, literal(-16)))
        CFI (cfiCond33) V3 load(1, XDATA, add(CFA_XSP16, literal(-15)))
        CFI (cfiCond33) V4 load(1, XDATA, add(CFA_XSP16, literal(-14)))
        CFI (cfiCond33) V5 load(1, XDATA, add(CFA_XSP16, literal(-13)))
        CFI (cfiCond33) V6 load(1, XDATA, add(CFA_XSP16, literal(-12)))
        CFI (cfiCond33) V7 load(1, XDATA, add(CFA_XSP16, literal(-11)))
        CFI (cfiCond33) V8 load(1, XDATA, add(CFA_XSP16, literal(-10)))
        CFI (cfiCond33) V9 load(1, XDATA, add(CFA_XSP16, literal(-9)))
        CFI (cfiCond33) V10 load(1, XDATA, add(CFA_XSP16, literal(-8)))
        CFI (cfiCond33) V11 load(1, XDATA, add(CFA_XSP16, literal(-7)))
        CFI (cfiCond33) R7 load(1, XDATA, add(CFA_XSP16, literal(-6)))
        CFI (cfiCond33) ?RET_LOW load(1, XDATA, add(CFA_XSP16, literal(-5)))
        CFI (cfiCond33) ?RET_HIGH load(1, XDATA, add(CFA_XSP16, literal(-4)))
        CFI (cfiCond33) ?BRET_EXT load(1, XDATA, add(CFA_XSP16, literal(-3)))
        CFI (cfiCond33) DPL0 load(1, XDATA, add(CFA_XSP16, literal(-2)))
        CFI (cfiCond33) DPH0 load(1, XDATA, add(CFA_XSP16, literal(-1)))
        CFI (cfiCond33) CFA_SP SP+0
        CFI (cfiCond33) CFA_XSP16 add(XSP16, 20)
        CFI Block cfiCond34 Using cfiCommon0
        CFI (cfiCond34) NoFunction
        CFI (cfiCond34) Conditional ??CrossCallReturnLabel_23
        CFI (cfiCond34) R6 load(1, XDATA, add(CFA_XSP16, literal(-20)))
        CFI (cfiCond34) VB load(1, XDATA, add(CFA_XSP16, literal(-19)))
        CFI (cfiCond34) V0 load(1, XDATA, add(CFA_XSP16, literal(-18)))
        CFI (cfiCond34) V1 load(1, XDATA, add(CFA_XSP16, literal(-17)))
        CFI (cfiCond34) V2 load(1, XDATA, add(CFA_XSP16, literal(-16)))
        CFI (cfiCond34) V3 load(1, XDATA, add(CFA_XSP16, literal(-15)))
        CFI (cfiCond34) V4 load(1, XDATA, add(CFA_XSP16, literal(-14)))
        CFI (cfiCond34) V5 load(1, XDATA, add(CFA_XSP16, literal(-13)))
        CFI (cfiCond34) V6 load(1, XDATA, add(CFA_XSP16, literal(-12)))
        CFI (cfiCond34) V7 load(1, XDATA, add(CFA_XSP16, literal(-11)))
        CFI (cfiCond34) V8 load(1, XDATA, add(CFA_XSP16, literal(-10)))
        CFI (cfiCond34) V9 load(1, XDATA, add(CFA_XSP16, literal(-9)))
        CFI (cfiCond34) V10 load(1, XDATA, add(CFA_XSP16, literal(-8)))
        CFI (cfiCond34) V11 load(1, XDATA, add(CFA_XSP16, literal(-7)))
        CFI (cfiCond34) R7 load(1, XDATA, add(CFA_XSP16, literal(-6)))
        CFI (cfiCond34) ?RET_LOW load(1, XDATA, add(CFA_XSP16, literal(-5)))
        CFI (cfiCond34) ?RET_HIGH load(1, XDATA, add(CFA_XSP16, literal(-4)))
        CFI (cfiCond34) ?BRET_EXT load(1, XDATA, add(CFA_XSP16, literal(-3)))
        CFI (cfiCond34) DPL0 load(1, XDATA, add(CFA_XSP16, literal(-2)))
        CFI (cfiCond34) DPH0 load(1, XDATA, add(CFA_XSP16, literal(-1)))
        CFI (cfiCond34) CFA_SP SP+0
        CFI (cfiCond34) CFA_XSP16 add(XSP16, 20)
        CFI Block cfiPicker35 Using cfiCommon1
        CFI (cfiPicker35) NoFunction
        CFI (cfiPicker35) Picker
        MOV     DPL,A
        MOV     A,R7
        LCALL   ??Subroutine187_0 & 0xFFFF
??CrossCallReturnLabel_554:
        LCALL   ?Subroutine105 & 0xFFFF
??CrossCallReturnLabel_246:
        ; Setup parameters for call to function osal_buffer_uint32
        ; Setup parameters for call to function osal_buffer_uint32
        MOV     A,R6
        RET
        CFI EndBlock cfiCond31
        CFI EndBlock cfiCond32
        CFI EndBlock cfiCond33
        CFI EndBlock cfiCond34
        CFI EndBlock cfiPicker35
//  718 
//  719 /*********************************************************************
//  720  * @fn      zclSE_Pricing_Send_PriceAcknowledgement
//  721  *
//  722  * @brief   Call to send out a Price Acknowledgement
//  723  *
//  724  * @param   srcEP - Sending application's endpoint
//  725  * @param   dstAddr - where you want the message to go
//  726  * @param   pCmd - command payload
//  727  * @param   disableDefaultRsp - disable default response
//  728  * @param   seqNum - ZCL sequence number
//  729  *
//  730  * @return  ZStatus_t
//  731  */

        RSEG BANKED_CODE:CODE:NOROOT(0)
//  732 ZStatus_t zclSE_Pricing_Send_PriceAcknowledgement( uint8 srcEP, afAddrType_t *dstAddr,
zclSE_Pricing_Send_PriceAcknowledgement:
        CFI Block cfiBlock36 Using cfiCommon0
        CFI Function zclSE_Pricing_Send_PriceAcknowledgement
        CODE
//  733                                             zclCCPriceAcknowledgement_t *pCmd,
//  734                                             uint8 disableDefaultRsp, uint8 seqNum )
//  735 {
        FUNCALL zclSE_Pricing_Send_PriceAcknowledgement, osal_mem_alloc
        LOCFRAME ISTACK, 0, STACK
        LOCFRAME PSTACK, 0, STACK
        LOCFRAME XSTACK, 18, STACK
        LOCFRAME IOVERLAY, 0, STATIC
        LOCFRAME DOVERLAY, 0, STATIC
        ARGFRAME ISTACK, 0, STACK
        ARGFRAME PSTACK, 0, STACK
        ARGFRAME XSTACK, 18, STACK
        ARGFRAME IOVERLAY, 0, STATIC
        ARGFRAME DOVERLAY, 0, STATIC
        FUNCALL zclSE_Pricing_Send_PriceAcknowledgement, osal_buffer_uint32
        LOCFRAME ISTACK, 1, STACK
        LOCFRAME PSTACK, 0, STACK
        LOCFRAME XSTACK, 30, STACK
        LOCFRAME IOVERLAY, 0, STATIC
        LOCFRAME DOVERLAY, 0, STATIC
        ARGFRAME ISTACK, 1, STACK
        ARGFRAME PSTACK, 0, STACK
        ARGFRAME XSTACK, 30, STACK
        ARGFRAME IOVERLAY, 0, STATIC
        ARGFRAME DOVERLAY, 0, STATIC
        FUNCALL zclSE_Pricing_Send_PriceAcknowledgement, osal_buffer_uint32
        LOCFRAME ISTACK, 1, STACK
        LOCFRAME PSTACK, 0, STACK
        LOCFRAME XSTACK, 26, STACK
        LOCFRAME IOVERLAY, 0, STATIC
        LOCFRAME DOVERLAY, 0, STATIC
        ARGFRAME ISTACK, 1, STACK
        ARGFRAME PSTACK, 0, STACK
        ARGFRAME XSTACK, 26, STACK
        ARGFRAME IOVERLAY, 0, STATIC
        ARGFRAME DOVERLAY, 0, STATIC
        FUNCALL zclSE_Pricing_Send_PriceAcknowledgement, osal_buffer_uint32
        LOCFRAME ISTACK, 1, STACK
        LOCFRAME PSTACK, 0, STACK
        LOCFRAME XSTACK, 22, STACK
        LOCFRAME IOVERLAY, 0, STATIC
        LOCFRAME DOVERLAY, 0, STATIC
        ARGFRAME ISTACK, 1, STACK
        ARGFRAME PSTACK, 0, STACK
        ARGFRAME XSTACK, 22, STACK
        ARGFRAME IOVERLAY, 0, STATIC
        ARGFRAME DOVERLAY, 0, STATIC
        FUNCALL zclSE_Pricing_Send_PriceAcknowledgement, zcl_SendCommand
        LOCFRAME ISTACK, 0, STACK
        LOCFRAME PSTACK, 0, STACK
        LOCFRAME XSTACK, 29, STACK
        LOCFRAME IOVERLAY, 0, STATIC
        LOCFRAME DOVERLAY, 0, STATIC
        ARGFRAME ISTACK, 0, STACK
        ARGFRAME PSTACK, 0, STACK
        ARGFRAME XSTACK, 29, STACK
        ARGFRAME IOVERLAY, 0, STATIC
        ARGFRAME DOVERLAY, 0, STATIC
        FUNCALL zclSE_Pricing_Send_PriceAcknowledgement, osal_mem_free
        LOCFRAME ISTACK, 0, STACK
        LOCFRAME PSTACK, 0, STACK
        LOCFRAME XSTACK, 18, STACK
        LOCFRAME IOVERLAY, 0, STATIC
        LOCFRAME DOVERLAY, 0, STATIC
        ARGFRAME ISTACK, 0, STACK
        ARGFRAME PSTACK, 0, STACK
        ARGFRAME XSTACK, 18, STACK
        ARGFRAME IOVERLAY, 0, STATIC
        ARGFRAME DOVERLAY, 0, STATIC
        MOV     A,#-0x12
        LCALL   ?BANKED_ENTER_XDATA
        CFI DPH0 load(1, XDATA, add(CFA_XSP16, literal(-1)))
        CFI DPL0 load(1, XDATA, add(CFA_XSP16, literal(-2)))
        CFI ?BRET_EXT load(1, XDATA, add(CFA_XSP16, literal(-3)))
        CFI ?RET_HIGH load(1, XDATA, add(CFA_XSP16, literal(-4)))
        CFI ?RET_LOW load(1, XDATA, add(CFA_XSP16, literal(-5)))
        CFI R7 load(1, XDATA, add(CFA_XSP16, literal(-6)))
        CFI V9 load(1, XDATA, add(CFA_XSP16, literal(-7)))
        CFI V8 load(1, XDATA, add(CFA_XSP16, literal(-8)))
        CFI V7 load(1, XDATA, add(CFA_XSP16, literal(-9)))
        CFI V6 load(1, XDATA, add(CFA_XSP16, literal(-10)))
        CFI V5 load(1, XDATA, add(CFA_XSP16, literal(-11)))
        CFI V4 load(1, XDATA, add(CFA_XSP16, literal(-12)))
        CFI V3 load(1, XDATA, add(CFA_XSP16, literal(-13)))
        CFI V2 load(1, XDATA, add(CFA_XSP16, literal(-14)))
        CFI V1 load(1, XDATA, add(CFA_XSP16, literal(-15)))
        CFI V0 load(1, XDATA, add(CFA_XSP16, literal(-16)))
        CFI VB load(1, XDATA, add(CFA_XSP16, literal(-17)))
        CFI R6 load(1, XDATA, add(CFA_XSP16, literal(-18)))
        CFI CFA_SP SP+0
        CFI CFA_XSP16 add(XSP16, 18)
        ; Saved register size: 18
        ; Auto size: 0
        MOV     ?V0 + 2,R1
        MOV     A,R2
        MOV     R6,A
        MOV     A,R3
        MOV     R7,A
        MOV     ?V0 + 0,R4
        MOV     ?V0 + 1,R5
        MOV     A,#0x12
        LCALL   ?XSTACK_DISP0_8
        LCALL   ?Subroutine39 & 0xFFFF
??CrossCallReturnLabel_45:
        LCALL   ?XSTACK_DISP0_8
        MOVX    A,@DPTR
        MOV     ?V0 + 6,A
//  736   uint8 *buf;
//  737   uint8 *pBuf;
//  738   ZStatus_t status;
//  739 
//  740   buf = osal_mem_alloc( PACKET_LEN_SE_PRICE_ACKNOWLEDGEMENT );
        ; Setup parameters for call to function osal_mem_alloc
        MOV     R2,#0xd
        LCALL   ?Subroutine84 & 0xFFFF
//  741   if ( buf == NULL )
??CrossCallReturnLabel_131:
        JNZ     ??zclSE_Pricing_Send_PriceAcknowledgement_0
//  742   {
//  743     return ( ZMemError );
        MOV     R1,#0x10
        LJMP    ??CrossCallReturnLabel_219 & 0xFFFF
//  744   }
//  745 
//  746   pBuf = osal_buffer_uint32( buf, pCmd->providerId );
//  747   pBuf = osal_buffer_uint32( pBuf, pCmd->issuerEventId );
//  748   pBuf = osal_buffer_uint32( pBuf, pCmd->priceAckTime );
//  749   *pBuf = pCmd->control;
??zclSE_Pricing_Send_PriceAcknowledgement_0:
        MOV     A,?V0 + 0
        ADD     A,#0xc
        LCALL   ?Subroutine92 & 0xFFFF
??CrossCallReturnLabel_364:
        PUSH    A
        CFI CFA_SP SP+-1
        ; Setup parameters for call to function osal_buffer_uint32
        MOV     DPL,?V0 + 0
        MOV     DPH,?V0 + 1
        INC     DPTR
        INC     DPTR
        INC     DPTR
        INC     DPTR
        INC     DPTR
        INC     DPTR
        INC     DPTR
        INC     DPTR
        LCALL   ?PUSH_XSTACK8_X_FOUR
        CFI CFA_XSP16 add(XSP16, 22)
        ; Setup parameters for call to function osal_buffer_uint32
        MOV     DPL,?V0 + 0
        MOV     DPH,?V0 + 1
        INC     DPTR
        INC     DPTR
        INC     DPTR
        INC     DPTR
        LCALL   ?PUSH_XSTACK8_X_FOUR
        CFI CFA_XSP16 add(XSP16, 26)
        ; Setup parameters for call to function osal_buffer_uint32
        MOV     DPL,?V0 + 0
        MOV     DPH,?V0 + 1
        LCALL   ?PUSH_XSTACK8_X_FOUR
        CFI CFA_XSP16 add(XSP16, 30)
        LCALL   ??Subroutine156_0 & 0xFFFF
??CrossCallReturnLabel_275:
        LCALL   ?DEALLOC_XSTACK8
        CFI CFA_XSP16 add(XSP16, 26)
        LCALL   ??Subroutine156_0 & 0xFFFF
??CrossCallReturnLabel_276:
        LCALL   ?DEALLOC_XSTACK8
        CFI CFA_XSP16 add(XSP16, 22)
        LCALL   ??Subroutine156_0 & 0xFFFF
??CrossCallReturnLabel_277:
        LCALL   ?DEALLOC_XSTACK8
        CFI CFA_XSP16 add(XSP16, 18)
        MOV     DPL,R2
        MOV     DPH,R3
        POP     A
        CFI CFA_SP SP+0
        MOVX    @DPTR,A
//  750 
//  751   status = zcl_SendCommand( srcEP, dstAddr, ZCL_CLUSTER_ID_SE_PRICING,
//  752                             COMMAND_SE_PRICE_ACKNOWLEDGEMENT, TRUE,
//  753                             ZCL_FRAME_CLIENT_SERVER_DIR, disableDefaultRsp, 0,
//  754                             seqNum, PACKET_LEN_SE_PRICE_ACKNOWLEDGEMENT, buf );
        ; Setup parameters for call to function zcl_SendCommand
        MOV     R0,#?V0 + 4
        LCALL   ?PUSH_XSTACK_I_TWO
        CFI CFA_XSP16 add(XSP16, 20)
        MOV     ?V0 + 0,#0xd
        MOV     ?V0 + 1,#0x0
        MOV     R0,#?V0 + 0
        LCALL   ?PUSH_XSTACK_I_TWO
        CFI CFA_XSP16 add(XSP16, 22)
        MOV     A,?V0 + 6
        MOV     ?V0 + 0,A
        MOV     R0,#?V0 + 0
        LCALL   ?PUSH_XSTACK_I_ONE
        CFI CFA_XSP16 add(XSP16, 23)
        CLR     A
        MOV     ?V0 + 0,A
        MOV     R0,#?V0 + 0
        LCALL   ?PUSH_XSTACK_I_TWO
        CFI CFA_XSP16 add(XSP16, 25)
        MOV     A,?V0 + 3
        MOV     ?V0 + 0,A
        MOV     R0,#?V0 + 0
        LCALL   ?PUSH_XSTACK_I_ONE
        CFI CFA_XSP16 add(XSP16, 26)
        MOV     ?V0 + 0,#0x0
        MOV     R0,#?V0 + 0
        LCALL   ?PUSH_XSTACK_I_ONE
        CFI CFA_XSP16 add(XSP16, 27)
        MOV     ?V0 + 0,#0x1
        MOV     R0,#?V0 + 0
        LCALL   ?PUSH_XSTACK_I_ONE
        CFI CFA_XSP16 add(XSP16, 28)
        MOV     ?V0 + 0,#0x2
        MOV     R0,#?V0 + 0
        LCALL   ?PUSH_XSTACK_I_ONE
        CFI CFA_XSP16 add(XSP16, 29)
        LCALL   ?Subroutine83 & 0xFFFF
??CrossCallReturnLabel_308:
        LCALL   ?DEALLOC_XSTACK8
        CFI CFA_XSP16 add(XSP16, 18)
        MOV     A,R1
        MOV     R6,A
//  755 
//  756   osal_mem_free( buf );
        ; Setup parameters for call to function osal_mem_free
        MOV     R2,?V0 + 4
        MOV     R3,?V0 + 5
        LCALL   ??Subroutine148_0 & 0xFFFF
//  757 
//  758   return status;
??CrossCallReturnLabel_219:
        LJMP    ?Subroutine3 & 0xFFFF
        CFI EndBlock cfiBlock36
//  759 }
//  760 
//  761 /*********************************************************************
//  762  * @fn      zclSE_Pricing_Send_GetBlockPeriod
//  763  *
//  764  * @brief   Call to send out a Get Block Period
//  765  *
//  766  * @param   srcEP - Sending application's endpoint
//  767  * @param   dstAddr - where you want the message to go
//  768  * @param   pCmd - command payload
//  769  * @param   disableDefaultRsp - disable default response
//  770  * @param   seqNum - ZCL sequence number
//  771  *
//  772  * @return  ZStatus_t
//  773  */

        RSEG BANKED_CODE:CODE:NOROOT(0)
//  774 ZStatus_t zclSE_Pricing_Send_GetBlockPeriod( uint8 srcEP, afAddrType_t *dstAddr,
zclSE_Pricing_Send_GetBlockPeriod:
        CFI Block cfiBlock37 Using cfiCommon0
        CFI Function zclSE_Pricing_Send_GetBlockPeriod
        CODE
//  775                                              zclCCGetBlockPeriod_t *pCmd,
//  776                                              uint8 disableDefaultRsp, uint8 seqNum )
//  777 {
        FUNCALL zclSE_Pricing_Send_GetBlockPeriod, osal_buffer_uint32
        LOCFRAME ISTACK, 0, STACK
        LOCFRAME PSTACK, 0, STACK
        LOCFRAME XSTACK, 22, STACK
        LOCFRAME IOVERLAY, 0, STATIC
        LOCFRAME DOVERLAY, 0, STATIC
        ARGFRAME ISTACK, 0, STACK
        ARGFRAME PSTACK, 0, STACK
        ARGFRAME XSTACK, 22, STACK
        ARGFRAME IOVERLAY, 0, STATIC
        ARGFRAME DOVERLAY, 0, STATIC
        FUNCALL zclSE_Pricing_Send_GetBlockPeriod, zcl_SendCommand
        LOCFRAME ISTACK, 0, STACK
        LOCFRAME PSTACK, 0, STACK
        LOCFRAME XSTACK, 29, STACK
        LOCFRAME IOVERLAY, 0, STATIC
        LOCFRAME DOVERLAY, 0, STATIC
        ARGFRAME ISTACK, 0, STACK
        ARGFRAME PSTACK, 0, STACK
        ARGFRAME XSTACK, 29, STACK
        ARGFRAME IOVERLAY, 0, STATIC
        ARGFRAME DOVERLAY, 0, STATIC
        MOV     A,#-0xd
        LCALL   ?BANKED_ENTER_XDATA
        CFI DPH0 load(1, XDATA, add(CFA_XSP16, literal(-1)))
        CFI DPL0 load(1, XDATA, add(CFA_XSP16, literal(-2)))
        CFI ?BRET_EXT load(1, XDATA, add(CFA_XSP16, literal(-3)))
        CFI ?RET_HIGH load(1, XDATA, add(CFA_XSP16, literal(-4)))
        CFI ?RET_LOW load(1, XDATA, add(CFA_XSP16, literal(-5)))
        CFI R7 load(1, XDATA, add(CFA_XSP16, literal(-6)))
        CFI V4 load(1, XDATA, add(CFA_XSP16, literal(-7)))
        CFI V3 load(1, XDATA, add(CFA_XSP16, literal(-8)))
        CFI V2 load(1, XDATA, add(CFA_XSP16, literal(-9)))
        CFI V1 load(1, XDATA, add(CFA_XSP16, literal(-10)))
        CFI V0 load(1, XDATA, add(CFA_XSP16, literal(-11)))
        CFI VB load(1, XDATA, add(CFA_XSP16, literal(-12)))
        CFI R6 load(1, XDATA, add(CFA_XSP16, literal(-13)))
        CFI CFA_SP SP+0
        CFI CFA_XSP16 add(XSP16, 13)
        ; Saved register size: 13
        ; Auto size: 5
        MOV     A,#-0x5
        LCALL   ?ALLOC_XSTACK8
        CFI CFA_XSP16 add(XSP16, 18)
        MOV     ?V0 + 2,R1
        MOV     A,R2
        MOV     R6,A
        MOV     A,R3
        MOV     R7,A
        MOV     ?V0 + 0,R4
        MOV     ?V0 + 1,R5
        MOV     A,#0x12
        LCALL   ?XSTACK_DISP0_8
        LCALL   ?Subroutine39 & 0xFFFF
??CrossCallReturnLabel_46:
        LCALL   ?XSTACK_DISP0_8
        LCALL   ?Subroutine31 & 0xFFFF
//  778   uint8 buf[5];
//  779   ZStatus_t status;
//  780 
//  781   osal_buffer_uint32( buf, pCmd->startTime );
??CrossCallReturnLabel_31:
        LCALL   ?PUSH_XSTACK8_X_FOUR
        CFI CFA_XSP16 add(XSP16, 22)
        MOV     A,#0x4
        LCALL   ?XSTACK_DISP0_8
        LCALL   ?Subroutine81 & 0xFFFF
??CrossCallReturnLabel_263:
        LCALL   ?DEALLOC_XSTACK8
        CFI CFA_XSP16 add(XSP16, 18)
//  782   buf[4] = pCmd->numEvents;
        MOV     DPL,?V0 + 0
        MOV     DPH,?V0 + 1
        INC     DPTR
        INC     DPTR
        INC     DPTR
        INC     DPTR
        MOVX    A,@DPTR
        PUSH    A
        CFI CFA_SP SP+-1
        MOV     A,#0x4
        LCALL   ?XSTACK_DISP0_8
        POP     A
        CFI CFA_SP SP+0
        LCALL   ??Subroutine151_0 & 0xFFFF
//  783 
//  784   status = zcl_SendCommand( srcEP, dstAddr, ZCL_CLUSTER_ID_SE_PRICING,
//  785                             COMMAND_SE_GET_BLOCK_PERIOD, TRUE,
//  786                             ZCL_FRAME_CLIENT_SERVER_DIR, disableDefaultRsp, 0,
//  787                             seqNum, 5, buf );
//  788 
//  789   return status;
??CrossCallReturnLabel_237:
        LCALL   ?PUSH_XSTACK_I_TWO
        CFI CFA_XSP16 add(XSP16, 20)
        MOV     ?V0 + 0,#0x5
        MOV     ?V0 + 1,#0x0
        MOV     R0,#?V0 + 0
        LCALL   ?PUSH_XSTACK_I_TWO
        CFI CFA_XSP16 add(XSP16, 22)
        MOV     A,?V0 + 4
        MOV     ?V0 + 0,A
        MOV     R0,#?V0 + 0
        LCALL   ?PUSH_XSTACK_I_ONE
        CFI CFA_XSP16 add(XSP16, 23)
        CLR     A
        MOV     ?V0 + 0,A
        MOV     R0,#?V0 + 0
        LCALL   ?PUSH_XSTACK_I_TWO
        CFI CFA_XSP16 add(XSP16, 25)
        MOV     A,?V0 + 3
        MOV     ?V0 + 0,A
        MOV     R0,#?V0 + 0
        LCALL   ?PUSH_XSTACK_I_ONE
        CFI CFA_XSP16 add(XSP16, 26)
        MOV     ?V0 + 0,#0x0
        MOV     R0,#?V0 + 0
        LCALL   ?PUSH_XSTACK_I_ONE
        CFI CFA_XSP16 add(XSP16, 27)
        MOV     ?V0 + 0,#0x1
        MOV     R0,#?V0 + 0
        LCALL   ?PUSH_XSTACK_I_ONE
        CFI CFA_XSP16 add(XSP16, 28)
        MOV     ?V0 + 0,#0x3
        LJMP    ?Subroutine2 & 0xFFFF
        CFI EndBlock cfiBlock37
//  790 }
//  791 
//  792 /*********************************************************************
//  793  * @fn      zclSE_Pricing_Send_PublishBlockPeriod
//  794  *
//  795  * @brief   Call to send out a Publish Block Period
//  796  *
//  797  * @param   srcEP - Sending application's endpoint
//  798  * @param   dstAddr - where you want the message to go
//  799  * @param   pCmd - command payload
//  800  * @param   disableDefaultRsp - disable default response
//  801  * @param   seqNum - ZCL sequence number
//  802  *
//  803  * @return  ZStatus_t
//  804  */

        RSEG BANKED_CODE:CODE:NOROOT(0)
//  805 ZStatus_t zclSE_Pricing_Send_PublishBlockPeriod( uint8 srcEP, afAddrType_t *dstAddr,
zclSE_Pricing_Send_PublishBlockPeriod:
        CFI Block cfiBlock38 Using cfiCommon0
        CFI Function zclSE_Pricing_Send_PublishBlockPeriod
        CODE
//  806                                             zclCCPublishBlockPeriod_t *pCmd,
//  807                                             uint8 disableDefaultRsp, uint8 seqNum )
//  808 {
        FUNCALL zclSE_Pricing_Send_PublishBlockPeriod, osal_mem_alloc
        LOCFRAME ISTACK, 0, STACK
        LOCFRAME PSTACK, 0, STACK
        LOCFRAME XSTACK, 18, STACK
        LOCFRAME IOVERLAY, 0, STATIC
        LOCFRAME DOVERLAY, 0, STATIC
        ARGFRAME ISTACK, 0, STACK
        ARGFRAME PSTACK, 0, STACK
        ARGFRAME XSTACK, 18, STACK
        ARGFRAME IOVERLAY, 0, STATIC
        ARGFRAME DOVERLAY, 0, STATIC
        FUNCALL zclSE_Pricing_Send_PublishBlockPeriod, osal_buffer_uint32
        LOCFRAME ISTACK, 0, STACK
        LOCFRAME PSTACK, 0, STACK
        LOCFRAME XSTACK, 22, STACK
        LOCFRAME IOVERLAY, 0, STATIC
        LOCFRAME DOVERLAY, 0, STATIC
        ARGFRAME ISTACK, 0, STACK
        ARGFRAME PSTACK, 0, STACK
        ARGFRAME XSTACK, 22, STACK
        ARGFRAME IOVERLAY, 0, STATIC
        ARGFRAME DOVERLAY, 0, STATIC
        FUNCALL zclSE_Pricing_Send_PublishBlockPeriod, osal_buffer_uint32
        LOCFRAME ISTACK, 0, STACK
        LOCFRAME PSTACK, 0, STACK
        LOCFRAME XSTACK, 22, STACK
        LOCFRAME IOVERLAY, 0, STATIC
        LOCFRAME DOVERLAY, 0, STATIC
        ARGFRAME ISTACK, 0, STACK
        ARGFRAME PSTACK, 0, STACK
        ARGFRAME XSTACK, 22, STACK
        ARGFRAME IOVERLAY, 0, STATIC
        ARGFRAME DOVERLAY, 0, STATIC
        FUNCALL zclSE_Pricing_Send_PublishBlockPeriod, osal_buffer_uint32
        LOCFRAME ISTACK, 0, STACK
        LOCFRAME PSTACK, 0, STACK
        LOCFRAME XSTACK, 22, STACK
        LOCFRAME IOVERLAY, 0, STATIC
        LOCFRAME DOVERLAY, 0, STATIC
        ARGFRAME ISTACK, 0, STACK
        ARGFRAME PSTACK, 0, STACK
        ARGFRAME XSTACK, 22, STACK
        ARGFRAME IOVERLAY, 0, STATIC
        ARGFRAME DOVERLAY, 0, STATIC
        FUNCALL zclSE_Pricing_Send_PublishBlockPeriod, osal_buffer_uint24
        LOCFRAME ISTACK, 0, STACK
        LOCFRAME PSTACK, 0, STACK
        LOCFRAME XSTACK, 22, STACK
        LOCFRAME IOVERLAY, 0, STATIC
        LOCFRAME DOVERLAY, 0, STATIC
        ARGFRAME ISTACK, 0, STACK
        ARGFRAME PSTACK, 0, STACK
        ARGFRAME XSTACK, 22, STACK
        ARGFRAME IOVERLAY, 0, STATIC
        ARGFRAME DOVERLAY, 0, STATIC
        FUNCALL zclSE_Pricing_Send_PublishBlockPeriod, zcl_SendCommand
        LOCFRAME ISTACK, 0, STACK
        LOCFRAME PSTACK, 0, STACK
        LOCFRAME XSTACK, 29, STACK
        LOCFRAME IOVERLAY, 0, STATIC
        LOCFRAME DOVERLAY, 0, STATIC
        ARGFRAME ISTACK, 0, STACK
        ARGFRAME PSTACK, 0, STACK
        ARGFRAME XSTACK, 29, STACK
        ARGFRAME IOVERLAY, 0, STATIC
        ARGFRAME DOVERLAY, 0, STATIC
        FUNCALL zclSE_Pricing_Send_PublishBlockPeriod, osal_mem_free
        LOCFRAME ISTACK, 0, STACK
        LOCFRAME PSTACK, 0, STACK
        LOCFRAME XSTACK, 18, STACK
        LOCFRAME IOVERLAY, 0, STATIC
        LOCFRAME DOVERLAY, 0, STATIC
        ARGFRAME ISTACK, 0, STACK
        ARGFRAME PSTACK, 0, STACK
        ARGFRAME XSTACK, 18, STACK
        ARGFRAME IOVERLAY, 0, STATIC
        ARGFRAME DOVERLAY, 0, STATIC
        MOV     A,#-0x12
        LCALL   ?BANKED_ENTER_XDATA
        CFI DPH0 load(1, XDATA, add(CFA_XSP16, literal(-1)))
        CFI DPL0 load(1, XDATA, add(CFA_XSP16, literal(-2)))
        CFI ?BRET_EXT load(1, XDATA, add(CFA_XSP16, literal(-3)))
        CFI ?RET_HIGH load(1, XDATA, add(CFA_XSP16, literal(-4)))
        CFI ?RET_LOW load(1, XDATA, add(CFA_XSP16, literal(-5)))
        CFI R7 load(1, XDATA, add(CFA_XSP16, literal(-6)))
        CFI V9 load(1, XDATA, add(CFA_XSP16, literal(-7)))
        CFI V8 load(1, XDATA, add(CFA_XSP16, literal(-8)))
        CFI V7 load(1, XDATA, add(CFA_XSP16, literal(-9)))
        CFI V6 load(1, XDATA, add(CFA_XSP16, literal(-10)))
        CFI V5 load(1, XDATA, add(CFA_XSP16, literal(-11)))
        CFI V4 load(1, XDATA, add(CFA_XSP16, literal(-12)))
        CFI V3 load(1, XDATA, add(CFA_XSP16, literal(-13)))
        CFI V2 load(1, XDATA, add(CFA_XSP16, literal(-14)))
        CFI V1 load(1, XDATA, add(CFA_XSP16, literal(-15)))
        CFI V0 load(1, XDATA, add(CFA_XSP16, literal(-16)))
        CFI VB load(1, XDATA, add(CFA_XSP16, literal(-17)))
        CFI R6 load(1, XDATA, add(CFA_XSP16, literal(-18)))
        CFI CFA_SP SP+0
        CFI CFA_XSP16 add(XSP16, 18)
        ; Saved register size: 18
        ; Auto size: 0
        MOV     ?V0 + 2,R1
        MOV     A,R2
        MOV     R6,A
        MOV     A,R3
        MOV     R7,A
        MOV     ?V0 + 0,R4
        MOV     ?V0 + 1,R5
        MOV     A,#0x12
        LCALL   ?XSTACK_DISP0_8
        LCALL   ?Subroutine39 & 0xFFFF
??CrossCallReturnLabel_47:
        LCALL   ?XSTACK_DISP0_8
        MOVX    A,@DPTR
        MOV     ?V0 + 6,A
//  809   uint8 *buf;
//  810   uint8 *pBuf;
//  811   uint16 bufLen;
//  812   ZStatus_t status;
//  813 
//  814   bufLen = PACKET_LEN_SE_PUBLISH_BLOCK_PERIOD;
//  815   buf = osal_mem_alloc( bufLen );
        ; Setup parameters for call to function osal_mem_alloc
        MOV     R2,#0x11
        LCALL   ?Subroutine84 & 0xFFFF
//  816   if ( buf == NULL )
??CrossCallReturnLabel_132:
        JNZ     ??zclSE_Pricing_Send_PublishBlockPeriod_0
//  817   {
//  818     return ( ZMemError );
        MOV     R1,#0x10
        LJMP    ??CrossCallReturnLabel_220 & 0xFFFF
//  819   }
//  820 
//  821   pBuf = osal_buffer_uint32( buf, pCmd->providerId );
??zclSE_Pricing_Send_PublishBlockPeriod_0:
        ; Setup parameters for call to function osal_buffer_uint32
        MOV     DPL,?V0 + 0
        MOV     DPH,?V0 + 1
        LCALL   ?PUSH_XSTACK8_X_FOUR
        CFI CFA_XSP16 add(XSP16, 22)
        LCALL   ??Subroutine156_0 & 0xFFFF
??CrossCallReturnLabel_278:
        LCALL   ?DEALLOC_XSTACK8
        CFI CFA_XSP16 add(XSP16, 18)
//  822   pBuf = osal_buffer_uint32( pBuf, pCmd->issuerEventId );
        ; Setup parameters for call to function osal_buffer_uint32
        MOV     DPL,?V0 + 0
        MOV     DPH,?V0 + 1
        INC     DPTR
        INC     DPTR
        INC     DPTR
        INC     DPTR
        LCALL   ?PUSH_XSTACK8_X_FOUR
        CFI CFA_XSP16 add(XSP16, 22)
        LCALL   ??Subroutine156_0 & 0xFFFF
??CrossCallReturnLabel_279:
        LCALL   ?DEALLOC_XSTACK8
        CFI CFA_XSP16 add(XSP16, 18)
//  823   pBuf = osal_buffer_uint32( pBuf, pCmd->blockPeriodStartTime );
        ; Setup parameters for call to function osal_buffer_uint32
        MOV     DPL,?V0 + 0
        MOV     DPH,?V0 + 1
        INC     DPTR
        INC     DPTR
        INC     DPTR
        INC     DPTR
        INC     DPTR
        INC     DPTR
        INC     DPTR
        INC     DPTR
        LCALL   ?PUSH_XSTACK8_X_FOUR
        CFI CFA_XSP16 add(XSP16, 22)
        LCALL   ??Subroutine156_0 & 0xFFFF
??CrossCallReturnLabel_280:
        LCALL   ?DEALLOC_XSTACK8
        CFI CFA_XSP16 add(XSP16, 18)
//  824   pBuf = osal_buffer_uint24( pBuf, pCmd->blockPeriodDurInMins );
        ; Setup parameters for call to function osal_buffer_uint24
        MOV     A,?V0 + 0
        ADD     A,#0xc
        LCALL   ??Subroutine192_0 & 0xFFFF
??CrossCallReturnLabel_522:
        LCALL   ?PUSH_XSTACK8_X_FOUR
        CFI CFA_XSP16 add(XSP16, 22)
        LCALL   ?Subroutine96 & 0xFFFF
??CrossCallReturnLabel_152:
        LCALL   ?DEALLOC_XSTACK8
        CFI CFA_XSP16 add(XSP16, 18)
//  825   *pBuf++ = pCmd->numPriceTiersAndBlock;
        LCALL   ?Subroutine93 & 0xFFFF
??CrossCallReturnLabel_549:
        LCALL   ??Subroutine154_0 & 0xFFFF
//  826 #ifdef SE_UK_EXT
//  827   *pBuf++ = pCmd->tariffType;
//  828 #endif
//  829   *pBuf = pCmd->blockPeriodControl;
??CrossCallReturnLabel_242:
        MOV     A,?V0 + 0
        ADD     A,#0x12
        MOV     DPL,A
        MOV     A,?V0 + 1
        LCALL   ?Subroutine91 & 0xFFFF
//  830 
//  831   status = zcl_SendCommand( srcEP, dstAddr, ZCL_CLUSTER_ID_SE_PRICING,
//  832                             COMMAND_SE_PUBLISH_BLOCK_PERIOD, TRUE,
//  833                             ZCL_FRAME_SERVER_CLIENT_DIR, disableDefaultRsp, 0,
//  834                             seqNum, bufLen, buf );
??CrossCallReturnLabel_146:
        ; Setup parameters for call to function zcl_SendCommand
        MOV     R0,#?V0 + 4
        LCALL   ?PUSH_XSTACK_I_TWO
        CFI CFA_XSP16 add(XSP16, 20)
        MOV     ?V0 + 0,#0x11
        MOV     ?V0 + 1,#0x0
        MOV     R0,#?V0 + 0
        LCALL   ?PUSH_XSTACK_I_TWO
        CFI CFA_XSP16 add(XSP16, 22)
        MOV     A,?V0 + 6
        MOV     ?V0 + 0,A
        MOV     R0,#?V0 + 0
        LCALL   ?PUSH_XSTACK_I_ONE
        CFI CFA_XSP16 add(XSP16, 23)
        CLR     A
        MOV     ?V0 + 0,A
        MOV     R0,#?V0 + 0
        LCALL   ?PUSH_XSTACK_I_TWO
        CFI CFA_XSP16 add(XSP16, 25)
        MOV     A,?V0 + 3
        MOV     ?V0 + 0,A
        MOV     R0,#?V0 + 0
        LCALL   ?PUSH_XSTACK_I_ONE
        CFI CFA_XSP16 add(XSP16, 26)
        MOV     ?V0 + 0,#0x1
        MOV     R0,#?V0 + 0
        LCALL   ?PUSH_XSTACK_I_ONE
        CFI CFA_XSP16 add(XSP16, 27)
        MOV     R0,#?V0 + 0
        LCALL   ?PUSH_XSTACK_I_ONE
        CFI CFA_XSP16 add(XSP16, 28)
        MOV     R0,#?V0 + 0
        LCALL   ?PUSH_XSTACK_I_ONE
        CFI CFA_XSP16 add(XSP16, 29)
        LCALL   ?Subroutine83 & 0xFFFF
??CrossCallReturnLabel_309:
        LCALL   ?DEALLOC_XSTACK8
        CFI CFA_XSP16 add(XSP16, 18)
        MOV     A,R1
        MOV     R6,A
//  835 
//  836   osal_mem_free( buf );
        ; Setup parameters for call to function osal_mem_free
        MOV     R2,?V0 + 4
        MOV     R3,?V0 + 5
        LCALL   ??Subroutine148_0 & 0xFFFF
//  837 
//  838   return status;
??CrossCallReturnLabel_220:
        LJMP    ?Subroutine3 & 0xFFFF
        CFI EndBlock cfiBlock38
//  839 }

        RSEG BANKED_CODE:CODE:NOROOT(0)
?Subroutine84:
        CFI Block cfiCond39 Using cfiCommon0
        CFI NoFunction
        CFI Conditional ??CrossCallReturnLabel_131
        CFI R6 load(1, XDATA, add(CFA_XSP16, literal(-18)))
        CFI VB load(1, XDATA, add(CFA_XSP16, literal(-17)))
        CFI V0 load(1, XDATA, add(CFA_XSP16, literal(-16)))
        CFI V1 load(1, XDATA, add(CFA_XSP16, literal(-15)))
        CFI V2 load(1, XDATA, add(CFA_XSP16, literal(-14)))
        CFI V3 load(1, XDATA, add(CFA_XSP16, literal(-13)))
        CFI V4 load(1, XDATA, add(CFA_XSP16, literal(-12)))
        CFI V5 load(1, XDATA, add(CFA_XSP16, literal(-11)))
        CFI V6 load(1, XDATA, add(CFA_XSP16, literal(-10)))
        CFI V7 load(1, XDATA, add(CFA_XSP16, literal(-9)))
        CFI V8 load(1, XDATA, add(CFA_XSP16, literal(-8)))
        CFI V9 load(1, XDATA, add(CFA_XSP16, literal(-7)))
        CFI R7 load(1, XDATA, add(CFA_XSP16, literal(-6)))
        CFI ?RET_LOW load(1, XDATA, add(CFA_XSP16, literal(-5)))
        CFI ?RET_HIGH load(1, XDATA, add(CFA_XSP16, literal(-4)))
        CFI ?BRET_EXT load(1, XDATA, add(CFA_XSP16, literal(-3)))
        CFI DPL0 load(1, XDATA, add(CFA_XSP16, literal(-2)))
        CFI DPH0 load(1, XDATA, add(CFA_XSP16, literal(-1)))
        CFI CFA_SP SP+0
        CFI CFA_XSP16 add(XSP16, 18)
        CFI Block cfiCond40 Using cfiCommon0
        CFI (cfiCond40) NoFunction
        CFI (cfiCond40) Conditional ??CrossCallReturnLabel_132
        CFI (cfiCond40) R6 load(1, XDATA, add(CFA_XSP16, literal(-18)))
        CFI (cfiCond40) VB load(1, XDATA, add(CFA_XSP16, literal(-17)))
        CFI (cfiCond40) V0 load(1, XDATA, add(CFA_XSP16, literal(-16)))
        CFI (cfiCond40) V1 load(1, XDATA, add(CFA_XSP16, literal(-15)))
        CFI (cfiCond40) V2 load(1, XDATA, add(CFA_XSP16, literal(-14)))
        CFI (cfiCond40) V3 load(1, XDATA, add(CFA_XSP16, literal(-13)))
        CFI (cfiCond40) V4 load(1, XDATA, add(CFA_XSP16, literal(-12)))
        CFI (cfiCond40) V5 load(1, XDATA, add(CFA_XSP16, literal(-11)))
        CFI (cfiCond40) V6 load(1, XDATA, add(CFA_XSP16, literal(-10)))
        CFI (cfiCond40) V7 load(1, XDATA, add(CFA_XSP16, literal(-9)))
        CFI (cfiCond40) V8 load(1, XDATA, add(CFA_XSP16, literal(-8)))
        CFI (cfiCond40) V9 load(1, XDATA, add(CFA_XSP16, literal(-7)))
        CFI (cfiCond40) R7 load(1, XDATA, add(CFA_XSP16, literal(-6)))
        CFI (cfiCond40) ?RET_LOW load(1, XDATA, add(CFA_XSP16, literal(-5)))
        CFI (cfiCond40) ?RET_HIGH load(1, XDATA, add(CFA_XSP16, literal(-4)))
        CFI (cfiCond40) ?BRET_EXT load(1, XDATA, add(CFA_XSP16, literal(-3)))
        CFI (cfiCond40) DPL0 load(1, XDATA, add(CFA_XSP16, literal(-2)))
        CFI (cfiCond40) DPH0 load(1, XDATA, add(CFA_XSP16, literal(-1)))
        CFI (cfiCond40) CFA_SP SP+0
        CFI (cfiCond40) CFA_XSP16 add(XSP16, 18)
        CFI Block cfiCond41 Using cfiCommon0
        CFI (cfiCond41) NoFunction
        CFI (cfiCond41) Conditional ??CrossCallReturnLabel_133
        CFI (cfiCond41) R6 load(1, XDATA, add(CFA_XSP16, literal(-18)))
        CFI (cfiCond41) VB load(1, XDATA, add(CFA_XSP16, literal(-17)))
        CFI (cfiCond41) V0 load(1, XDATA, add(CFA_XSP16, literal(-16)))
        CFI (cfiCond41) V1 load(1, XDATA, add(CFA_XSP16, literal(-15)))
        CFI (cfiCond41) V2 load(1, XDATA, add(CFA_XSP16, literal(-14)))
        CFI (cfiCond41) V3 load(1, XDATA, add(CFA_XSP16, literal(-13)))
        CFI (cfiCond41) V4 load(1, XDATA, add(CFA_XSP16, literal(-12)))
        CFI (cfiCond41) V5 load(1, XDATA, add(CFA_XSP16, literal(-11)))
        CFI (cfiCond41) V6 load(1, XDATA, add(CFA_XSP16, literal(-10)))
        CFI (cfiCond41) V7 load(1, XDATA, add(CFA_XSP16, literal(-9)))
        CFI (cfiCond41) V8 load(1, XDATA, add(CFA_XSP16, literal(-8)))
        CFI (cfiCond41) V9 load(1, XDATA, add(CFA_XSP16, literal(-7)))
        CFI (cfiCond41) R7 load(1, XDATA, add(CFA_XSP16, literal(-6)))
        CFI (cfiCond41) ?RET_LOW load(1, XDATA, add(CFA_XSP16, literal(-5)))
        CFI (cfiCond41) ?RET_HIGH load(1, XDATA, add(CFA_XSP16, literal(-4)))
        CFI (cfiCond41) ?BRET_EXT load(1, XDATA, add(CFA_XSP16, literal(-3)))
        CFI (cfiCond41) DPL0 load(1, XDATA, add(CFA_XSP16, literal(-2)))
        CFI (cfiCond41) DPH0 load(1, XDATA, add(CFA_XSP16, literal(-1)))
        CFI (cfiCond41) CFA_SP SP+0
        CFI (cfiCond41) CFA_XSP16 add(XSP16, 18)
        CFI Block cfiPicker42 Using cfiCommon1
        CFI (cfiPicker42) NoFunction
        CFI (cfiPicker42) Picker
        MOV     R3,#0x0
        LCALL   ??osal_mem_alloc?relay
        MOV     ?V0 + 4,R2
        MOV     ?V0 + 5,R3
        MOV     A,R2
        ORL     A,?V0 + 5
        RET
        CFI EndBlock cfiCond39
        CFI EndBlock cfiCond40
        CFI EndBlock cfiCond41
        CFI EndBlock cfiPicker42

        RSEG BANKED_CODE:CODE:NOROOT(0)
?Subroutine39:
        CFI Block cfiCond43 Using cfiCommon0
        CFI NoFunction
        CFI Conditional ??CrossCallReturnLabel_43
        CFI R6 load(1, XDATA, add(CFA_XSP16, literal(-13)))
        CFI VB load(1, XDATA, add(CFA_XSP16, literal(-12)))
        CFI V0 load(1, XDATA, add(CFA_XSP16, literal(-11)))
        CFI V1 load(1, XDATA, add(CFA_XSP16, literal(-10)))
        CFI V2 load(1, XDATA, add(CFA_XSP16, literal(-9)))
        CFI V3 load(1, XDATA, add(CFA_XSP16, literal(-8)))
        CFI V4 load(1, XDATA, add(CFA_XSP16, literal(-7)))
        CFI R7 load(1, XDATA, add(CFA_XSP16, literal(-6)))
        CFI ?RET_LOW load(1, XDATA, add(CFA_XSP16, literal(-5)))
        CFI ?RET_HIGH load(1, XDATA, add(CFA_XSP16, literal(-4)))
        CFI ?BRET_EXT load(1, XDATA, add(CFA_XSP16, literal(-3)))
        CFI DPL0 load(1, XDATA, add(CFA_XSP16, literal(-2)))
        CFI DPH0 load(1, XDATA, add(CFA_XSP16, literal(-1)))
        CFI CFA_SP SP+0
        CFI CFA_XSP16 add(XSP16, 18)
        CFI Block cfiCond44 Using cfiCommon0
        CFI (cfiCond44) NoFunction
        CFI (cfiCond44) Conditional ??CrossCallReturnLabel_44
        CFI (cfiCond44) R6 load(1, XDATA, add(CFA_XSP16, literal(-13)))
        CFI (cfiCond44) VB load(1, XDATA, add(CFA_XSP16, literal(-12)))
        CFI (cfiCond44) V0 load(1, XDATA, add(CFA_XSP16, literal(-11)))
        CFI (cfiCond44) V1 load(1, XDATA, add(CFA_XSP16, literal(-10)))
        CFI (cfiCond44) V2 load(1, XDATA, add(CFA_XSP16, literal(-9)))
        CFI (cfiCond44) V3 load(1, XDATA, add(CFA_XSP16, literal(-8)))
        CFI (cfiCond44) V4 load(1, XDATA, add(CFA_XSP16, literal(-7)))
        CFI (cfiCond44) R7 load(1, XDATA, add(CFA_XSP16, literal(-6)))
        CFI (cfiCond44) ?RET_LOW load(1, XDATA, add(CFA_XSP16, literal(-5)))
        CFI (cfiCond44) ?RET_HIGH load(1, XDATA, add(CFA_XSP16, literal(-4)))
        CFI (cfiCond44) ?BRET_EXT load(1, XDATA, add(CFA_XSP16, literal(-3)))
        CFI (cfiCond44) DPL0 load(1, XDATA, add(CFA_XSP16, literal(-2)))
        CFI (cfiCond44) DPH0 load(1, XDATA, add(CFA_XSP16, literal(-1)))
        CFI (cfiCond44) CFA_SP SP+0
        CFI (cfiCond44) CFA_XSP16 add(XSP16, 18)
        CFI Block cfiCond45 Using cfiCommon0
        CFI (cfiCond45) NoFunction
        CFI (cfiCond45) Conditional ??CrossCallReturnLabel_45
        CFI (cfiCond45) R6 load(1, XDATA, add(CFA_XSP16, literal(-18)))
        CFI (cfiCond45) VB load(1, XDATA, add(CFA_XSP16, literal(-17)))
        CFI (cfiCond45) V0 load(1, XDATA, add(CFA_XSP16, literal(-16)))
        CFI (cfiCond45) V1 load(1, XDATA, add(CFA_XSP16, literal(-15)))
        CFI (cfiCond45) V2 load(1, XDATA, add(CFA_XSP16, literal(-14)))
        CFI (cfiCond45) V3 load(1, XDATA, add(CFA_XSP16, literal(-13)))
        CFI (cfiCond45) V4 load(1, XDATA, add(CFA_XSP16, literal(-12)))
        CFI (cfiCond45) V5 load(1, XDATA, add(CFA_XSP16, literal(-11)))
        CFI (cfiCond45) V6 load(1, XDATA, add(CFA_XSP16, literal(-10)))
        CFI (cfiCond45) V7 load(1, XDATA, add(CFA_XSP16, literal(-9)))
        CFI (cfiCond45) V8 load(1, XDATA, add(CFA_XSP16, literal(-8)))
        CFI (cfiCond45) V9 load(1, XDATA, add(CFA_XSP16, literal(-7)))
        CFI (cfiCond45) R7 load(1, XDATA, add(CFA_XSP16, literal(-6)))
        CFI (cfiCond45) ?RET_LOW load(1, XDATA, add(CFA_XSP16, literal(-5)))
        CFI (cfiCond45) ?RET_HIGH load(1, XDATA, add(CFA_XSP16, literal(-4)))
        CFI (cfiCond45) ?BRET_EXT load(1, XDATA, add(CFA_XSP16, literal(-3)))
        CFI (cfiCond45) DPL0 load(1, XDATA, add(CFA_XSP16, literal(-2)))
        CFI (cfiCond45) DPH0 load(1, XDATA, add(CFA_XSP16, literal(-1)))
        CFI (cfiCond45) CFA_SP SP+0
        CFI (cfiCond45) CFA_XSP16 add(XSP16, 18)
        CFI Block cfiCond46 Using cfiCommon0
        CFI (cfiCond46) NoFunction
        CFI (cfiCond46) Conditional ??CrossCallReturnLabel_46
        CFI (cfiCond46) R6 load(1, XDATA, add(CFA_XSP16, literal(-13)))
        CFI (cfiCond46) VB load(1, XDATA, add(CFA_XSP16, literal(-12)))
        CFI (cfiCond46) V0 load(1, XDATA, add(CFA_XSP16, literal(-11)))
        CFI (cfiCond46) V1 load(1, XDATA, add(CFA_XSP16, literal(-10)))
        CFI (cfiCond46) V2 load(1, XDATA, add(CFA_XSP16, literal(-9)))
        CFI (cfiCond46) V3 load(1, XDATA, add(CFA_XSP16, literal(-8)))
        CFI (cfiCond46) V4 load(1, XDATA, add(CFA_XSP16, literal(-7)))
        CFI (cfiCond46) R7 load(1, XDATA, add(CFA_XSP16, literal(-6)))
        CFI (cfiCond46) ?RET_LOW load(1, XDATA, add(CFA_XSP16, literal(-5)))
        CFI (cfiCond46) ?RET_HIGH load(1, XDATA, add(CFA_XSP16, literal(-4)))
        CFI (cfiCond46) ?BRET_EXT load(1, XDATA, add(CFA_XSP16, literal(-3)))
        CFI (cfiCond46) DPL0 load(1, XDATA, add(CFA_XSP16, literal(-2)))
        CFI (cfiCond46) DPH0 load(1, XDATA, add(CFA_XSP16, literal(-1)))
        CFI (cfiCond46) CFA_SP SP+0
        CFI (cfiCond46) CFA_XSP16 add(XSP16, 18)
        CFI Block cfiCond47 Using cfiCommon0
        CFI (cfiCond47) NoFunction
        CFI (cfiCond47) Conditional ??CrossCallReturnLabel_47
        CFI (cfiCond47) R6 load(1, XDATA, add(CFA_XSP16, literal(-18)))
        CFI (cfiCond47) VB load(1, XDATA, add(CFA_XSP16, literal(-17)))
        CFI (cfiCond47) V0 load(1, XDATA, add(CFA_XSP16, literal(-16)))
        CFI (cfiCond47) V1 load(1, XDATA, add(CFA_XSP16, literal(-15)))
        CFI (cfiCond47) V2 load(1, XDATA, add(CFA_XSP16, literal(-14)))
        CFI (cfiCond47) V3 load(1, XDATA, add(CFA_XSP16, literal(-13)))
        CFI (cfiCond47) V4 load(1, XDATA, add(CFA_XSP16, literal(-12)))
        CFI (cfiCond47) V5 load(1, XDATA, add(CFA_XSP16, literal(-11)))
        CFI (cfiCond47) V6 load(1, XDATA, add(CFA_XSP16, literal(-10)))
        CFI (cfiCond47) V7 load(1, XDATA, add(CFA_XSP16, literal(-9)))
        CFI (cfiCond47) V8 load(1, XDATA, add(CFA_XSP16, literal(-8)))
        CFI (cfiCond47) V9 load(1, XDATA, add(CFA_XSP16, literal(-7)))
        CFI (cfiCond47) R7 load(1, XDATA, add(CFA_XSP16, literal(-6)))
        CFI (cfiCond47) ?RET_LOW load(1, XDATA, add(CFA_XSP16, literal(-5)))
        CFI (cfiCond47) ?RET_HIGH load(1, XDATA, add(CFA_XSP16, literal(-4)))
        CFI (cfiCond47) ?BRET_EXT load(1, XDATA, add(CFA_XSP16, literal(-3)))
        CFI (cfiCond47) DPL0 load(1, XDATA, add(CFA_XSP16, literal(-2)))
        CFI (cfiCond47) DPH0 load(1, XDATA, add(CFA_XSP16, literal(-1)))
        CFI (cfiCond47) CFA_SP SP+0
        CFI (cfiCond47) CFA_XSP16 add(XSP16, 18)
        CFI Block cfiCond48 Using cfiCommon0
        CFI (cfiCond48) NoFunction
        CFI (cfiCond48) Conditional ??CrossCallReturnLabel_48
        CFI (cfiCond48) R6 load(1, XDATA, add(CFA_XSP16, literal(-13)))
        CFI (cfiCond48) VB load(1, XDATA, add(CFA_XSP16, literal(-12)))
        CFI (cfiCond48) V0 load(1, XDATA, add(CFA_XSP16, literal(-11)))
        CFI (cfiCond48) V1 load(1, XDATA, add(CFA_XSP16, literal(-10)))
        CFI (cfiCond48) V2 load(1, XDATA, add(CFA_XSP16, literal(-9)))
        CFI (cfiCond48) V3 load(1, XDATA, add(CFA_XSP16, literal(-8)))
        CFI (cfiCond48) V4 load(1, XDATA, add(CFA_XSP16, literal(-7)))
        CFI (cfiCond48) R7 load(1, XDATA, add(CFA_XSP16, literal(-6)))
        CFI (cfiCond48) ?RET_LOW load(1, XDATA, add(CFA_XSP16, literal(-5)))
        CFI (cfiCond48) ?RET_HIGH load(1, XDATA, add(CFA_XSP16, literal(-4)))
        CFI (cfiCond48) ?BRET_EXT load(1, XDATA, add(CFA_XSP16, literal(-3)))
        CFI (cfiCond48) DPL0 load(1, XDATA, add(CFA_XSP16, literal(-2)))
        CFI (cfiCond48) DPH0 load(1, XDATA, add(CFA_XSP16, literal(-1)))
        CFI (cfiCond48) CFA_SP SP+0
        CFI (cfiCond48) CFA_XSP16 add(XSP16, 18)
        CFI Block cfiCond49 Using cfiCommon0
        CFI (cfiCond49) NoFunction
        CFI (cfiCond49) Conditional ??CrossCallReturnLabel_49
        CFI (cfiCond49) R6 load(1, XDATA, add(CFA_XSP16, literal(-18)))
        CFI (cfiCond49) VB load(1, XDATA, add(CFA_XSP16, literal(-17)))
        CFI (cfiCond49) V0 load(1, XDATA, add(CFA_XSP16, literal(-16)))
        CFI (cfiCond49) V1 load(1, XDATA, add(CFA_XSP16, literal(-15)))
        CFI (cfiCond49) V2 load(1, XDATA, add(CFA_XSP16, literal(-14)))
        CFI (cfiCond49) V3 load(1, XDATA, add(CFA_XSP16, literal(-13)))
        CFI (cfiCond49) V4 load(1, XDATA, add(CFA_XSP16, literal(-12)))
        CFI (cfiCond49) V5 load(1, XDATA, add(CFA_XSP16, literal(-11)))
        CFI (cfiCond49) V6 load(1, XDATA, add(CFA_XSP16, literal(-10)))
        CFI (cfiCond49) V7 load(1, XDATA, add(CFA_XSP16, literal(-9)))
        CFI (cfiCond49) V8 load(1, XDATA, add(CFA_XSP16, literal(-8)))
        CFI (cfiCond49) V9 load(1, XDATA, add(CFA_XSP16, literal(-7)))
        CFI (cfiCond49) R7 load(1, XDATA, add(CFA_XSP16, literal(-6)))
        CFI (cfiCond49) ?RET_LOW load(1, XDATA, add(CFA_XSP16, literal(-5)))
        CFI (cfiCond49) ?RET_HIGH load(1, XDATA, add(CFA_XSP16, literal(-4)))
        CFI (cfiCond49) ?BRET_EXT load(1, XDATA, add(CFA_XSP16, literal(-3)))
        CFI (cfiCond49) DPL0 load(1, XDATA, add(CFA_XSP16, literal(-2)))
        CFI (cfiCond49) DPH0 load(1, XDATA, add(CFA_XSP16, literal(-1)))
        CFI (cfiCond49) CFA_SP SP+0
        CFI (cfiCond49) CFA_XSP16 add(XSP16, 18)
        CFI Block cfiCond50 Using cfiCommon0
        CFI (cfiCond50) NoFunction
        CFI (cfiCond50) Conditional ??CrossCallReturnLabel_50
        CFI (cfiCond50) R6 load(1, XDATA, add(CFA_XSP16, literal(-13)))
        CFI (cfiCond50) VB load(1, XDATA, add(CFA_XSP16, literal(-12)))
        CFI (cfiCond50) V0 load(1, XDATA, add(CFA_XSP16, literal(-11)))
        CFI (cfiCond50) V1 load(1, XDATA, add(CFA_XSP16, literal(-10)))
        CFI (cfiCond50) V2 load(1, XDATA, add(CFA_XSP16, literal(-9)))
        CFI (cfiCond50) V3 load(1, XDATA, add(CFA_XSP16, literal(-8)))
        CFI (cfiCond50) V4 load(1, XDATA, add(CFA_XSP16, literal(-7)))
        CFI (cfiCond50) R7 load(1, XDATA, add(CFA_XSP16, literal(-6)))
        CFI (cfiCond50) ?RET_LOW load(1, XDATA, add(CFA_XSP16, literal(-5)))
        CFI (cfiCond50) ?RET_HIGH load(1, XDATA, add(CFA_XSP16, literal(-4)))
        CFI (cfiCond50) ?BRET_EXT load(1, XDATA, add(CFA_XSP16, literal(-3)))
        CFI (cfiCond50) DPL0 load(1, XDATA, add(CFA_XSP16, literal(-2)))
        CFI (cfiCond50) DPH0 load(1, XDATA, add(CFA_XSP16, literal(-1)))
        CFI (cfiCond50) CFA_SP SP+0
        CFI (cfiCond50) CFA_XSP16 add(XSP16, 18)
        CFI Block cfiPicker51 Using cfiCommon1
        CFI (cfiPicker51) NoFunction
        CFI (cfiPicker51) Picker
        MOVX    A,@DPTR
        MOV     ?V0 + 3,A
        MOV     A,#0x13
        RET
        CFI EndBlock cfiCond43
        CFI EndBlock cfiCond44
        CFI EndBlock cfiCond45
        CFI EndBlock cfiCond46
        CFI EndBlock cfiCond47
        CFI EndBlock cfiCond48
        CFI EndBlock cfiCond49
        CFI EndBlock cfiCond50
        CFI EndBlock cfiPicker51
//  840 
//  841 #ifdef SE_UK_EXT
//  842 /*********************************************************************
//  843  * @fn      zclSE_Pricing_Send_PublishTariffInformation
//  844  *
//  845  * @brief   Call to send out a Publish Tariff Information
//  846  *
//  847  * @param   srcEP - Sending application's endpoint
//  848  * @param   dstAddr - where you want the message to go
//  849  * @param   pCmd - command payload
//  850  * @param   disableDefaultRsp - disable default response
//  851  * @param   seqNum - ZCL sequence number
//  852  *
//  853  * @return  ZStatus_t
//  854  */
//  855 ZStatus_t zclSE_Pricing_Send_PublishTariffInformation( uint8 srcEP, afAddrType_t *dstAddr,
//  856                                             zclCCPublishTariffInformation_t *pCmd,
//  857                                             uint8 disableDefaultRsp, uint8 seqNum )
//  858 {
//  859   uint8 *buf;
//  860   uint8 *pBuf;
//  861   uint16 bufLen;
//  862   ZStatus_t status;
//  863 
//  864   bufLen = PACKET_LEN_SE_MIN_PUBLISH_TARIFF_INFORMATION + pCmd->tarifLabel.strLen;
//  865   buf = osal_mem_alloc( bufLen );
//  866   if ( buf == NULL )
//  867   {
//  868     return ( ZMemError );
//  869   }
//  870 
//  871   pBuf = osal_buffer_uint32( buf, pCmd->supplierId );
//  872   pBuf = osal_buffer_uint32( pBuf, pCmd->issuerTariffId );
//  873   pBuf = osal_buffer_uint32( pBuf, pCmd->startTime );
//  874   *pBuf++ = pCmd->tariffType;
//  875   *pBuf++ = pCmd->tarifLabel.strLen;
//  876   pBuf = osal_memcpy( pBuf, pCmd->tarifLabel.pStr, pCmd->tarifLabel.strLen );
//  877   *pBuf++ = pCmd->numPriceTiersInUse;
//  878   *pBuf++ = pCmd->numBlockThresholdsInUse;
//  879   *pBuf++ = pCmd->unitOfMeasure;
//  880   *pBuf++ = LO_UINT16( pCmd->currency );
//  881   *pBuf++ = HI_UINT16( pCmd->currency );
//  882   *pBuf++ = pCmd->priceTrailingDigit;
//  883   pBuf = osal_buffer_uint32( pBuf, pCmd->standingCharge );
//  884   *pBuf++ = pCmd->tierBlockMode;
//  885   *pBuf++ = LO_UINT16( pCmd->blockThresholdMask );
//  886   *pBuf++ = HI_UINT16( pCmd->blockThresholdMask );
//  887   pBuf = osal_buffer_uint24( pBuf, pCmd->BlockThresholdMultiplier );
//  888   pBuf = osal_buffer_uint24( pBuf, pCmd->BlockThresholdDivisor );
//  889 
//  890   status = zcl_SendCommand( srcEP, dstAddr, ZCL_CLUSTER_ID_SE_PRICING,
//  891                             COMMAND_SE_PUBLISH_TARIFF_INFO, TRUE,
//  892                             ZCL_FRAME_SERVER_CLIENT_DIR, disableDefaultRsp, 0,
//  893                             seqNum, bufLen, buf );
//  894   osal_mem_free( buf );
//  895 
//  896   return status;
//  897 }
//  898 
//  899 /*********************************************************************
//  900  * @fn      zclSE_Pricing_Send_PublishPriceMatrix
//  901  *
//  902  * @brief   Call to send out a Publish Price Matrix
//  903  *
//  904  * @param   srcEP - Sending application's endpoint
//  905  * @param   dstAddr - where you want the message to go
//  906  * @param   pCmd - command payload
//  907  * @param   disableDefaultRsp - disable default response
//  908  * @param   seqNum - ZCL sequence number
//  909  *
//  910  * @return  ZStatus_t
//  911  */
//  912 ZStatus_t zclSE_Pricing_Send_PublishPriceMatrix( uint8 srcEP, afAddrType_t *dstAddr,
//  913                                                  zclCCPublishPriceMatrix_t *pCmd,
//  914                                                  uint8 disableDefaultRsp, uint8 seqNum )
//  915 {
//  916   uint8 *buf;
//  917   uint8 *pBuf;
//  918   uint16 bufLen;
//  919   ZStatus_t status;
//  920   uint8 i;
//  921 
//  922   bufLen = PACKET_LEN_SE_MIN_PUBLISH_PRICE_MATRIX + (pCmd->numElements * sizeof(uint32));
//  923   buf = osal_mem_alloc( bufLen );
//  924   if ( buf == NULL )
//  925   {
//  926     return ( ZMemError );
//  927   }
//  928 
//  929   pBuf = osal_buffer_uint32( buf, pCmd->issuerTariffId );
//  930   *pBuf++ = pCmd->commandIndex;
//  931 
//  932   for ( i = 0; i < pCmd->numElements; i++ )
//  933   {
//  934     pBuf = osal_buffer_uint32( pBuf, pCmd->pTierBlockPrice[i] );
//  935   }
//  936 
//  937   status = zcl_SendCommand( srcEP, dstAddr, ZCL_CLUSTER_ID_SE_PRICING,
//  938                             COMMAND_SE_PUBLISH_PRICE_MATRIX, TRUE,
//  939                             ZCL_FRAME_SERVER_CLIENT_DIR, disableDefaultRsp, 0,
//  940                             seqNum, bufLen, buf );
//  941   osal_mem_free( buf );
//  942 
//  943   return status;
//  944 }
//  945 
//  946 /*********************************************************************
//  947  * @fn      zclSE_Pricing_Send_PublishBlockThresholds
//  948  *
//  949  * @brief   Call to send out a Publish Block Thresholds
//  950  *
//  951  * @param   srcEP - Sending application's endpoint
//  952  * @param   dstAddr - where you want the message to go
//  953  * @param   pCmd - command payload
//  954  * @param   disableDefaultRsp - disable default response
//  955  * @param   seqNum - ZCL sequence number
//  956  *
//  957  * @return  ZStatus_t
//  958  */
//  959 ZStatus_t zclSE_Pricing_Send_PublishBlockThresholds( uint8 srcEP, afAddrType_t *dstAddr,
//  960                                                  zclCCPublishBlockThresholds_t *pCmd,
//  961                                                  uint8 disableDefaultRsp, uint8 seqNum )
//  962 {
//  963   uint8 *buf;
//  964   uint8 *pBuf;
//  965   uint16 bufLen;
//  966   ZStatus_t status;
//  967   uint8 i;
//  968 
//  969   bufLen = PACKET_LEN_SE_MIN_PUBLISH_BLOCK_THRESHOLD + (pCmd->numElements * 6);
//  970   buf = osal_mem_alloc( bufLen );
//  971   if ( buf == NULL )
//  972   {
//  973     return ( ZMemError );
//  974   }
//  975 
//  976   pBuf = osal_buffer_uint32( buf, pCmd->issuerTariffId );
//  977   *pBuf++ = pCmd->commandIndex;
//  978 
//  979   for ( i = 0; i < pCmd->numElements; i++ )
//  980   {
//  981     pBuf = osal_memcpy( pBuf, pCmd->pTierBlockThreshold[i], 6 );
//  982   }
//  983 
//  984   status = zcl_SendCommand( srcEP, dstAddr, ZCL_CLUSTER_ID_SE_PRICING,
//  985                             COMMAND_SE_PUBLISH_BLOCK_THRESHOLD, TRUE,
//  986                             ZCL_FRAME_SERVER_CLIENT_DIR, disableDefaultRsp, 0,
//  987                             seqNum, bufLen, buf );
//  988   osal_mem_free( buf );
//  989 
//  990   return status;
//  991 }
//  992 
//  993 /*********************************************************************
//  994  * @fn      zclSE_Pricing_Send_PublishConversionFactor
//  995  *
//  996  * @brief   Call to send out a Publish Conversion Factor
//  997  *
//  998  * @param   srcEP - Sending application's endpoint
//  999  * @param   dstAddr - where you want the message to go
// 1000  * @param   pCmd - command payload
// 1001  * @param   disableDefaultRsp - disable default response
// 1002  * @param   seqNum - ZCL sequence number
// 1003  *
// 1004  * @return  ZStatus_t
// 1005  */
// 1006 ZStatus_t zclSE_Pricing_Send_PublishConversionFactor( uint8 srcEP, afAddrType_t *dstAddr,
// 1007                                                  zclCCPublishConversionFactor_t *pCmd,
// 1008                                                  uint8 disableDefaultRsp, uint8 seqNum )
// 1009 {
// 1010   uint8 buf[PACKET_LEN_SE_PUBLISH_CONVERSION_FACTOR];
// 1011   uint8 *pBuf;
// 1012 
// 1013   pBuf = osal_buffer_uint32( buf, pCmd->issuerEventId );
// 1014   pBuf = osal_buffer_uint32( pBuf, pCmd->startTime );
// 1015   pBuf = osal_buffer_uint32( pBuf, pCmd->conversionFactor );
// 1016   *pBuf = pCmd->trailingDigit;
// 1017 
// 1018   return zcl_SendCommand( srcEP, dstAddr, ZCL_CLUSTER_ID_SE_PRICING,
// 1019                           COMMAND_SE_PUBLISH_CONVERSION_FACTOR, TRUE,
// 1020                           ZCL_FRAME_SERVER_CLIENT_DIR, disableDefaultRsp, 0,
// 1021                           seqNum, PACKET_LEN_SE_PUBLISH_CONVERSION_FACTOR, buf );
// 1022 }
// 1023 
// 1024 /*********************************************************************
// 1025  * @fn      zclSE_Pricing_Send_PublishCalorificValue
// 1026  *
// 1027  * @brief   Call to send out a Publish Calorific Value
// 1028  *
// 1029  * @param   srcEP - Sending application's endpoint
// 1030  * @param   dstAddr - where you want the message to go
// 1031  * @param   pCmd - command payload
// 1032  * @param   disableDefaultRsp - disable default response
// 1033  * @param   seqNum - ZCL sequence number
// 1034  *
// 1035  * @return  ZStatus_t
// 1036  */
// 1037 ZStatus_t zclSE_Pricing_Send_PublishCalorificValue( uint8 srcEP, afAddrType_t *dstAddr,
// 1038                                                  zclCCPublishCalorificValue_t *pCmd,
// 1039                                                  uint8 disableDefaultRsp, uint8 seqNum )
// 1040 {
// 1041   uint8 buf[PACKET_LEN_SE_PUBLISH_CALORIFIC_VALUE];
// 1042   uint8 *pBuf;
// 1043 
// 1044   pBuf = osal_buffer_uint32( buf, pCmd->issuerEventId );
// 1045   pBuf = osal_buffer_uint32( pBuf, pCmd->startTime );
// 1046   pBuf = osal_buffer_uint32( pBuf, pCmd->calorificValue );
// 1047   *pBuf++ = pCmd->calorificValueUnit;
// 1048   *pBuf = pCmd->trailingDigit;
// 1049 
// 1050   return zcl_SendCommand( srcEP, dstAddr, ZCL_CLUSTER_ID_SE_PRICING,
// 1051                           COMMAND_SE_PUBLISH_CALORIFIC_VALUE, TRUE,
// 1052                           ZCL_FRAME_SERVER_CLIENT_DIR, disableDefaultRsp, 0,
// 1053                           seqNum, PACKET_LEN_SE_PUBLISH_CALORIFIC_VALUE, buf );
// 1054 }
// 1055 
// 1056 /*********************************************************************
// 1057  * @fn      zclSE_Pricing_Send_PublishCO2Value
// 1058  *
// 1059  * @brief   Call to send out a Publish CO2 Value
// 1060  *
// 1061  * @param   srcEP - Sending application's endpoint
// 1062  * @param   dstAddr - where you want the message to go
// 1063  * @param   pCmd - command payload
// 1064  * @param   disableDefaultRsp - disable default response
// 1065  * @param   seqNum - ZCL sequence number
// 1066  *
// 1067  * @return  ZStatus_t
// 1068  */
// 1069 ZStatus_t zclSE_Pricing_Send_PublishCO2Value( uint8 srcEP, afAddrType_t *dstAddr,
// 1070                                                  zclCCPublishCO2Value_t *pCmd,
// 1071                                                  uint8 disableDefaultRsp, uint8 seqNum )
// 1072 {
// 1073   uint8 buf[PACKET_LEN_SE_PUBLISH_CO2_VALUE];
// 1074   uint8 *pBuf;
// 1075 
// 1076   pBuf = osal_buffer_uint32( buf, pCmd->issuerEventId );
// 1077   pBuf = osal_buffer_uint32( pBuf, pCmd->startTime );
// 1078   *pBuf++ = pCmd->tariffType;
// 1079   pBuf = osal_buffer_uint32( pBuf, pCmd->CO2Value );
// 1080   *pBuf++ = pCmd->CO2ValueUnit;
// 1081   *pBuf = pCmd->trailingDigit;
// 1082 
// 1083   return zcl_SendCommand( srcEP, dstAddr, ZCL_CLUSTER_ID_SE_PRICING,
// 1084                           COMMAND_SE_PUBLISH_CO2_VALUE, TRUE,
// 1085                           ZCL_FRAME_SERVER_CLIENT_DIR, disableDefaultRsp, 0,
// 1086                           seqNum, PACKET_LEN_SE_PUBLISH_CO2_VALUE, buf );
// 1087 }
// 1088 
// 1089 /*********************************************************************
// 1090  * @fn      zclSE_Pricing_Send_PublishCPPEvent
// 1091  *
// 1092  * @brief   Call to send out a Publish CPP Event
// 1093  *
// 1094  * @param   srcEP - Sending application's endpoint
// 1095  * @param   dstAddr - where you want the message to go
// 1096  * @param   pCmd - command payload
// 1097  * @param   disableDefaultRsp - disable default response
// 1098  * @param   seqNum - ZCL sequence number
// 1099  *
// 1100  * @return  ZStatus_t
// 1101  */
// 1102 ZStatus_t zclSE_Pricing_Send_PublishCPPEvent( uint8 srcEP, afAddrType_t *dstAddr,
// 1103                                                  zclCCPublishCPPEvent_t *pCmd,
// 1104                                                  uint8 disableDefaultRsp, uint8 seqNum )
// 1105 {
// 1106   uint8 buf[PACKET_LEN_SE_PUBLISH_CPP_EVENT];
// 1107   uint8 *pBuf;
// 1108 
// 1109   pBuf = osal_buffer_uint32( buf, pCmd->issuerEventId );
// 1110   pBuf = osal_buffer_uint32( pBuf, pCmd->startTime );
// 1111   *pBuf++ = LO_UINT16( pCmd->durationInMinutes );
// 1112   *pBuf++ = HI_UINT16( pCmd->durationInMinutes );
// 1113   *pBuf++ = pCmd->tariffType;
// 1114   *pBuf++ = pCmd->CPPPriceTier;
// 1115   *pBuf = pCmd->CPPAuth;
// 1116 
// 1117   return zcl_SendCommand( srcEP, dstAddr, ZCL_CLUSTER_ID_SE_PRICING,
// 1118                           COMMAND_SE_PUBLISH_CPP_EVENT, TRUE,
// 1119                           ZCL_FRAME_SERVER_CLIENT_DIR, disableDefaultRsp, 0,
// 1120                           seqNum, PACKET_LEN_SE_PUBLISH_CPP_EVENT, buf );
// 1121 }
// 1122 
// 1123 /*********************************************************************
// 1124  * @fn      zclSE_Pricing_Send_PublishBillingPeriod
// 1125  *
// 1126  * @brief   Call to send out a Publish Billing Period
// 1127  *
// 1128  * @param   srcEP - Sending application's endpoint
// 1129  * @param   dstAddr - where you want the message to go
// 1130  * @param   pCmd - command payload
// 1131  * @param   disableDefaultRsp - disable default response
// 1132  * @param   seqNum - ZCL sequence number
// 1133  *
// 1134  * @return  ZStatus_t
// 1135  */
// 1136 ZStatus_t zclSE_Pricing_Send_PublishBillingPeriod( uint8 srcEP, afAddrType_t *dstAddr,
// 1137                                                  zclCCPublishBillingPeriod_t *pCmd,
// 1138                                                  uint8 disableDefaultRsp, uint8 seqNum )
// 1139 {
// 1140   uint8 buf[PACKET_LEN_SE_PUBLISH_BILLING_PERIOD];
// 1141   uint8 *pBuf;
// 1142 
// 1143   pBuf = osal_buffer_uint32( buf, pCmd->issuerEventId );
// 1144   pBuf = osal_buffer_uint32( pBuf, pCmd->startTime );
// 1145   pBuf = osal_buffer_uint24( pBuf, pCmd->duration );
// 1146   *pBuf = pCmd->tariffType;
// 1147 
// 1148   return zcl_SendCommand( srcEP, dstAddr, ZCL_CLUSTER_ID_SE_PRICING,
// 1149                           COMMAND_SE_PUBLISH_BILLING_PERIOD, TRUE,
// 1150                           ZCL_FRAME_SERVER_CLIENT_DIR, disableDefaultRsp, 0,
// 1151                           seqNum, PACKET_LEN_SE_PUBLISH_BILLING_PERIOD, buf );
// 1152 }
// 1153 
// 1154 /*********************************************************************
// 1155  * @fn      zclSE_Pricing_Send_PublishConsolidatedBill
// 1156  *
// 1157  * @brief   Call to send out a Publish Consolidated Bill
// 1158  *
// 1159  * @param   srcEP - Sending application's endpoint
// 1160  * @param   dstAddr - where you want the message to go
// 1161  * @param   pCmd - command payload
// 1162  * @param   disableDefaultRsp - disable default response
// 1163  * @param   seqNum - ZCL sequence number
// 1164  *
// 1165  * @return  ZStatus_t
// 1166  */
// 1167 ZStatus_t zclSE_Pricing_Send_PublishConsolidatedBill( uint8 srcEP, afAddrType_t *dstAddr,
// 1168                                                  zclCCPublishConsolidatedBill_t *pCmd,
// 1169                                                  uint8 disableDefaultRsp, uint8 seqNum )
// 1170 {
// 1171   uint8 buf[PACKET_LEN_SE_PUBLISH_CONSOLIDATED_BILL];
// 1172   uint8 *pBuf;
// 1173 
// 1174   pBuf = osal_buffer_uint32( buf, pCmd->issuerEventId );
// 1175   pBuf = osal_buffer_uint32( pBuf, pCmd->startTime );
// 1176   pBuf = osal_buffer_uint24( pBuf, pCmd->duration );
// 1177   *pBuf++ = pCmd->tariffType;
// 1178   pBuf = osal_buffer_uint32( pBuf, pCmd->consolidatedBill );
// 1179   *pBuf++ = LO_UINT16( pCmd->currency );
// 1180   *pBuf++ = HI_UINT16( pCmd->currency );
// 1181   *pBuf = pCmd->trailingDigit;
// 1182 
// 1183   return zcl_SendCommand( srcEP, dstAddr, ZCL_CLUSTER_ID_SE_PRICING,
// 1184                           COMMAND_SE_PUBLISH_CONSOLIDATED_BILL, TRUE,
// 1185                           ZCL_FRAME_SERVER_CLIENT_DIR, disableDefaultRsp, 0,
// 1186                           seqNum, PACKET_LEN_SE_PUBLISH_CONSOLIDATED_BILL, buf );
// 1187 }
// 1188 
// 1189 /*********************************************************************
// 1190  * @fn      zclSE_Pricing_Send_PublishCreditPaymentInfo
// 1191  *
// 1192  * @brief   Call to send out a Publish Credit Payment Info
// 1193  *
// 1194  * @param   srcEP - Sending application's endpoint
// 1195  * @param   dstAddr - where you want the message to go
// 1196  * @param   pCmd - command payload
// 1197  * @param   disableDefaultRsp - disable default response
// 1198  * @param   seqNum - ZCL sequence number
// 1199  *
// 1200  * @return  ZStatus_t
// 1201  */
// 1202 ZStatus_t zclSE_Pricing_Send_PublishCreditPaymentInfo( uint8 srcEP, afAddrType_t *dstAddr,
// 1203                                                  zclCCPublishCreditPaymentInfo_t *pCmd,
// 1204                                                  uint8 disableDefaultRsp, uint8 seqNum )
// 1205 {
// 1206   uint8 *buf;
// 1207   uint8 *pBuf;
// 1208   uint16 bufLen;
// 1209   ZStatus_t status;
// 1210 
// 1211   bufLen = PACKET_LEN_SE_MIN_PUBLISH_CREDIT_PAYMENT_INFO + pCmd->creditPaymentRef.strLen;
// 1212   buf = osal_mem_alloc( bufLen );
// 1213   if ( buf == NULL )
// 1214   {
// 1215     return ( ZMemError );
// 1216   }
// 1217 
// 1218   pBuf = osal_buffer_uint32( buf, pCmd->issuerEventId );
// 1219   pBuf = osal_buffer_uint32( pBuf, pCmd->paymentDueDate );
// 1220   pBuf = osal_buffer_uint32( pBuf, pCmd->creditPaymentOverdueAmt );
// 1221   *pBuf++ = pCmd->creditPaymentStatus;
// 1222   pBuf = osal_buffer_uint32( pBuf, pCmd->creditPayment );
// 1223   pBuf = osal_buffer_uint32( pBuf, pCmd->creditPaymentDate );
// 1224   *pBuf++ = pCmd->creditPaymentRef.strLen;
// 1225   osal_memcpy( pBuf, pCmd->creditPaymentRef.pStr, pCmd->creditPaymentRef.strLen );
// 1226 
// 1227   status = zcl_SendCommand( srcEP, dstAddr, ZCL_CLUSTER_ID_SE_PRICING,
// 1228                             COMMAND_SE_PUBLISH_CREDIT_PAYMENT_INFO, TRUE,
// 1229                             ZCL_FRAME_SERVER_CLIENT_DIR, disableDefaultRsp, 0,
// 1230                             seqNum, bufLen, buf );
// 1231   osal_mem_free( buf );
// 1232 
// 1233   return status;
// 1234 }
// 1235 
// 1236 /*********************************************************************
// 1237  * @fn      zclSE_Pricing_Send_GetTariffInformation
// 1238  *
// 1239  * @brief   Call to send out a Get Tariff Information
// 1240  *
// 1241  * @param   srcEP - Sending application's endpoint
// 1242  * @param   dstAddr - where you want the message to go
// 1243  * @param   pCmd - command payload
// 1244  * @param   disableDefaultRsp - disable default response
// 1245  * @param   seqNum - ZCL sequence number
// 1246  *
// 1247  * @return  ZStatus_t
// 1248  */
// 1249 ZStatus_t zclSE_Pricing_Send_GetTariffInformation( uint8 srcEP, afAddrType_t *dstAddr,
// 1250                                                    zclCCGetTariffInformation_t *pCmd,
// 1251                                                    uint8 disableDefaultRsp, uint8 seqNum )
// 1252 {
// 1253   uint8 buf[PACKET_LEN_SE_GET_TARIFF_INFO];
// 1254   uint8 *pBuf;
// 1255 
// 1256   pBuf = osal_buffer_uint32( buf, pCmd->startTime );
// 1257   *pBuf++ = pCmd->numEvents;
// 1258   *pBuf = pCmd->tariffType;
// 1259 
// 1260   return zcl_SendCommand( srcEP, dstAddr, ZCL_CLUSTER_ID_SE_PRICING,
// 1261                           COMMAND_SE_GET_TARIFF_INFO, TRUE,
// 1262                           ZCL_FRAME_CLIENT_SERVER_DIR, disableDefaultRsp, 0,
// 1263                           seqNum, PACKET_LEN_SE_GET_TARIFF_INFO, buf );
// 1264 }
// 1265 
// 1266 /*********************************************************************
// 1267  * @fn      zclSE_Pricing_Send_GetPriceMatrix
// 1268  *
// 1269  * @brief   Call to send out a Get Price Matrix
// 1270  *
// 1271  * @param   srcEP - Sending application's endpoint
// 1272  * @param   dstAddr - where you want the message to go
// 1273  * @param   issuerId - Issuer ID
// 1274  * @param   disableDefaultRsp - disable default response
// 1275  * @param   seqNum - ZCL sequence number
// 1276  *
// 1277  * @return  ZStatus_t
// 1278  */
// 1279 ZStatus_t zclSE_Pricing_Send_GetPriceMatrix( uint8 srcEP, afAddrType_t *dstAddr,
// 1280                                              uint32 issuerId,
// 1281                                              uint8 disableDefaultRsp, uint8 seqNum )
// 1282 {
// 1283   uint8 buf[PACKET_LEN_SE_GET_PRICE_MATRIX];
// 1284 
// 1285   osal_buffer_uint32( buf, issuerId );
// 1286 
// 1287   return zcl_SendCommand( srcEP, dstAddr, ZCL_CLUSTER_ID_SE_PRICING,
// 1288                           COMMAND_SE_GET_PRICE_MATRIX, TRUE,
// 1289                           ZCL_FRAME_CLIENT_SERVER_DIR, disableDefaultRsp, 0,
// 1290                           seqNum, PACKET_LEN_SE_GET_PRICE_MATRIX, buf );
// 1291 }
// 1292 
// 1293 /*********************************************************************
// 1294  * @fn      zclSE_Pricing_Send_GetBlockThresholds
// 1295  *
// 1296  * @brief   Call to send out a Get Block Thresholds
// 1297  *
// 1298  * @param   srcEP - Sending application's endpoint
// 1299  * @param   dstAddr - where you want the message to go
// 1300  * @param   issuerId - Issuer ID
// 1301  * @param   disableDefaultRsp - disable default response
// 1302  * @param   seqNum - ZCL sequence number
// 1303  *
// 1304  * @return  ZStatus_t
// 1305  */
// 1306 ZStatus_t zclSE_Pricing_Send_GetBlockThresholds( uint8 srcEP, afAddrType_t *dstAddr,
// 1307                                                  uint32 issuerId,
// 1308                                                  uint8 disableDefaultRsp, uint8 seqNum )
// 1309 {
// 1310   uint8 buf[PACKET_LEN_SE_GET_BLOCK_THRESHOLD];
// 1311 
// 1312   osal_buffer_uint32( buf, issuerId );
// 1313 
// 1314   return zcl_SendCommand( srcEP, dstAddr, ZCL_CLUSTER_ID_SE_PRICING,
// 1315                           COMMAND_SE_GET_BLOCK_THRESHOLD, TRUE,
// 1316                           ZCL_FRAME_CLIENT_SERVER_DIR, disableDefaultRsp, 0,
// 1317                           seqNum, PACKET_LEN_SE_GET_BLOCK_THRESHOLD, buf );
// 1318 }
// 1319 
// 1320 /*********************************************************************
// 1321  * @fn      zclSE_Pricing_Send_GetConversionFactor
// 1322  *
// 1323  * @brief   Call to send out a Get Conversion Factor
// 1324  *
// 1325  * @param   srcEP - Sending application's endpoint
// 1326  * @param   dstAddr - where you want the message to go
// 1327  * @param   pCmd - command payload
// 1328  * @param   disableDefaultRsp - disable default response
// 1329  * @param   seqNum - ZCL sequence number
// 1330  *
// 1331  * @return  ZStatus_t
// 1332  */
// 1333 ZStatus_t zclSE_Pricing_Send_GetConversionFactor( uint8 srcEP, afAddrType_t *dstAddr,
// 1334                                                   zclCCGetConversionFactor_t *pCmd,
// 1335                                                   uint8 disableDefaultRsp, uint8 seqNum )
// 1336 {
// 1337   uint8 buf[PACKET_LEN_SE_GET_CONVERSION_FACTOR];
// 1338   uint8 *pBuf;
// 1339 
// 1340   pBuf = osal_buffer_uint32( buf, pCmd->startTime );
// 1341   *pBuf = pCmd->numEvents;
// 1342 
// 1343   return zcl_SendCommand( srcEP, dstAddr, ZCL_CLUSTER_ID_SE_PRICING,
// 1344                           COMMAND_SE_GET_CONVERSION_FACTOR, TRUE,
// 1345                           ZCL_FRAME_CLIENT_SERVER_DIR, disableDefaultRsp, 0,
// 1346                           seqNum, PACKET_LEN_SE_GET_CONVERSION_FACTOR, buf );
// 1347 }
// 1348 
// 1349 /*********************************************************************
// 1350  * @fn      zclSE_Pricing_Send_GetCalorificValue
// 1351  *
// 1352  * @brief   Call to send out a Get Calorific Value
// 1353  *
// 1354  * @param   srcEP - Sending application's endpoint
// 1355  * @param   dstAddr - where you want the message to go
// 1356  * @param   pCmd - command payload
// 1357  * @param   disableDefaultRsp - disable default response
// 1358  * @param   seqNum - ZCL sequence number
// 1359  *
// 1360  * @return  ZStatus_t
// 1361  */
// 1362 ZStatus_t zclSE_Pricing_Send_GetCalorificValue( uint8 srcEP, afAddrType_t *dstAddr,
// 1363                                                 zclCCGetCalorificValue_t *pCmd,
// 1364                                                 uint8 disableDefaultRsp, uint8 seqNum )
// 1365 {
// 1366   uint8 buf[PACKET_LEN_SE_GET_CALORIFIC_VALUE];
// 1367   uint8 *pBuf;
// 1368 
// 1369   pBuf = osal_buffer_uint32( buf, pCmd->startTime );
// 1370   *pBuf = pCmd->numEvents;
// 1371 
// 1372   return zcl_SendCommand( srcEP, dstAddr, ZCL_CLUSTER_ID_SE_PRICING,
// 1373                           COMMAND_SE_GET_CALORIFIC_VALUE, TRUE,
// 1374                           ZCL_FRAME_CLIENT_SERVER_DIR, disableDefaultRsp, 0,
// 1375                           seqNum, PACKET_LEN_SE_GET_CALORIFIC_VALUE, buf );
// 1376 }
// 1377 
// 1378 /*********************************************************************
// 1379  * @fn      zclSE_Pricing_Send_GetCO2Value
// 1380  *
// 1381  * @brief   Call to send out a Get CO2 Value
// 1382  *
// 1383  * @param   srcEP - Sending application's endpoint
// 1384  * @param   dstAddr - where you want the message to go
// 1385  * @param   pCmd - command payload
// 1386  * @param   disableDefaultRsp - disable default response
// 1387  * @param   seqNum - ZCL sequence number
// 1388  *
// 1389  * @return  ZStatus_t
// 1390  */
// 1391 ZStatus_t zclSE_Pricing_Send_GetCO2Value( uint8 srcEP, afAddrType_t *dstAddr,
// 1392                                                 zclCCGetCO2Value_t *pCmd,
// 1393                                                 uint8 disableDefaultRsp, uint8 seqNum )
// 1394 {
// 1395   uint8 buf[PACKET_LEN_SE_GET_CO2_VALUE];
// 1396   uint8 *pBuf;
// 1397 
// 1398   pBuf = osal_buffer_uint32( buf, pCmd->startTime );
// 1399   *pBuf++ = pCmd->numEvents;
// 1400   *pBuf = pCmd->tariffType;
// 1401 
// 1402   return zcl_SendCommand( srcEP, dstAddr, ZCL_CLUSTER_ID_SE_PRICING,
// 1403                           COMMAND_SE_GET_CO2_VALUE, TRUE,
// 1404                           ZCL_FRAME_CLIENT_SERVER_DIR, disableDefaultRsp, 0,
// 1405                           seqNum, PACKET_LEN_SE_GET_CO2_VALUE, buf );
// 1406 }
// 1407 
// 1408 /*********************************************************************
// 1409  * @fn      zclSE_Pricing_Send_GetBillingPeriod
// 1410  *
// 1411  * @brief   Call to send out a Get Billing Period
// 1412  *
// 1413  * @param   srcEP - Sending application's endpoint
// 1414  * @param   dstAddr - where you want the message to go
// 1415  * @param   pCmd - command payload
// 1416  * @param   disableDefaultRsp - disable default response
// 1417  * @param   seqNum - ZCL sequence number
// 1418  *
// 1419  * @return  ZStatus_t
// 1420  */
// 1421 ZStatus_t zclSE_Pricing_Send_GetBillingPeriod( uint8 srcEP, afAddrType_t *dstAddr,
// 1422                                                zclCCGetBillingPeriod_t *pCmd,
// 1423                                                uint8 disableDefaultRsp, uint8 seqNum )
// 1424 {
// 1425   uint8 buf[PACKET_LEN_SE_GET_BILLING_PERIOD];
// 1426   uint8 *pBuf;
// 1427 
// 1428   pBuf = osal_buffer_uint32( buf, pCmd->startTime );
// 1429   *pBuf++ = pCmd->numEvents;
// 1430   *pBuf = pCmd->tariffType;
// 1431 
// 1432   return zcl_SendCommand( srcEP, dstAddr, ZCL_CLUSTER_ID_SE_PRICING,
// 1433                           COMMAND_SE_GET_BILLING_PERIOD, TRUE,
// 1434                           ZCL_FRAME_CLIENT_SERVER_DIR, disableDefaultRsp, 0,
// 1435                           seqNum, PACKET_LEN_SE_GET_BILLING_PERIOD, buf );
// 1436 }
// 1437 
// 1438 /*********************************************************************
// 1439  * @fn      zclSE_Pricing_Send_GetConsolidatedBill
// 1440  *
// 1441  * @brief   Call to send out a Get Consolidated Bill
// 1442  *
// 1443  * @param   srcEP - Sending application's endpoint
// 1444  * @param   dstAddr - where you want the message to go
// 1445  * @param   pCmd - command payload
// 1446  * @param   disableDefaultRsp - disable default response
// 1447  * @param   seqNum - ZCL sequence number
// 1448  *
// 1449  * @return  ZStatus_t
// 1450  */
// 1451 ZStatus_t zclSE_Pricing_Send_GetConsolidatedBill( uint8 srcEP, afAddrType_t *dstAddr,
// 1452                                                 zclCCGetConsolidatedBill_t *pCmd,
// 1453                                                 uint8 disableDefaultRsp, uint8 seqNum )
// 1454 {
// 1455   uint8 buf[PACKET_LEN_SE_GET_CONSOLIDATED_BILL];
// 1456   uint8 *pBuf;
// 1457 
// 1458   pBuf = osal_buffer_uint32( buf, pCmd->startTime );
// 1459   *pBuf++ = pCmd->numEvents;
// 1460   *pBuf = pCmd->tariffType;
// 1461 
// 1462   return zcl_SendCommand( srcEP, dstAddr, ZCL_CLUSTER_ID_SE_PRICING,
// 1463                           COMMAND_SE_GET_CONSOLIDATED_BILL, TRUE,
// 1464                           ZCL_FRAME_CLIENT_SERVER_DIR, disableDefaultRsp, 0,
// 1465                           seqNum, PACKET_LEN_SE_GET_CONSOLIDATED_BILL, buf );
// 1466 }
// 1467 
// 1468 /*********************************************************************
// 1469  * @fn      zclSE_Pricing_Send_CPPEventResponse
// 1470  *
// 1471  * @brief   Call to send out a CPP Event Response
// 1472  *
// 1473  * @param   srcEP - Sending application's endpoint
// 1474  * @param   dstAddr - where you want the message to go
// 1475  * @param   pCmd - command payload
// 1476  * @param   disableDefaultRsp - disable default response
// 1477  * @param   seqNum - ZCL sequence number
// 1478  *
// 1479  * @return  ZStatus_t
// 1480  */
// 1481 ZStatus_t zclSE_Pricing_Send_CPPEventResponse( uint8 srcEP, afAddrType_t *dstAddr,
// 1482                                                zclCCCPPEventResponse_t *pCmd,
// 1483                                                uint8 disableDefaultRsp, uint8 seqNum )
// 1484 {
// 1485   uint8 buf[PACKET_LEN_SE_CPP_EVENT_RESPONSE];
// 1486   uint8 *pBuf;
// 1487 
// 1488   pBuf = osal_buffer_uint32( buf, pCmd->issuerEventId );
// 1489   *pBuf = pCmd->CPPAuth;
// 1490 
// 1491   return zcl_SendCommand( srcEP, dstAddr, ZCL_CLUSTER_ID_SE_PRICING,
// 1492                           COMMAND_SE_CPP_EVENT_RESPONSE, TRUE,
// 1493                           ZCL_FRAME_CLIENT_SERVER_DIR, disableDefaultRsp, 0,
// 1494                           seqNum, PACKET_LEN_SE_CPP_EVENT_RESPONSE, buf );
// 1495 }
// 1496 #endif  // SE_UK_EXT
// 1497 #endif  // ZCL_PRICING
// 1498 
// 1499 
// 1500 #ifdef ZCL_MESSAGE
// 1501 /*********************************************************************
// 1502  * @fn      zclSE_Message_Send_DisplayMessage
// 1503  *
// 1504  * @brief   Call to send out a Display Message Command
// 1505  *
// 1506  * @param   srcEP - Sending application's endpoint
// 1507  * @param   dstAddr - where you want the message to go
// 1508  * @param   pCmd - command payload
// 1509  * @param   disableDefaultRsp - disable default response
// 1510  * @param   seqNum - ZCL sequence number
// 1511  *
// 1512  * @return  ZStatus_t
// 1513  */

        RSEG BANKED_CODE:CODE:NOROOT(0)
// 1514 ZStatus_t zclSE_Message_Send_DisplayMessage( uint8 srcEP, afAddrType_t *dstAddr,
zclSE_Message_Send_DisplayMessage:
        CFI Block cfiBlock52 Using cfiCommon0
        CFI Function zclSE_Message_Send_DisplayMessage
        CODE
// 1515                                              zclCCDisplayMessage_t *pCmd,
// 1516                                              uint8 disableDefaultRsp, uint8 seqNum )
// 1517 {
        FUNCALL zclSE_Message_Send_DisplayMessage, osal_mem_alloc
        LOCFRAME ISTACK, 0, STACK
        LOCFRAME PSTACK, 0, STACK
        LOCFRAME XSTACK, 22, STACK
        LOCFRAME IOVERLAY, 0, STATIC
        LOCFRAME DOVERLAY, 0, STATIC
        ARGFRAME ISTACK, 0, STACK
        ARGFRAME PSTACK, 0, STACK
        ARGFRAME XSTACK, 22, STACK
        ARGFRAME IOVERLAY, 0, STATIC
        ARGFRAME DOVERLAY, 0, STATIC
        FUNCALL zclSE_Message_Send_DisplayMessage, osal_buffer_uint32
        LOCFRAME ISTACK, 0, STACK
        LOCFRAME PSTACK, 0, STACK
        LOCFRAME XSTACK, 26, STACK
        LOCFRAME IOVERLAY, 0, STATIC
        LOCFRAME DOVERLAY, 0, STATIC
        ARGFRAME ISTACK, 0, STACK
        ARGFRAME PSTACK, 0, STACK
        ARGFRAME XSTACK, 26, STACK
        ARGFRAME IOVERLAY, 0, STATIC
        ARGFRAME DOVERLAY, 0, STATIC
        FUNCALL zclSE_Message_Send_DisplayMessage, osal_buffer_uint32
        LOCFRAME ISTACK, 0, STACK
        LOCFRAME PSTACK, 0, STACK
        LOCFRAME XSTACK, 26, STACK
        LOCFRAME IOVERLAY, 0, STATIC
        LOCFRAME DOVERLAY, 0, STATIC
        ARGFRAME ISTACK, 0, STACK
        ARGFRAME PSTACK, 0, STACK
        ARGFRAME XSTACK, 26, STACK
        ARGFRAME IOVERLAY, 0, STATIC
        ARGFRAME DOVERLAY, 0, STATIC
        FUNCALL zclSE_Message_Send_DisplayMessage, osal_memcpy
        LOCFRAME ISTACK, 0, STACK
        LOCFRAME PSTACK, 0, STACK
        LOCFRAME XSTACK, 25, STACK
        LOCFRAME IOVERLAY, 0, STATIC
        LOCFRAME DOVERLAY, 0, STATIC
        ARGFRAME ISTACK, 0, STACK
        ARGFRAME PSTACK, 0, STACK
        ARGFRAME XSTACK, 25, STACK
        ARGFRAME IOVERLAY, 0, STATIC
        ARGFRAME DOVERLAY, 0, STATIC
        FUNCALL zclSE_Message_Send_DisplayMessage, zcl_SendCommand
        LOCFRAME ISTACK, 0, STACK
        LOCFRAME PSTACK, 0, STACK
        LOCFRAME XSTACK, 33, STACK
        LOCFRAME IOVERLAY, 0, STATIC
        LOCFRAME DOVERLAY, 0, STATIC
        ARGFRAME ISTACK, 0, STACK
        ARGFRAME PSTACK, 0, STACK
        ARGFRAME XSTACK, 33, STACK
        ARGFRAME IOVERLAY, 0, STATIC
        ARGFRAME DOVERLAY, 0, STATIC
        FUNCALL zclSE_Message_Send_DisplayMessage, osal_mem_free
        LOCFRAME ISTACK, 0, STACK
        LOCFRAME PSTACK, 0, STACK
        LOCFRAME XSTACK, 22, STACK
        LOCFRAME IOVERLAY, 0, STATIC
        LOCFRAME DOVERLAY, 0, STATIC
        ARGFRAME ISTACK, 0, STACK
        ARGFRAME PSTACK, 0, STACK
        ARGFRAME XSTACK, 22, STACK
        ARGFRAME IOVERLAY, 0, STATIC
        ARGFRAME DOVERLAY, 0, STATIC
        MOV     A,#-0x16
        LCALL   ?BANKED_ENTER_XDATA
        CFI DPH0 load(1, XDATA, add(CFA_XSP16, literal(-1)))
        CFI DPL0 load(1, XDATA, add(CFA_XSP16, literal(-2)))
        CFI ?BRET_EXT load(1, XDATA, add(CFA_XSP16, literal(-3)))
        CFI ?RET_HIGH load(1, XDATA, add(CFA_XSP16, literal(-4)))
        CFI ?RET_LOW load(1, XDATA, add(CFA_XSP16, literal(-5)))
        CFI R7 load(1, XDATA, add(CFA_XSP16, literal(-6)))
        CFI V13 load(1, XDATA, add(CFA_XSP16, literal(-7)))
        CFI V12 load(1, XDATA, add(CFA_XSP16, literal(-8)))
        CFI V11 load(1, XDATA, add(CFA_XSP16, literal(-9)))
        CFI V10 load(1, XDATA, add(CFA_XSP16, literal(-10)))
        CFI V9 load(1, XDATA, add(CFA_XSP16, literal(-11)))
        CFI V8 load(1, XDATA, add(CFA_XSP16, literal(-12)))
        CFI V7 load(1, XDATA, add(CFA_XSP16, literal(-13)))
        CFI V6 load(1, XDATA, add(CFA_XSP16, literal(-14)))
        CFI V5 load(1, XDATA, add(CFA_XSP16, literal(-15)))
        CFI V4 load(1, XDATA, add(CFA_XSP16, literal(-16)))
        CFI V3 load(1, XDATA, add(CFA_XSP16, literal(-17)))
        CFI V2 load(1, XDATA, add(CFA_XSP16, literal(-18)))
        CFI V1 load(1, XDATA, add(CFA_XSP16, literal(-19)))
        CFI V0 load(1, XDATA, add(CFA_XSP16, literal(-20)))
        CFI VB load(1, XDATA, add(CFA_XSP16, literal(-21)))
        CFI R6 load(1, XDATA, add(CFA_XSP16, literal(-22)))
        CFI CFA_SP SP+0
        CFI CFA_XSP16 add(XSP16, 22)
        ; Saved register size: 22
        ; Auto size: 0
        MOV     ?V0 + 6,R1
        MOV     ?V0 + 12,R2
        MOV     ?V0 + 13,R3
        MOV     A,R4
        MOV     R6,A
        MOV     A,R5
        MOV     R7,A
        MOV     A,#0x16
        LCALL   ?XSTACK_DISP0_8
        MOVX    A,@DPTR
        MOV     ?V0 + 5,A
        MOV     A,#0x17
        LCALL   ?XSTACK_DISP0_8
        MOVX    A,@DPTR
        MOV     ?V0 + 4,A
// 1518   uint8 *buf;
// 1519   uint8 *pBuf;
// 1520   uint16 bufLen;
// 1521   ZStatus_t status;
// 1522 
// 1523   // msgId + msgCtrl + start time + duration + msgLen + msg
// 1524   bufLen = 4 + 1 + 4 + 2 + 1 + pCmd->msgString.strLen;
        MOV     A,R6
        ADD     A,#0xf
        MOV     DPL,A
        MOV     A,R7
        LCALL   ??Subroutine170_0 & 0xFFFF
